
/lib/x86_64-linux-gnu/libgcc_s.so.1:     file format elf64-x86-64


Disassembly of section .init:

0000000000003000 <.init>:
    3000:	f3 0f 1e fa          	endbr64 
    3004:	48 83 ec 08          	sub    $0x8,%rsp
    3008:	48 8b 05 d9 6f 01 00 	mov    0x16fd9(%rip),%rax        # 19fe8 <__gmon_start__>
    300f:	48 85 c0             	test   %rax,%rax
    3012:	74 02                	je     3016 <GCC_3.0@@GCC_3.0+0x3016>
    3014:	ff d0                	callq  *%rax
    3016:	48 83 c4 08          	add    $0x8,%rsp
    301a:	c3                   	retq   

Disassembly of section .plt:

0000000000003020 <.plt>:
    3020:	ff 35 e2 6f 01 00    	pushq  0x16fe2(%rip)        # 1a008 <__emutls_register_common@@GCC_4.3.0+0x5ff8>
    3026:	f2 ff 25 e3 6f 01 00 	bnd jmpq *0x16fe3(%rip)        # 1a010 <__emutls_register_common@@GCC_4.3.0+0x6000>
    302d:	0f 1f 00             	nopl   (%rax)
    3030:	f3 0f 1e fa          	endbr64 
    3034:	68 00 00 00 00       	pushq  $0x0
    3039:	f2 e9 e1 ff ff ff    	bnd jmpq 3020 <GCC_3.0@@GCC_3.0+0x3020>
    303f:	90                   	nop
    3040:	f3 0f 1e fa          	endbr64 
    3044:	68 01 00 00 00       	pushq  $0x1
    3049:	f2 e9 d1 ff ff ff    	bnd jmpq 3020 <GCC_3.0@@GCC_3.0+0x3020>
    304f:	90                   	nop
    3050:	f3 0f 1e fa          	endbr64 
    3054:	68 02 00 00 00       	pushq  $0x2
    3059:	f2 e9 c1 ff ff ff    	bnd jmpq 3020 <GCC_3.0@@GCC_3.0+0x3020>
    305f:	90                   	nop
    3060:	f3 0f 1e fa          	endbr64 
    3064:	68 03 00 00 00       	pushq  $0x3
    3069:	f2 e9 b1 ff ff ff    	bnd jmpq 3020 <GCC_3.0@@GCC_3.0+0x3020>
    306f:	90                   	nop
    3070:	f3 0f 1e fa          	endbr64 
    3074:	68 04 00 00 00       	pushq  $0x4
    3079:	f2 e9 a1 ff ff ff    	bnd jmpq 3020 <GCC_3.0@@GCC_3.0+0x3020>
    307f:	90                   	nop
    3080:	f3 0f 1e fa          	endbr64 
    3084:	68 05 00 00 00       	pushq  $0x5
    3089:	f2 e9 91 ff ff ff    	bnd jmpq 3020 <GCC_3.0@@GCC_3.0+0x3020>
    308f:	90                   	nop
    3090:	f3 0f 1e fa          	endbr64 
    3094:	68 06 00 00 00       	pushq  $0x6
    3099:	f2 e9 81 ff ff ff    	bnd jmpq 3020 <GCC_3.0@@GCC_3.0+0x3020>
    309f:	90                   	nop
    30a0:	f3 0f 1e fa          	endbr64 
    30a4:	68 07 00 00 00       	pushq  $0x7
    30a9:	f2 e9 71 ff ff ff    	bnd jmpq 3020 <GCC_3.0@@GCC_3.0+0x3020>
    30af:	90                   	nop
    30b0:	f3 0f 1e fa          	endbr64 
    30b4:	68 08 00 00 00       	pushq  $0x8
    30b9:	f2 e9 61 ff ff ff    	bnd jmpq 3020 <GCC_3.0@@GCC_3.0+0x3020>
    30bf:	90                   	nop
    30c0:	f3 0f 1e fa          	endbr64 
    30c4:	68 09 00 00 00       	pushq  $0x9
    30c9:	f2 e9 51 ff ff ff    	bnd jmpq 3020 <GCC_3.0@@GCC_3.0+0x3020>
    30cf:	90                   	nop
    30d0:	f3 0f 1e fa          	endbr64 
    30d4:	68 0a 00 00 00       	pushq  $0xa
    30d9:	f2 e9 41 ff ff ff    	bnd jmpq 3020 <GCC_3.0@@GCC_3.0+0x3020>
    30df:	90                   	nop
    30e0:	f3 0f 1e fa          	endbr64 
    30e4:	68 0b 00 00 00       	pushq  $0xb
    30e9:	f2 e9 31 ff ff ff    	bnd jmpq 3020 <GCC_3.0@@GCC_3.0+0x3020>
    30ef:	90                   	nop
    30f0:	f3 0f 1e fa          	endbr64 
    30f4:	68 0c 00 00 00       	pushq  $0xc
    30f9:	f2 e9 21 ff ff ff    	bnd jmpq 3020 <GCC_3.0@@GCC_3.0+0x3020>
    30ff:	90                   	nop
    3100:	f3 0f 1e fa          	endbr64 
    3104:	68 0d 00 00 00       	pushq  $0xd
    3109:	f2 e9 11 ff ff ff    	bnd jmpq 3020 <GCC_3.0@@GCC_3.0+0x3020>
    310f:	90                   	nop
    3110:	f3 0f 1e fa          	endbr64 
    3114:	68 0e 00 00 00       	pushq  $0xe
    3119:	f2 e9 01 ff ff ff    	bnd jmpq 3020 <GCC_3.0@@GCC_3.0+0x3020>
    311f:	90                   	nop
    3120:	f3 0f 1e fa          	endbr64 
    3124:	68 0f 00 00 00       	pushq  $0xf
    3129:	f2 e9 f1 fe ff ff    	bnd jmpq 3020 <GCC_3.0@@GCC_3.0+0x3020>
    312f:	90                   	nop
    3130:	f3 0f 1e fa          	endbr64 
    3134:	68 10 00 00 00       	pushq  $0x10
    3139:	f2 e9 e1 fe ff ff    	bnd jmpq 3020 <GCC_3.0@@GCC_3.0+0x3020>
    313f:	90                   	nop
    3140:	f3 0f 1e fa          	endbr64 
    3144:	68 11 00 00 00       	pushq  $0x11
    3149:	f2 e9 d1 fe ff ff    	bnd jmpq 3020 <GCC_3.0@@GCC_3.0+0x3020>
    314f:	90                   	nop
    3150:	f3 0f 1e fa          	endbr64 
    3154:	68 12 00 00 00       	pushq  $0x12
    3159:	f2 e9 c1 fe ff ff    	bnd jmpq 3020 <GCC_3.0@@GCC_3.0+0x3020>
    315f:	90                   	nop
    3160:	f3 0f 1e fa          	endbr64 
    3164:	68 13 00 00 00       	pushq  $0x13
    3169:	f2 e9 b1 fe ff ff    	bnd jmpq 3020 <GCC_3.0@@GCC_3.0+0x3020>
    316f:	90                   	nop
    3170:	f3 0f 1e fa          	endbr64 
    3174:	68 14 00 00 00       	pushq  $0x14
    3179:	f2 e9 a1 fe ff ff    	bnd jmpq 3020 <GCC_3.0@@GCC_3.0+0x3020>
    317f:	90                   	nop
    3180:	f3 0f 1e fa          	endbr64 
    3184:	68 15 00 00 00       	pushq  $0x15
    3189:	f2 e9 91 fe ff ff    	bnd jmpq 3020 <GCC_3.0@@GCC_3.0+0x3020>
    318f:	90                   	nop
    3190:	f3 0f 1e fa          	endbr64 
    3194:	68 16 00 00 00       	pushq  $0x16
    3199:	f2 e9 81 fe ff ff    	bnd jmpq 3020 <GCC_3.0@@GCC_3.0+0x3020>
    319f:	90                   	nop
    31a0:	f3 0f 1e fa          	endbr64 
    31a4:	68 17 00 00 00       	pushq  $0x17
    31a9:	f2 e9 71 fe ff ff    	bnd jmpq 3020 <GCC_3.0@@GCC_3.0+0x3020>
    31af:	90                   	nop
    31b0:	f3 0f 1e fa          	endbr64 
    31b4:	68 18 00 00 00       	pushq  $0x18
    31b9:	f2 e9 61 fe ff ff    	bnd jmpq 3020 <GCC_3.0@@GCC_3.0+0x3020>
    31bf:	90                   	nop
    31c0:	f3 0f 1e fa          	endbr64 
    31c4:	68 19 00 00 00       	pushq  $0x19
    31c9:	f2 e9 51 fe ff ff    	bnd jmpq 3020 <GCC_3.0@@GCC_3.0+0x3020>
    31cf:	90                   	nop
    31d0:	f3 0f 1e fa          	endbr64 
    31d4:	68 1a 00 00 00       	pushq  $0x1a
    31d9:	f2 e9 41 fe ff ff    	bnd jmpq 3020 <GCC_3.0@@GCC_3.0+0x3020>
    31df:	90                   	nop
    31e0:	f3 0f 1e fa          	endbr64 
    31e4:	68 1b 00 00 00       	pushq  $0x1b
    31e9:	f2 e9 31 fe ff ff    	bnd jmpq 3020 <GCC_3.0@@GCC_3.0+0x3020>
    31ef:	90                   	nop
    31f0:	f3 0f 1e fa          	endbr64 
    31f4:	68 1c 00 00 00       	pushq  $0x1c
    31f9:	f2 e9 21 fe ff ff    	bnd jmpq 3020 <GCC_3.0@@GCC_3.0+0x3020>
    31ff:	90                   	nop
    3200:	f3 0f 1e fa          	endbr64 
    3204:	68 1d 00 00 00       	pushq  $0x1d
    3209:	f2 e9 11 fe ff ff    	bnd jmpq 3020 <GCC_3.0@@GCC_3.0+0x3020>
    320f:	90                   	nop
    3210:	f3 0f 1e fa          	endbr64 
    3214:	68 1e 00 00 00       	pushq  $0x1e
    3219:	f2 e9 01 fe ff ff    	bnd jmpq 3020 <GCC_3.0@@GCC_3.0+0x3020>
    321f:	90                   	nop
    3220:	f3 0f 1e fa          	endbr64 
    3224:	68 1f 00 00 00       	pushq  $0x1f
    3229:	f2 e9 f1 fd ff ff    	bnd jmpq 3020 <GCC_3.0@@GCC_3.0+0x3020>
    322f:	90                   	nop
    3230:	f3 0f 1e fa          	endbr64 
    3234:	68 20 00 00 00       	pushq  $0x20
    3239:	f2 e9 e1 fd ff ff    	bnd jmpq 3020 <GCC_3.0@@GCC_3.0+0x3020>
    323f:	90                   	nop
    3240:	f3 0f 1e fa          	endbr64 
    3244:	68 21 00 00 00       	pushq  $0x21
    3249:	f2 e9 d1 fd ff ff    	bnd jmpq 3020 <GCC_3.0@@GCC_3.0+0x3020>
    324f:	90                   	nop
    3250:	f3 0f 1e fa          	endbr64 
    3254:	68 22 00 00 00       	pushq  $0x22
    3259:	f2 e9 c1 fd ff ff    	bnd jmpq 3020 <GCC_3.0@@GCC_3.0+0x3020>
    325f:	90                   	nop
    3260:	f3 0f 1e fa          	endbr64 
    3264:	68 23 00 00 00       	pushq  $0x23
    3269:	f2 e9 b1 fd ff ff    	bnd jmpq 3020 <GCC_3.0@@GCC_3.0+0x3020>
    326f:	90                   	nop
    3270:	f3 0f 1e fa          	endbr64 
    3274:	68 24 00 00 00       	pushq  $0x24
    3279:	f2 e9 a1 fd ff ff    	bnd jmpq 3020 <GCC_3.0@@GCC_3.0+0x3020>
    327f:	90                   	nop
    3280:	f3 0f 1e fa          	endbr64 
    3284:	68 25 00 00 00       	pushq  $0x25
    3289:	f2 e9 91 fd ff ff    	bnd jmpq 3020 <GCC_3.0@@GCC_3.0+0x3020>
    328f:	90                   	nop
    3290:	f3 0f 1e fa          	endbr64 
    3294:	68 26 00 00 00       	pushq  $0x26
    3299:	f2 e9 81 fd ff ff    	bnd jmpq 3020 <GCC_3.0@@GCC_3.0+0x3020>
    329f:	90                   	nop
    32a0:	f3 0f 1e fa          	endbr64 
    32a4:	68 27 00 00 00       	pushq  $0x27
    32a9:	f2 e9 71 fd ff ff    	bnd jmpq 3020 <GCC_3.0@@GCC_3.0+0x3020>
    32af:	90                   	nop
    32b0:	f3 0f 1e fa          	endbr64 
    32b4:	68 28 00 00 00       	pushq  $0x28
    32b9:	f2 e9 61 fd ff ff    	bnd jmpq 3020 <GCC_3.0@@GCC_3.0+0x3020>
    32bf:	90                   	nop
    32c0:	f3 0f 1e fa          	endbr64 
    32c4:	68 29 00 00 00       	pushq  $0x29
    32c9:	f2 e9 51 fd ff ff    	bnd jmpq 3020 <GCC_3.0@@GCC_3.0+0x3020>
    32cf:	90                   	nop
    32d0:	f3 0f 1e fa          	endbr64 
    32d4:	68 2a 00 00 00       	pushq  $0x2a
    32d9:	f2 e9 41 fd ff ff    	bnd jmpq 3020 <GCC_3.0@@GCC_3.0+0x3020>
    32df:	90                   	nop
    32e0:	f3 0f 1e fa          	endbr64 
    32e4:	68 2b 00 00 00       	pushq  $0x2b
    32e9:	f2 e9 31 fd ff ff    	bnd jmpq 3020 <GCC_3.0@@GCC_3.0+0x3020>
    32ef:	90                   	nop
    32f0:	f3 0f 1e fa          	endbr64 
    32f4:	68 2c 00 00 00       	pushq  $0x2c
    32f9:	f2 e9 21 fd ff ff    	bnd jmpq 3020 <GCC_3.0@@GCC_3.0+0x3020>
    32ff:	90                   	nop

Disassembly of section .plt.got:

0000000000003300 <__cxa_finalize@plt>:
    3300:	f3 0f 1e fa          	endbr64 
    3304:	f2 ff 25 ed 6c 01 00 	bnd jmpq *0x16ced(%rip)        # 19ff8 <__cxa_finalize@GLIBC_2.2.5>
    330b:	0f 1f 44 00 00       	nopl   0x0(%rax,%rax,1)

Disassembly of section .plt.sec:

0000000000003310 <_Unwind_GetRegionStart@plt>:
    3310:	f3 0f 1e fa          	endbr64 
    3314:	f2 ff 25 fd 6c 01 00 	bnd jmpq *0x16cfd(%rip)        # 1a018 <_Unwind_GetRegionStart@@GCC_3.0+0xb2f8>
    331b:	0f 1f 44 00 00       	nopl   0x0(%rax,%rax,1)

0000000000003320 <dl_iterate_phdr@plt>:
    3320:	f3 0f 1e fa          	endbr64 
    3324:	f2 ff 25 f5 6c 01 00 	bnd jmpq *0x16cf5(%rip)        # 1a020 <dl_iterate_phdr@GLIBC_2.2.5>
    332b:	0f 1f 44 00 00       	nopl   0x0(%rax,%rax,1)

0000000000003330 <free@plt>:
    3330:	f3 0f 1e fa          	endbr64 
    3334:	f2 ff 25 ed 6c 01 00 	bnd jmpq *0x16ced(%rip)        # 1a028 <free@GLIBC_2.2.5>
    333b:	0f 1f 44 00 00       	nopl   0x0(%rax,%rax,1)

0000000000003340 <_Unwind_RaiseException@plt>:
    3340:	f3 0f 1e fa          	endbr64 
    3344:	f2 ff 25 e5 6c 01 00 	bnd jmpq *0x16ce5(%rip)        # 1a030 <_Unwind_RaiseException@@GCC_3.0+0x90e0>
    334b:	0f 1f 44 00 00       	nopl   0x0(%rax,%rax,1)

0000000000003350 <abort@plt>:
    3350:	f3 0f 1e fa          	endbr64 
    3354:	f2 ff 25 dd 6c 01 00 	bnd jmpq *0x16cdd(%rip)        # 1a038 <abort@GLIBC_2.2.5>
    335b:	0f 1f 44 00 00       	nopl   0x0(%rax,%rax,1)

0000000000003360 <_Unwind_SetIP@plt>:
    3360:	f3 0f 1e fa          	endbr64 
    3364:	f2 ff 25 d5 6c 01 00 	bnd jmpq *0x16cd5(%rip)        # 1a040 <_Unwind_SetIP@@GCC_3.0+0xb340>
    336b:	0f 1f 44 00 00       	nopl   0x0(%rax,%rax,1)

0000000000003370 <_Unwind_GetLanguageSpecificData@plt>:
    3370:	f3 0f 1e fa          	endbr64 
    3374:	f2 ff 25 cd 6c 01 00 	bnd jmpq *0x16ccd(%rip)        # 1a048 <_Unwind_GetLanguageSpecificData@@GCC_3.0+0xb338>
    337b:	0f 1f 44 00 00       	nopl   0x0(%rax,%rax,1)

0000000000003380 <__fixunsxfti@plt>:
    3380:	f3 0f 1e fa          	endbr64 
    3384:	f2 ff 25 c5 6c 01 00 	bnd jmpq *0x16cc5(%rip)        # 1a050 <__fixunsxfti@@GCC_3.0+0x143e0>
    338b:	0f 1f 44 00 00       	nopl   0x0(%rax,%rax,1)

0000000000003390 <__multf3@plt>:
    3390:	f3 0f 1e fa          	endbr64 
    3394:	f2 ff 25 bd 6c 01 00 	bnd jmpq *0x16cbd(%rip)        # 1a058 <__multf3@@GCC_4.3.0+0x114f8>
    339b:	0f 1f 44 00 00       	nopl   0x0(%rax,%rax,1)

00000000000033a0 <__eqtf2@plt>:
    33a0:	f3 0f 1e fa          	endbr64 
    33a4:	f2 ff 25 b5 6c 01 00 	bnd jmpq *0x16cb5(%rip)        # 1a060 <__eqtf2@@GCC_4.3.0+0xc850>
    33ab:	0f 1f 44 00 00       	nopl   0x0(%rax,%rax,1)

00000000000033b0 <__lttf2@plt>:
    33b0:	f3 0f 1e fa          	endbr64 
    33b4:	f2 ff 25 ad 6c 01 00 	bnd jmpq *0x16cad(%rip)        # 1a068 <__lttf2@@GCC_4.3.0+0xcae8>
    33bb:	0f 1f 44 00 00       	nopl   0x0(%rax,%rax,1)

00000000000033c0 <strlen@plt>:
    33c0:	f3 0f 1e fa          	endbr64 
    33c4:	f2 ff 25 a5 6c 01 00 	bnd jmpq *0x16ca5(%rip)        # 1a070 <strlen@GLIBC_2.2.5>
    33cb:	0f 1f 44 00 00       	nopl   0x0(%rax,%rax,1)

00000000000033d0 <_Unwind_GetTextRelBase@plt>:
    33d0:	f3 0f 1e fa          	endbr64 
    33d4:	f2 ff 25 9d 6c 01 00 	bnd jmpq *0x16c9d(%rip)        # 1a078 <_Unwind_GetTextRelBase@@GCC_3.0+0xb308>
    33db:	0f 1f 44 00 00       	nopl   0x0(%rax,%rax,1)

00000000000033e0 <__deregister_frame_info_bases@plt>:
    33e0:	f3 0f 1e fa          	endbr64 
    33e4:	f2 ff 25 95 6c 01 00 	bnd jmpq *0x16c95(%rip)        # 1a080 <__deregister_frame_info_bases@@GCC_3.0+0x6b90>
    33eb:	0f 1f 44 00 00       	nopl   0x0(%rax,%rax,1)

00000000000033f0 <pthread_getspecific@plt>:
    33f0:	f3 0f 1e fa          	endbr64 
    33f4:	f2 ff 25 8d 6c 01 00 	bnd jmpq *0x16c8d(%rip)        # 1a088 <pthread_getspecific>
    33fb:	0f 1f 44 00 00       	nopl   0x0(%rax,%rax,1)

0000000000003400 <memset@plt>:
    3400:	f3 0f 1e fa          	endbr64 
    3404:	f2 ff 25 85 6c 01 00 	bnd jmpq *0x16c85(%rip)        # 1a090 <memset@GLIBC_2.2.5>
    340b:	0f 1f 44 00 00       	nopl   0x0(%rax,%rax,1)

0000000000003410 <_Unwind_GetCFA@plt>:
    3410:	f3 0f 1e fa          	endbr64 
    3414:	f2 ff 25 7d 6c 01 00 	bnd jmpq *0x16c7d(%rip)        # 1a098 <_Unwind_GetCFA@@GCC_3.3+0xb438>
    341b:	0f 1f 44 00 00       	nopl   0x0(%rax,%rax,1)

0000000000003420 <__fixunssfti@plt>:
    3420:	f3 0f 1e fa          	endbr64 
    3424:	f2 ff 25 75 6c 01 00 	bnd jmpq *0x16c75(%rip)        # 1a0a0 <__fixunssfti@@GCC_3.0+0x14570>
    342b:	0f 1f 44 00 00       	nopl   0x0(%rax,%rax,1)

0000000000003430 <__letf2@plt>:
    3430:	f3 0f 1e fa          	endbr64 
    3434:	f2 ff 25 6d 6c 01 00 	bnd jmpq *0x16c6d(%rip)        # 1a0a8 <__letf2@@GCC_4.3.0+0xcb28>
    343b:	0f 1f 44 00 00       	nopl   0x0(%rax,%rax,1)

0000000000003440 <__register_frame_info_table_bases@plt>:
    3440:	f3 0f 1e fa          	endbr64 
    3444:	f2 ff 25 65 6c 01 00 	bnd jmpq *0x16c65(%rip)        # 1a0b0 <__register_frame_info_table_bases@@GCC_3.0+0x6c80>
    344b:	0f 1f 44 00 00       	nopl   0x0(%rax,%rax,1)

0000000000003450 <_Unwind_GetIPInfo@plt>:
    3450:	f3 0f 1e fa          	endbr64 
    3454:	f2 ff 25 5d 6c 01 00 	bnd jmpq *0x16c5d(%rip)        # 1a0b8 <_Unwind_GetIPInfo@@GCC_4.2.0+0xb3d8>
    345b:	0f 1f 44 00 00       	nopl   0x0(%rax,%rax,1)

0000000000003460 <calloc@plt>:
    3460:	f3 0f 1e fa          	endbr64 
    3464:	f2 ff 25 55 6c 01 00 	bnd jmpq *0x16c55(%rip)        # 1a0c0 <calloc@GLIBC_2.2.5>
    346b:	0f 1f 44 00 00       	nopl   0x0(%rax,%rax,1)

0000000000003470 <__gttf2@plt>:
    3470:	f3 0f 1e fa          	endbr64 
    3474:	f2 ff 25 4d 6c 01 00 	bnd jmpq *0x16c4d(%rip)        # 1a0c8 <__gttf2@@GCC_4.3.0+0xcdb8>
    347b:	0f 1f 44 00 00       	nopl   0x0(%rax,%rax,1)

0000000000003480 <__addtf3@plt>:
    3480:	f3 0f 1e fa          	endbr64 
    3484:	f2 ff 25 45 6c 01 00 	bnd jmpq *0x16c45(%rip)        # 1a0d0 <__addtf3@@GCC_4.3.0+0x13450>
    348b:	0f 1f 44 00 00       	nopl   0x0(%rax,%rax,1)

0000000000003490 <pthread_key_create@plt>:
    3490:	f3 0f 1e fa          	endbr64 
    3494:	f2 ff 25 3d 6c 01 00 	bnd jmpq *0x16c3d(%rip)        # 1a0d8 <pthread_key_create>
    349b:	0f 1f 44 00 00       	nopl   0x0(%rax,%rax,1)

00000000000034a0 <memcpy@plt>:
    34a0:	f3 0f 1e fa          	endbr64 
    34a4:	f2 ff 25 35 6c 01 00 	bnd jmpq *0x16c35(%rip)        # 1a0e0 <memcpy@GLIBC_2.14>
    34ab:	0f 1f 44 00 00       	nopl   0x0(%rax,%rax,1)

00000000000034b0 <__divtf3@plt>:
    34b0:	f3 0f 1e fa          	endbr64 
    34b4:	f2 ff 25 2d 6c 01 00 	bnd jmpq *0x16c2d(%rip)        # 1a0e8 <__divtf3@@GCC_4.3.0+0x121d8>
    34bb:	0f 1f 44 00 00       	nopl   0x0(%rax,%rax,1)

00000000000034c0 <__floatuntixf@plt>:
    34c0:	f3 0f 1e fa          	endbr64 
    34c4:	f2 ff 25 25 6c 01 00 	bnd jmpq *0x16c25(%rip)        # 1a0f0 <__floatuntixf@@GCC_4.2.0+0x13e50>
    34cb:	0f 1f 44 00 00       	nopl   0x0(%rax,%rax,1)

00000000000034d0 <pthread_once@plt>:
    34d0:	f3 0f 1e fa          	endbr64 
    34d4:	f2 ff 25 1d 6c 01 00 	bnd jmpq *0x16c1d(%rip)        # 1a0f8 <pthread_once>
    34db:	0f 1f 44 00 00       	nopl   0x0(%rax,%rax,1)

00000000000034e0 <pthread_mutex_unlock@plt>:
    34e0:	f3 0f 1e fa          	endbr64 
    34e4:	f2 ff 25 15 6c 01 00 	bnd jmpq *0x16c15(%rip)        # 1a100 <pthread_mutex_unlock@GLIBC_2.2.5>
    34eb:	0f 1f 44 00 00       	nopl   0x0(%rax,%rax,1)

00000000000034f0 <malloc@plt>:
    34f0:	f3 0f 1e fa          	endbr64 
    34f4:	f2 ff 25 0d 6c 01 00 	bnd jmpq *0x16c0d(%rip)        # 1a108 <malloc@GLIBC_2.2.5>
    34fb:	0f 1f 44 00 00       	nopl   0x0(%rax,%rax,1)

0000000000003500 <pthread_setspecific@plt>:
    3500:	f3 0f 1e fa          	endbr64 
    3504:	f2 ff 25 05 6c 01 00 	bnd jmpq *0x16c05(%rip)        # 1a110 <pthread_setspecific>
    350b:	0f 1f 44 00 00       	nopl   0x0(%rax,%rax,1)

0000000000003510 <_Unwind_Find_FDE@plt>:
    3510:	f3 0f 1e fa          	endbr64 
    3514:	f2 ff 25 fd 6b 01 00 	bnd jmpq *0x16bfd(%rip)        # 1a118 <_Unwind_Find_FDE@@GCC_3.0+0x6ab8>
    351b:	0f 1f 44 00 00       	nopl   0x0(%rax,%rax,1)

0000000000003520 <__register_frame_info_table@plt>:
    3520:	f3 0f 1e fa          	endbr64 
    3524:	f2 ff 25 f5 6b 01 00 	bnd jmpq *0x16bf5(%rip)        # 1a120 <__register_frame_info_table@@GCC_3.0+0x6c60>
    352b:	0f 1f 44 00 00       	nopl   0x0(%rax,%rax,1)

0000000000003530 <__deregister_frame_info@plt>:
    3530:	f3 0f 1e fa          	endbr64 
    3534:	f2 ff 25 ed 6b 01 00 	bnd jmpq *0x16bed(%rip)        # 1a128 <__deregister_frame_info@@GCC_3.0+0x6b08>
    353b:	0f 1f 44 00 00       	nopl   0x0(%rax,%rax,1)

0000000000003540 <__register_frame_info@plt>:
    3540:	f3 0f 1e fa          	endbr64 
    3544:	f2 ff 25 e5 6b 01 00 	bnd jmpq *0x16be5(%rip)        # 1a130 <__register_frame_info@@GCC_3.0+0x6d40>
    354b:	0f 1f 44 00 00       	nopl   0x0(%rax,%rax,1)

0000000000003550 <realloc@plt>:
    3550:	f3 0f 1e fa          	endbr64 
    3554:	f2 ff 25 dd 6b 01 00 	bnd jmpq *0x16bdd(%rip)        # 1a138 <realloc@GLIBC_2.2.5>
    355b:	0f 1f 44 00 00       	nopl   0x0(%rax,%rax,1)

0000000000003560 <__register_frame_info_bases@plt>:
    3560:	f3 0f 1e fa          	endbr64 
    3564:	f2 ff 25 d5 6b 01 00 	bnd jmpq *0x16bd5(%rip)        # 1a140 <__register_frame_info_bases@@GCC_3.0+0x6e00>
    356b:	0f 1f 44 00 00       	nopl   0x0(%rax,%rax,1)

0000000000003570 <__fixunsdfti@plt>:
    3570:	f3 0f 1e fa          	endbr64 
    3574:	f2 ff 25 cd 6b 01 00 	bnd jmpq *0x16bcd(%rip)        # 1a148 <__fixunsdfti@@GCC_3.0+0x14578>
    357b:	0f 1f 44 00 00       	nopl   0x0(%rax,%rax,1)

0000000000003580 <__unordtf2@plt>:
    3580:	f3 0f 1e fa          	endbr64 
    3584:	f2 ff 25 c5 6b 01 00 	bnd jmpq *0x16bc5(%rip)        # 1a150 <__unordtf2@@GCC_4.3.0+0xf830>
    358b:	0f 1f 44 00 00       	nopl   0x0(%rax,%rax,1)

0000000000003590 <_Unwind_SetGR@plt>:
    3590:	f3 0f 1e fa          	endbr64 
    3594:	f2 ff 25 bd 6b 01 00 	bnd jmpq *0x16bbd(%rip)        # 1a158 <_Unwind_SetGR@@GCC_3.0+0xb4e8>
    359b:	0f 1f 44 00 00       	nopl   0x0(%rax,%rax,1)

00000000000035a0 <__floatsitf@plt>:
    35a0:	f3 0f 1e fa          	endbr64 
    35a4:	f2 ff 25 b5 6b 01 00 	bnd jmpq *0x16bb5(%rip)        # 1a160 <__floatsitf@@GCC_4.3.0+0xf420>
    35ab:	0f 1f 44 00 00       	nopl   0x0(%rax,%rax,1)

00000000000035b0 <pthread_mutex_lock@plt>:
    35b0:	f3 0f 1e fa          	endbr64 
    35b4:	f2 ff 25 ad 6b 01 00 	bnd jmpq *0x16bad(%rip)        # 1a168 <pthread_mutex_lock@GLIBC_2.2.5>
    35bb:	0f 1f 44 00 00       	nopl   0x0(%rax,%rax,1)

00000000000035c0 <__subtf3@plt>:
    35c0:	f3 0f 1e fa          	endbr64 
    35c4:	f2 ff 25 a5 6b 01 00 	bnd jmpq *0x16ba5(%rip)        # 1a170 <__subtf3@@GCC_4.3.0+0x10b20>
    35cb:	0f 1f 44 00 00       	nopl   0x0(%rax,%rax,1)

00000000000035d0 <_Unwind_GetDataRelBase@plt>:
    35d0:	f3 0f 1e fa          	endbr64 
    35d4:	f2 ff 25 9d 6b 01 00 	bnd jmpq *0x16b9d(%rip)        # 1a178 <_Unwind_GetDataRelBase@@GCC_3.0+0xb418>
    35db:	0f 1f 44 00 00       	nopl   0x0(%rax,%rax,1)

Disassembly of section .text:

00000000000035e0 <__cpu_indicator_init@GCC_4.8.0-0x340>:
    35e0:	e8 6b fd ff ff       	callq  3350 <abort@plt>
    35e5:	e8 66 fd ff ff       	callq  3350 <abort@plt>
    35ea:	e8 61 fd ff ff       	callq  3350 <abort@plt>
    35ef:	e8 5c fd ff ff       	callq  3350 <abort@plt>
    35f4:	e8 57 fd ff ff       	callq  3350 <abort@plt>
    35f9:	e8 52 fd ff ff       	callq  3350 <abort@plt>
    35fe:	e8 4d fd ff ff       	callq  3350 <abort@plt>
    3603:	e8 48 fd ff ff       	callq  3350 <abort@plt>
    3608:	e8 43 fd ff ff       	callq  3350 <abort@plt>
    360d:	e8 3e fd ff ff       	callq  3350 <abort@plt>
    3612:	e8 39 fd ff ff       	callq  3350 <abort@plt>
    3617:	e8 34 fd ff ff       	callq  3350 <abort@plt>
    361c:	e8 2f fd ff ff       	callq  3350 <abort@plt>
    3621:	e8 2a fd ff ff       	callq  3350 <abort@plt>
    3626:	e8 25 fd ff ff       	callq  3350 <abort@plt>
    362b:	e8 20 fd ff ff       	callq  3350 <abort@plt>
    3630:	e8 1b fd ff ff       	callq  3350 <abort@plt>
    3635:	e8 16 fd ff ff       	callq  3350 <abort@plt>
    363a:	e8 11 fd ff ff       	callq  3350 <abort@plt>
    363f:	e8 0c fd ff ff       	callq  3350 <abort@plt>
    3644:	e8 07 fd ff ff       	callq  3350 <abort@plt>
    3649:	e8 02 fd ff ff       	callq  3350 <abort@plt>
    364e:	e8 fd fc ff ff       	callq  3350 <abort@plt>
    3653:	e8 f8 fc ff ff       	callq  3350 <abort@plt>
    3658:	e8 f3 fc ff ff       	callq  3350 <abort@plt>
    365d:	e8 ee fc ff ff       	callq  3350 <abort@plt>
    3662:	e8 e9 fc ff ff       	callq  3350 <abort@plt>
    3667:	e8 e4 fc ff ff       	callq  3350 <abort@plt>
    366c:	e8 df fc ff ff       	callq  3350 <abort@plt>
    3671:	e8 da fc ff ff       	callq  3350 <abort@plt>
    3676:	e8 d5 fc ff ff       	callq  3350 <abort@plt>
    367b:	e8 d0 fc ff ff       	callq  3350 <abort@plt>
    3680:	e8 cb fc ff ff       	callq  3350 <abort@plt>
    3685:	e8 c6 fc ff ff       	callq  3350 <abort@plt>
    368a:	e8 c1 fc ff ff       	callq  3350 <abort@plt>
    368f:	e8 bc fc ff ff       	callq  3350 <abort@plt>
    3694:	e8 b7 fc ff ff       	callq  3350 <abort@plt>
    3699:	e8 b2 fc ff ff       	callq  3350 <abort@plt>
    369e:	e8 ad fc ff ff       	callq  3350 <abort@plt>
    36a3:	e8 a8 fc ff ff       	callq  3350 <abort@plt>
    36a8:	e8 a3 fc ff ff       	callq  3350 <abort@plt>
    36ad:	e8 9e fc ff ff       	callq  3350 <abort@plt>
    36b2:	e8 99 fc ff ff       	callq  3350 <abort@plt>
    36b7:	e8 94 fc ff ff       	callq  3350 <abort@plt>
    36bc:	e8 8f fc ff ff       	callq  3350 <abort@plt>
    36c1:	e8 8a fc ff ff       	callq  3350 <abort@plt>
    36c6:	e8 85 fc ff ff       	callq  3350 <abort@plt>
    36cb:	e8 80 fc ff ff       	callq  3350 <abort@plt>
    36d0:	53                   	push   %rbx
    36d1:	41 89 f0             	mov    %esi,%r8d
    36d4:	41 89 d1             	mov    %edx,%r9d
    36d7:	f7 c7 00 00 00 08    	test   $0x8000000,%edi
    36dd:	74 13                	je     36f2 <_Unwind_GetDataRelBase@plt+0x122>
    36df:	31 c9                	xor    %ecx,%ecx
    36e1:	0f 01 d0             	xgetbv 
    36e4:	89 c2                	mov    %eax,%edx
    36e6:	83 e2 06             	and    $0x6,%edx
    36e9:	83 fa 06             	cmp    $0x6,%edx
    36ec:	0f 84 fd 01 00 00    	je     38ef <_Unwind_GetDataRelBase@plt+0x31f>
    36f2:	45 31 db             	xor    %r11d,%r11d
    36f5:	45 31 d2             	xor    %r10d,%r10d
    36f8:	44 89 c6             	mov    %r8d,%esi
    36fb:	c1 ee 0f             	shr    $0xf,%esi
    36fe:	83 e6 01             	and    $0x1,%esi
    3701:	89 f0                	mov    %esi,%eax
    3703:	83 c8 02             	or     $0x2,%eax
    3706:	41 f7 c0 00 00 80 00 	test   $0x800000,%r8d
    370d:	0f 45 f0             	cmovne %eax,%esi
    3710:	89 f0                	mov    %esi,%eax
    3712:	83 c8 08             	or     $0x8,%eax
    3715:	41 f7 c0 00 00 00 02 	test   $0x2000000,%r8d
    371c:	0f 45 f0             	cmovne %eax,%esi
    371f:	89 f0                	mov    %esi,%eax
    3721:	83 c8 10             	or     $0x10,%eax
    3724:	41 81 e0 00 00 00 04 	and    $0x4000000,%r8d
    372b:	0f 45 f0             	cmovne %eax,%esi
    372e:	89 f0                	mov    %esi,%eax
    3730:	83 c8 04             	or     $0x4,%eax
    3733:	f7 c7 00 00 80 00    	test   $0x800000,%edi
    3739:	0f 45 f0             	cmovne %eax,%esi
    373c:	89 f0                	mov    %esi,%eax
    373e:	0d 00 00 04 00       	or     $0x40000,%eax
    3743:	f7 c7 00 00 00 02    	test   $0x2000000,%edi
    3749:	0f 45 f0             	cmovne %eax,%esi
    374c:	89 f0                	mov    %esi,%eax
    374e:	0d 00 00 08 00       	or     $0x80000,%eax
    3753:	40 f6 c7 02          	test   $0x2,%dil
    3757:	0f 45 f0             	cmovne %eax,%esi
    375a:	89 f0                	mov    %esi,%eax
    375c:	83 c8 20             	or     $0x20,%eax
    375f:	40 f6 c7 01          	test   $0x1,%dil
    3763:	0f 45 f0             	cmovne %eax,%esi
    3766:	89 f0                	mov    %esi,%eax
    3768:	83 c8 40             	or     $0x40,%eax
    376b:	f7 c7 00 02 00 00    	test   $0x200,%edi
    3771:	0f 45 f0             	cmovne %eax,%esi
    3774:	89 f0                	mov    %esi,%eax
    3776:	0c 80                	or     $0x80,%al
    3778:	f7 c7 00 00 08 00    	test   $0x80000,%edi
    377e:	0f 45 f0             	cmovne %eax,%esi
    3781:	89 f0                	mov    %esi,%eax
    3783:	80 cc 01             	or     $0x1,%ah
    3786:	f7 c7 00 00 10 00    	test   $0x100000,%edi
    378c:	0f 45 f0             	cmovne %eax,%esi
    378f:	45 85 d2             	test   %r10d,%r10d
    3792:	74 1a                	je     37ae <_Unwind_GetDataRelBase@plt+0x1de>
    3794:	f7 c7 00 00 00 10    	test   $0x10000000,%edi
    379a:	74 06                	je     37a2 <_Unwind_GetDataRelBase@plt+0x1d2>
    379c:	81 ce 00 02 00 00    	or     $0x200,%esi
    37a2:	81 e7 00 10 00 00    	and    $0x1000,%edi
    37a8:	0f 85 84 00 00 00    	jne    3832 <_Unwind_GetDataRelBase@plt+0x262>
    37ae:	41 83 f9 06          	cmp    $0x6,%r9d
    37b2:	7e 34                	jle    37e8 <_Unwind_GetDataRelBase@plt+0x218>
    37b4:	b8 07 00 00 00       	mov    $0x7,%eax
    37b9:	31 c9                	xor    %ecx,%ecx
    37bb:	0f a2                	cpuid  
    37bd:	f6 c3 08             	test   $0x8,%bl
    37c0:	74 06                	je     37c8 <_Unwind_GetDataRelBase@plt+0x1f8>
    37c2:	81 ce 00 00 01 00    	or     $0x10000,%esi
    37c8:	45 85 d2             	test   %r10d,%r10d
    37cb:	74 0b                	je     37d8 <_Unwind_GetDataRelBase@plt+0x208>
    37cd:	f6 c3 20             	test   $0x20,%bl
    37d0:	74 06                	je     37d8 <_Unwind_GetDataRelBase@plt+0x208>
    37d2:	81 ce 00 04 00 00    	or     $0x400,%esi
    37d8:	f6 c7 01             	test   $0x1,%bh
    37db:	74 06                	je     37e3 <_Unwind_GetDataRelBase@plt+0x213>
    37dd:	81 ce 00 00 02 00    	or     $0x20000,%esi
    37e3:	45 85 db             	test   %r11d,%r11d
    37e6:	75 55                	jne    383d <_Unwind_GetDataRelBase@plt+0x26d>
    37e8:	b8 00 00 00 80       	mov    $0x80000000,%eax
    37ed:	0f a2                	cpuid  
    37ef:	3d 00 00 00 80       	cmp    $0x80000000,%eax
    37f4:	76 30                	jbe    3826 <_Unwind_GetDataRelBase@plt+0x256>
    37f6:	b8 01 00 00 80       	mov    $0x80000001,%eax
    37fb:	0f a2                	cpuid  
    37fd:	f6 c1 40             	test   $0x40,%cl
    3800:	74 06                	je     3808 <_Unwind_GetDataRelBase@plt+0x238>
    3802:	81 ce 00 08 00 00    	or     $0x800,%esi
    3808:	45 85 d2             	test   %r10d,%r10d
    380b:	74 19                	je     3826 <_Unwind_GetDataRelBase@plt+0x256>
    380d:	f7 c1 00 00 01 00    	test   $0x10000,%ecx
    3813:	74 06                	je     381b <_Unwind_GetDataRelBase@plt+0x24b>
    3815:	81 ce 00 10 00 00    	or     $0x1000,%esi
    381b:	80 e5 08             	and    $0x8,%ch
    381e:	74 06                	je     3826 <_Unwind_GetDataRelBase@plt+0x256>
    3820:	81 ce 00 20 00 00    	or     $0x2000,%esi
    3826:	48 8b 05 b3 67 01 00 	mov    0x167b3(%rip),%rax        # 19fe0 <__emutls_register_common@@GCC_4.3.0+0x5fd0>
    382d:	89 70 0c             	mov    %esi,0xc(%rax)
    3830:	5b                   	pop    %rbx
    3831:	c3                   	retq   
    3832:	81 ce 00 40 00 00    	or     $0x4000,%esi
    3838:	e9 71 ff ff ff       	jmpq   37ae <_Unwind_GetDataRelBase@plt+0x1de>
    383d:	f7 c3 00 00 01 00    	test   $0x10000,%ebx
    3843:	74 06                	je     384b <_Unwind_GetDataRelBase@plt+0x27b>
    3845:	81 ce 00 80 00 00    	or     $0x8000,%esi
    384b:	85 db                	test   %ebx,%ebx
    384d:	0f 88 b8 00 00 00    	js     390b <_Unwind_GetDataRelBase@plt+0x33b>
    3853:	f7 c3 00 00 00 40    	test   $0x40000000,%ebx
    3859:	74 06                	je     3861 <_Unwind_GetDataRelBase@plt+0x291>
    385b:	81 ce 00 00 20 00    	or     $0x200000,%esi
    3861:	f7 c3 00 00 02 00    	test   $0x20000,%ebx
    3867:	74 06                	je     386f <_Unwind_GetDataRelBase@plt+0x29f>
    3869:	81 ce 00 00 40 00    	or     $0x400000,%esi
    386f:	f7 c3 00 00 00 10    	test   $0x10000000,%ebx
    3875:	74 06                	je     387d <_Unwind_GetDataRelBase@plt+0x2ad>
    3877:	81 ce 00 00 80 00    	or     $0x800000,%esi
    387d:	f7 c3 00 00 00 04    	test   $0x4000000,%ebx
    3883:	74 06                	je     388b <_Unwind_GetDataRelBase@plt+0x2bb>
    3885:	81 ce 00 00 00 02    	or     $0x2000000,%esi
    388b:	f7 c3 00 00 00 08    	test   $0x8000000,%ebx
    3891:	74 06                	je     3899 <_Unwind_GetDataRelBase@plt+0x2c9>
    3893:	81 ce 00 00 00 01    	or     $0x1000000,%esi
    3899:	81 e3 00 00 20 00    	and    $0x200000,%ebx
    389f:	74 06                	je     38a7 <_Unwind_GetDataRelBase@plt+0x2d7>
    38a1:	81 ce 00 00 00 08    	or     $0x8000000,%esi
    38a7:	f6 c1 02             	test   $0x2,%cl
    38aa:	74 06                	je     38b2 <_Unwind_GetDataRelBase@plt+0x2e2>
    38ac:	81 ce 00 00 00 04    	or     $0x4000000,%esi
    38b2:	f6 c1 40             	test   $0x40,%cl
    38b5:	74 06                	je     38bd <_Unwind_GetDataRelBase@plt+0x2ed>
    38b7:	81 ce 00 00 00 80    	or     $0x80000000,%esi
    38bd:	80 e5 40             	and    $0x40,%ch
    38c0:	74 06                	je     38c8 <_Unwind_GetDataRelBase@plt+0x2f8>
    38c2:	81 ce 00 00 00 40    	or     $0x40000000,%esi
    38c8:	f6 c2 04             	test   $0x4,%dl
    38cb:	74 06                	je     38d3 <_Unwind_GetDataRelBase@plt+0x303>
    38cd:	81 ce 00 00 00 10    	or     $0x10000000,%esi
    38d3:	80 e2 08             	and    $0x8,%dl
    38d6:	74 06                	je     38de <_Unwind_GetDataRelBase@plt+0x30e>
    38d8:	81 ce 00 00 00 20    	or     $0x20000000,%esi
    38de:	b8 07 00 00 00       	mov    $0x7,%eax
    38e3:	b9 01 00 00 00       	mov    $0x1,%ecx
    38e8:	0f a2                	cpuid  
    38ea:	e9 f9 fe ff ff       	jmpq   37e8 <_Unwind_GetDataRelBase@plt+0x218>
    38ef:	25 e6 00 00 00       	and    $0xe6,%eax
    38f4:	45 31 db             	xor    %r11d,%r11d
    38f7:	41 ba 01 00 00 00    	mov    $0x1,%r10d
    38fd:	3d e6 00 00 00       	cmp    $0xe6,%eax
    3902:	41 0f 94 c3          	sete   %r11b
    3906:	e9 ed fd ff ff       	jmpq   36f8 <_Unwind_GetDataRelBase@plt+0x128>
    390b:	81 ce 00 00 10 00    	or     $0x100000,%esi
    3911:	e9 3d ff ff ff       	jmpq   3853 <_Unwind_GetDataRelBase@plt+0x283>
    3916:	66 2e 0f 1f 84 00 00 	nopw   %cs:0x0(%rax,%rax,1)
    391d:	00 00 00 

0000000000003920 <__cpu_indicator_init@GCC_4.8.0>:
    3920:	f3 0f 1e fa          	endbr64 
    3924:	55                   	push   %rbp
    3925:	48 8b 2d b4 66 01 00 	mov    0x166b4(%rip),%rbp        # 19fe0 <__emutls_register_common@@GCC_4.3.0+0x5fd0>
    392c:	45 31 c9             	xor    %r9d,%r9d
    392f:	53                   	push   %rbx
    3930:	8b 45 00             	mov    0x0(%rbp),%eax
    3933:	85 c0                	test   %eax,%eax
    3935:	75 6f                	jne    39a6 <__cpu_indicator_init@GCC_4.8.0+0x86>
    3937:	44 89 c8             	mov    %r9d,%eax
    393a:	0f a2                	cpuid  
    393c:	85 c0                	test   %eax,%eax
    393e:	0f 84 c0 00 00 00    	je     3a04 <__cpu_indicator_init@GCC_4.8.0+0xe4>
    3944:	44 89 c8             	mov    %r9d,%eax
    3947:	0f a2                	cpuid  
    3949:	41 89 da             	mov    %ebx,%r10d
    394c:	41 89 c0             	mov    %eax,%r8d
    394f:	85 c0                	test   %eax,%eax
    3951:	0f 8e ad 00 00 00    	jle    3a04 <__cpu_indicator_init@GCC_4.8.0+0xe4>
    3957:	44 89 c8             	mov    %r9d,%eax
    395a:	0f a2                	cpuid  
    395c:	85 c0                	test   %eax,%eax
    395e:	0f 84 a0 00 00 00    	je     3a04 <__cpu_indicator_init@GCC_4.8.0+0xe4>
    3964:	b8 01 00 00 00       	mov    $0x1,%eax
    3969:	0f a2                	cpuid  
    396b:	89 d6                	mov    %edx,%esi
    396d:	89 cf                	mov    %ecx,%edi
    396f:	89 c2                	mov    %eax,%edx
    3971:	89 c1                	mov    %eax,%ecx
    3973:	c1 ea 04             	shr    $0x4,%edx
    3976:	41 89 c3             	mov    %eax,%r11d
    3979:	c1 e9 08             	shr    $0x8,%ecx
    397c:	41 c1 eb 0c          	shr    $0xc,%r11d
    3980:	83 e2 0f             	and    $0xf,%edx
    3983:	83 e1 0f             	and    $0xf,%ecx
    3986:	41 81 e3 f0 00 00 00 	and    $0xf0,%r11d
    398d:	41 81 fa 47 65 6e 75 	cmp    $0x756e6547,%r10d
    3994:	74 16                	je     39ac <__cpu_indicator_init@GCC_4.8.0+0x8c>
    3996:	41 81 fa 41 75 74 68 	cmp    $0x68747541,%r10d
    399d:	74 2a                	je     39c9 <__cpu_indicator_init@GCC_4.8.0+0xa9>
    399f:	c7 45 00 03 00 00 00 	movl   $0x3,0x0(%rbp)
    39a6:	44 89 c8             	mov    %r9d,%eax
    39a9:	5b                   	pop    %rbx
    39aa:	5d                   	pop    %rbp
    39ab:	c3                   	retq   
    39ac:	83 f9 06             	cmp    $0x6,%ecx
    39af:	0f 84 f2 00 00 00    	je     3aa7 <__cpu_indicator_init@GCC_4.8.0+0x187>
    39b5:	44 89 c2             	mov    %r8d,%edx
    39b8:	e8 13 fd ff ff       	callq  36d0 <_Unwind_GetDataRelBase@plt+0x100>
    39bd:	c7 45 00 01 00 00 00 	movl   $0x1,0x0(%rbp)
    39c4:	45 31 c9             	xor    %r9d,%r9d
    39c7:	eb dd                	jmp    39a6 <__cpu_indicator_init@GCC_4.8.0+0x86>
    39c9:	83 f9 0f             	cmp    $0xf,%ecx
    39cc:	74 14                	je     39e2 <__cpu_indicator_init@GCC_4.8.0+0xc2>
    39ce:	44 89 c2             	mov    %r8d,%edx
    39d1:	e8 fa fc ff ff       	callq  36d0 <_Unwind_GetDataRelBase@plt+0x100>
    39d6:	c7 45 00 02 00 00 00 	movl   $0x2,0x0(%rbp)
    39dd:	45 31 c9             	xor    %r9d,%r9d
    39e0:	eb c4                	jmp    39a6 <__cpu_indicator_init@GCC_4.8.0+0x86>
    39e2:	c1 e8 14             	shr    $0x14,%eax
    39e5:	44 09 da             	or     %r11d,%edx
    39e8:	0f b6 c0             	movzbl %al,%eax
    39eb:	83 e8 01             	sub    $0x1,%eax
    39ee:	83 f8 09             	cmp    $0x9,%eax
    39f1:	77 db                	ja     39ce <__cpu_indicator_init@GCC_4.8.0+0xae>
    39f3:	48 8d 0d de 18 01 00 	lea    0x118de(%rip),%rcx        # 152d8 <__emutls_register_common@@GCC_4.3.0+0x12c8>
    39fa:	48 63 04 81          	movslq (%rcx,%rax,4),%rax
    39fe:	48 01 c8             	add    %rcx,%rax
    3a01:	3e ff e0             	notrack jmpq *%rax
    3a04:	c7 45 00 03 00 00 00 	movl   $0x3,0x0(%rbp)
    3a0b:	41 83 c9 ff          	or     $0xffffffff,%r9d
    3a0f:	eb 95                	jmp    39a6 <__cpu_indicator_init@GCC_4.8.0+0x86>
    3a11:	c7 45 04 0f 00 00 00 	movl   $0xf,0x4(%rbp)
    3a18:	83 fa 0f             	cmp    $0xf,%edx
    3a1b:	77 b1                	ja     39ce <__cpu_indicator_init@GCC_4.8.0+0xae>
    3a1d:	c7 45 08 18 00 00 00 	movl   $0x18,0x8(%rbp)
    3a24:	eb a8                	jmp    39ce <__cpu_indicator_init@GCC_4.8.0+0xae>
    3a26:	c7 45 04 0a 00 00 00 	movl   $0xa,0x4(%rbp)
    3a2d:	83 fa 1f             	cmp    $0x1f,%edx
    3a30:	0f 87 b9 01 00 00    	ja     3bef <__cpu_indicator_init@GCC_4.8.0+0x2cf>
    3a36:	c7 45 08 0b 00 00 00 	movl   $0xb,0x8(%rbp)
    3a3d:	eb 8f                	jmp    39ce <__cpu_indicator_init@GCC_4.8.0+0xae>
    3a3f:	c7 45 04 09 00 00 00 	movl   $0x9,0x4(%rbp)
    3a46:	eb 86                	jmp    39ce <__cpu_indicator_init@GCC_4.8.0+0xae>
    3a48:	c7 45 04 05 00 00 00 	movl   $0x5,0x4(%rbp)
    3a4f:	83 fa 02             	cmp    $0x2,%edx
    3a52:	0f 84 8b 01 00 00    	je     3be3 <__cpu_indicator_init@GCC_4.8.0+0x2c3>
    3a58:	83 fa 0f             	cmp    $0xf,%edx
    3a5b:	0f 87 a3 01 00 00    	ja     3c04 <__cpu_indicator_init@GCC_4.8.0+0x2e4>
    3a61:	c7 45 08 07 00 00 00 	movl   $0x7,0x8(%rbp)
    3a68:	e9 61 ff ff ff       	jmpq   39ce <__cpu_indicator_init@GCC_4.8.0+0xae>
    3a6d:	c7 45 04 08 00 00 00 	movl   $0x8,0x4(%rbp)
    3a74:	e9 55 ff ff ff       	jmpq   39ce <__cpu_indicator_init@GCC_4.8.0+0xae>
    3a79:	c7 45 04 04 00 00 00 	movl   $0x4,0x4(%rbp)
    3a80:	83 fa 04             	cmp    $0x4,%edx
    3a83:	0f 84 9d 01 00 00    	je     3c26 <__cpu_indicator_init@GCC_4.8.0+0x306>
    3a89:	83 fa 08             	cmp    $0x8,%edx
    3a8c:	0f 84 88 01 00 00    	je     3c1a <__cpu_indicator_init@GCC_4.8.0+0x2fa>
    3a92:	83 fa 02             	cmp    $0x2,%edx
    3a95:	0f 85 33 ff ff ff    	jne    39ce <__cpu_indicator_init@GCC_4.8.0+0xae>
    3a9b:	c7 45 08 04 00 00 00 	movl   $0x4,0x8(%rbp)
    3aa2:	e9 27 ff ff ff       	jmpq   39ce <__cpu_indicator_init@GCC_4.8.0+0xae>
    3aa7:	44 09 da             	or     %r11d,%edx
    3aaa:	84 db                	test   %bl,%bl
    3aac:	0f 85 03 ff ff ff    	jne    39b5 <__cpu_indicator_init@GCC_4.8.0+0x95>
    3ab2:	83 ea 0f             	sub    $0xf,%edx
    3ab5:	81 fa 8f 00 00 00    	cmp    $0x8f,%edx
    3abb:	0f 87 f4 fe ff ff    	ja     39b5 <__cpu_indicator_init@GCC_4.8.0+0x95>
    3ac1:	48 8d 0d 38 18 01 00 	lea    0x11838(%rip),%rcx        # 15300 <__emutls_register_common@@GCC_4.3.0+0x12f0>
    3ac8:	48 63 04 91          	movslq (%rcx,%rdx,4),%rax
    3acc:	48 01 c8             	add    %rcx,%rax
    3acf:	3e ff e0             	notrack jmpq *%rax
    3ad2:	c7 45 04 06 00 00 00 	movl   $0x6,0x4(%rbp)
    3ad9:	e9 d7 fe ff ff       	jmpq   39b5 <__cpu_indicator_init@GCC_4.8.0+0x95>
    3ade:	48 b8 03 00 00 00 01 	movabs $0x100000003,%rax
    3ae5:	00 00 00 
    3ae8:	48 89 45 04          	mov    %rax,0x4(%rbp)
    3aec:	e9 c4 fe ff ff       	jmpq   39b5 <__cpu_indicator_init@GCC_4.8.0+0x95>
    3af1:	48 b8 03 00 00 00 0f 	movabs $0xf00000003,%rax
    3af8:	00 00 00 
    3afb:	48 89 45 04          	mov    %rax,0x4(%rbp)
    3aff:	e9 b1 fe ff ff       	jmpq   39b5 <__cpu_indicator_init@GCC_4.8.0+0x95>
    3b04:	48 b8 03 00 00 00 0e 	movabs $0xe00000003,%rax
    3b0b:	00 00 00 
    3b0e:	48 89 45 04          	mov    %rax,0x4(%rbp)
    3b12:	e9 9e fe ff ff       	jmpq   39b5 <__cpu_indicator_init@GCC_4.8.0+0x95>
    3b17:	48 b8 03 00 00 00 0d 	movabs $0xd00000003,%rax
    3b1e:	00 00 00 
    3b21:	48 89 45 04          	mov    %rax,0x4(%rbp)
    3b25:	e9 8b fe ff ff       	jmpq   39b5 <__cpu_indicator_init@GCC_4.8.0+0x95>
    3b2a:	48 b8 03 00 00 00 02 	movabs $0x200000003,%rax
    3b31:	00 00 00 
    3b34:	48 89 45 04          	mov    %rax,0x4(%rbp)
    3b38:	e9 78 fe ff ff       	jmpq   39b5 <__cpu_indicator_init@GCC_4.8.0+0x95>
    3b3d:	c7 45 04 02 00 00 00 	movl   $0x2,0x4(%rbp)
    3b44:	e9 6c fe ff ff       	jmpq   39b5 <__cpu_indicator_init@GCC_4.8.0+0x95>
    3b49:	c7 45 04 01 00 00 00 	movl   $0x1,0x4(%rbp)
    3b50:	e9 60 fe ff ff       	jmpq   39b5 <__cpu_indicator_init@GCC_4.8.0+0x95>
    3b55:	48 b8 03 00 00 00 0c 	movabs $0xc00000003,%rax
    3b5c:	00 00 00 
    3b5f:	48 89 45 04          	mov    %rax,0x4(%rbp)
    3b63:	e9 4d fe ff ff       	jmpq   39b5 <__cpu_indicator_init@GCC_4.8.0+0x95>
    3b68:	c7 45 04 0c 00 00 00 	movl   $0xc,0x4(%rbp)
    3b6f:	e9 41 fe ff ff       	jmpq   39b5 <__cpu_indicator_init@GCC_4.8.0+0x95>
    3b74:	48 b8 03 00 00 00 03 	movabs $0x300000003,%rax
    3b7b:	00 00 00 
    3b7e:	48 89 45 04          	mov    %rax,0x4(%rbp)
    3b82:	e9 2e fe ff ff       	jmpq   39b5 <__cpu_indicator_init@GCC_4.8.0+0x95>
    3b87:	c7 45 04 07 00 00 00 	movl   $0x7,0x4(%rbp)
    3b8e:	e9 22 fe ff ff       	jmpq   39b5 <__cpu_indicator_init@GCC_4.8.0+0x95>
    3b93:	c7 45 04 03 00 00 00 	movl   $0x3,0x4(%rbp)
    3b9a:	b8 07 00 00 00       	mov    $0x7,%eax
    3b9f:	31 c9                	xor    %ecx,%ecx
    3ba1:	0f a2                	cpuid  
    3ba3:	80 e5 08             	and    $0x8,%ch
    3ba6:	0f 84 9b 00 00 00    	je     3c47 <__cpu_indicator_init@GCC_4.8.0+0x327>
    3bac:	c7 45 08 15 00 00 00 	movl   $0x15,0x8(%rbp)
    3bb3:	e9 fd fd ff ff       	jmpq   39b5 <__cpu_indicator_init@GCC_4.8.0+0x95>
    3bb8:	48 b8 03 00 00 00 11 	movabs $0x1100000003,%rax
    3bbf:	00 00 00 
    3bc2:	48 89 45 04          	mov    %rax,0x4(%rbp)
    3bc6:	e9 ea fd ff ff       	jmpq   39b5 <__cpu_indicator_init@GCC_4.8.0+0x95>
    3bcb:	c7 45 04 0b 00 00 00 	movl   $0xb,0x4(%rbp)
    3bd2:	e9 de fd ff ff       	jmpq   39b5 <__cpu_indicator_init@GCC_4.8.0+0x95>
    3bd7:	c7 45 04 0d 00 00 00 	movl   $0xd,0x4(%rbp)
    3bde:	e9 d2 fd ff ff       	jmpq   39b5 <__cpu_indicator_init@GCC_4.8.0+0x95>
    3be3:	c7 45 08 08 00 00 00 	movl   $0x8,0x8(%rbp)
    3bea:	e9 df fd ff ff       	jmpq   39ce <__cpu_indicator_init@GCC_4.8.0+0xae>
    3bef:	83 fa 2f             	cmp    $0x2f,%edx
    3bf2:	0f 86 d6 fd ff ff    	jbe    39ce <__cpu_indicator_init@GCC_4.8.0+0xae>
    3bf8:	c7 45 08 14 00 00 00 	movl   $0x14,0x8(%rbp)
    3bff:	e9 ca fd ff ff       	jmpq   39ce <__cpu_indicator_init@GCC_4.8.0+0xae>
    3c04:	83 fa 2f             	cmp    $0x2f,%edx
    3c07:	76 da                	jbe    3be3 <__cpu_indicator_init@GCC_4.8.0+0x2c3>
    3c09:	83 fa 4f             	cmp    $0x4f,%edx
    3c0c:	77 24                	ja     3c32 <__cpu_indicator_init@GCC_4.8.0+0x312>
    3c0e:	c7 45 08 09 00 00 00 	movl   $0x9,0x8(%rbp)
    3c15:	e9 b4 fd ff ff       	jmpq   39ce <__cpu_indicator_init@GCC_4.8.0+0xae>
    3c1a:	c7 45 08 06 00 00 00 	movl   $0x6,0x8(%rbp)
    3c21:	e9 a8 fd ff ff       	jmpq   39ce <__cpu_indicator_init@GCC_4.8.0+0xae>
    3c26:	c7 45 08 05 00 00 00 	movl   $0x5,0x8(%rbp)
    3c2d:	e9 9c fd ff ff       	jmpq   39ce <__cpu_indicator_init@GCC_4.8.0+0xae>
    3c32:	83 fa 7f             	cmp    $0x7f,%edx
    3c35:	0f 87 93 fd ff ff    	ja     39ce <__cpu_indicator_init@GCC_4.8.0+0xae>
    3c3b:	c7 45 08 0a 00 00 00 	movl   $0xa,0x8(%rbp)
    3c42:	e9 87 fd ff ff       	jmpq   39ce <__cpu_indicator_init@GCC_4.8.0+0xae>
    3c47:	c7 45 08 10 00 00 00 	movl   $0x10,0x8(%rbp)
    3c4e:	e9 62 fd ff ff       	jmpq   39b5 <__cpu_indicator_init@GCC_4.8.0+0x95>
    3c53:	66 2e 0f 1f 84 00 00 	nopw   %cs:0x0(%rax,%rax,1)
    3c5a:	00 00 00 
    3c5d:	0f 1f 00             	nopl   (%rax)
    3c60:	48 8d 3d 29 65 01 00 	lea    0x16529(%rip),%rdi        # 1a190 <__emutls_register_common@@GCC_4.3.0+0x6180>
    3c67:	48 8d 05 22 65 01 00 	lea    0x16522(%rip),%rax        # 1a190 <__emutls_register_common@@GCC_4.3.0+0x6180>
    3c6e:	48 39 f8             	cmp    %rdi,%rax
    3c71:	74 15                	je     3c88 <__cpu_indicator_init@GCC_4.8.0+0x368>
    3c73:	48 8b 05 5e 63 01 00 	mov    0x1635e(%rip),%rax        # 19fd8 <__emutls_register_common@@GCC_4.3.0+0x5fc8>
    3c7a:	48 85 c0             	test   %rax,%rax
    3c7d:	74 09                	je     3c88 <__cpu_indicator_init@GCC_4.8.0+0x368>
    3c7f:	ff e0                	jmpq   *%rax
    3c81:	0f 1f 80 00 00 00 00 	nopl   0x0(%rax)
    3c88:	c3                   	retq   
    3c89:	0f 1f 80 00 00 00 00 	nopl   0x0(%rax)
    3c90:	48 8d 3d f9 64 01 00 	lea    0x164f9(%rip),%rdi        # 1a190 <__emutls_register_common@@GCC_4.3.0+0x6180>
    3c97:	48 8d 35 f2 64 01 00 	lea    0x164f2(%rip),%rsi        # 1a190 <__emutls_register_common@@GCC_4.3.0+0x6180>
    3c9e:	48 29 fe             	sub    %rdi,%rsi
    3ca1:	48 89 f0             	mov    %rsi,%rax
    3ca4:	48 c1 ee 3f          	shr    $0x3f,%rsi
    3ca8:	48 c1 f8 03          	sar    $0x3,%rax
    3cac:	48 01 c6             	add    %rax,%rsi
    3caf:	48 d1 fe             	sar    %rsi
    3cb2:	74 14                	je     3cc8 <__cpu_indicator_init@GCC_4.8.0+0x3a8>
    3cb4:	48 8b 05 35 63 01 00 	mov    0x16335(%rip),%rax        # 19ff0 <__emutls_register_common@@GCC_4.3.0+0x5fe0>
    3cbb:	48 85 c0             	test   %rax,%rax
    3cbe:	74 08                	je     3cc8 <__cpu_indicator_init@GCC_4.8.0+0x3a8>
    3cc0:	ff e0                	jmpq   *%rax
    3cc2:	66 0f 1f 44 00 00    	nopw   0x0(%rax,%rax,1)
    3cc8:	c3                   	retq   
    3cc9:	0f 1f 80 00 00 00 00 	nopl   0x0(%rax)
    3cd0:	f3 0f 1e fa          	endbr64 
    3cd4:	80 3d c5 64 01 00 00 	cmpb   $0x0,0x164c5(%rip)        # 1a1a0 <__emutls_register_common@@GCC_4.3.0+0x6190>
    3cdb:	75 2b                	jne    3d08 <__cpu_indicator_init@GCC_4.8.0+0x3e8>
    3cdd:	55                   	push   %rbp
    3cde:	48 83 3d 12 63 01 00 	cmpq   $0x0,0x16312(%rip)        # 19ff8 <__emutls_register_common@@GCC_4.3.0+0x5fe8>
    3ce5:	00 
    3ce6:	48 89 e5             	mov    %rsp,%rbp
    3ce9:	74 0c                	je     3cf7 <__cpu_indicator_init@GCC_4.8.0+0x3d7>
    3ceb:	48 8b 3d 8e 64 01 00 	mov    0x1648e(%rip),%rdi        # 1a180 <__emutls_register_common@@GCC_4.3.0+0x6170>
    3cf2:	e8 09 f6 ff ff       	callq  3300 <__cxa_finalize@plt>
    3cf7:	e8 64 ff ff ff       	callq  3c60 <__cpu_indicator_init@GCC_4.8.0+0x340>
    3cfc:	c6 05 9d 64 01 00 01 	movb   $0x1,0x1649d(%rip)        # 1a1a0 <__emutls_register_common@@GCC_4.3.0+0x6190>
    3d03:	5d                   	pop    %rbp
    3d04:	c3                   	retq   
    3d05:	0f 1f 00             	nopl   (%rax)
    3d08:	c3                   	retq   
    3d09:	0f 1f 80 00 00 00 00 	nopl   0x0(%rax)
    3d10:	f3 0f 1e fa          	endbr64 
    3d14:	e9 77 ff ff ff       	jmpq   3c90 <__cpu_indicator_init@GCC_4.8.0+0x370>
    3d19:	0f 1f 80 00 00 00 00 	nopl   0x0(%rax)

0000000000003d20 <__multi3@@GCC_3.0>:
    3d20:	f3 0f 1e fa          	endbr64 
    3d24:	49 89 f0             	mov    %rsi,%r8
    3d27:	48 89 f8             	mov    %rdi,%rax
    3d2a:	48 89 d6             	mov    %rdx,%rsi
    3d2d:	48 0f af f9          	imul   %rcx,%rdi
    3d31:	49 0f af f0          	imul   %r8,%rsi
    3d35:	48 f7 e2             	mul    %rdx
    3d38:	48 01 d7             	add    %rdx,%rdi
    3d3b:	48 8d 14 37          	lea    (%rdi,%rsi,1),%rdx
    3d3f:	c3                   	retq   

0000000000003d40 <__negti2@@GCC_3.0>:
    3d40:	f3 0f 1e fa          	endbr64 
    3d44:	48 f7 de             	neg    %rsi
    3d47:	48 89 f8             	mov    %rdi,%rax
    3d4a:	48 f7 d8             	neg    %rax
    3d4d:	48 89 f2             	mov    %rsi,%rdx
    3d50:	48 83 ff 01          	cmp    $0x1,%rdi
    3d54:	48 83 d2 ff          	adc    $0xffffffffffffffff,%rdx
    3d58:	c3                   	retq   
    3d59:	0f 1f 80 00 00 00 00 	nopl   0x0(%rax)

0000000000003d60 <__lshrti3@@GCC_3.0>:
    3d60:	f3 0f 1e fa          	endbr64 
    3d64:	48 89 d1             	mov    %rdx,%rcx
    3d67:	48 85 d2             	test   %rdx,%rdx
    3d6a:	74 34                	je     3da0 <__lshrti3@@GCC_3.0+0x40>
    3d6c:	41 b8 40 00 00 00    	mov    $0x40,%r8d
    3d72:	49 29 d0             	sub    %rdx,%r8
    3d75:	4d 85 c0             	test   %r8,%r8
    3d78:	7e 16                	jle    3d90 <__lshrti3@@GCC_3.0+0x30>
    3d7a:	48 89 f2             	mov    %rsi,%rdx
    3d7d:	48 d3 ef             	shr    %cl,%rdi
    3d80:	48 89 f0             	mov    %rsi,%rax
    3d83:	48 d3 ea             	shr    %cl,%rdx
    3d86:	44 89 c1             	mov    %r8d,%ecx
    3d89:	48 d3 e0             	shl    %cl,%rax
    3d8c:	48 09 f8             	or     %rdi,%rax
    3d8f:	c3                   	retq   
    3d90:	44 89 c1             	mov    %r8d,%ecx
    3d93:	48 89 f0             	mov    %rsi,%rax
    3d96:	31 d2                	xor    %edx,%edx
    3d98:	f7 d9                	neg    %ecx
    3d9a:	48 d3 e8             	shr    %cl,%rax
    3d9d:	c3                   	retq   
    3d9e:	66 90                	xchg   %ax,%ax
    3da0:	48 89 f8             	mov    %rdi,%rax
    3da3:	48 89 f2             	mov    %rsi,%rdx
    3da6:	c3                   	retq   
    3da7:	66 0f 1f 84 00 00 00 	nopw   0x0(%rax,%rax,1)
    3dae:	00 00 

0000000000003db0 <__ashlti3@@GCC_3.0>:
    3db0:	f3 0f 1e fa          	endbr64 
    3db4:	48 85 d2             	test   %rdx,%rdx
    3db7:	74 37                	je     3df0 <__ashlti3@@GCC_3.0+0x40>
    3db9:	41 b8 40 00 00 00    	mov    $0x40,%r8d
    3dbf:	49 29 d0             	sub    %rdx,%r8
    3dc2:	4d 85 c0             	test   %r8,%r8
    3dc5:	7e 19                	jle    3de0 <__ashlti3@@GCC_3.0+0x30>
    3dc7:	89 d1                	mov    %edx,%ecx
    3dc9:	48 89 f8             	mov    %rdi,%rax
    3dcc:	48 d3 e6             	shl    %cl,%rsi
    3dcf:	48 d3 e0             	shl    %cl,%rax
    3dd2:	44 89 c1             	mov    %r8d,%ecx
    3dd5:	48 89 f2             	mov    %rsi,%rdx
    3dd8:	48 d3 ef             	shr    %cl,%rdi
    3ddb:	48 09 fa             	or     %rdi,%rdx
    3dde:	c3                   	retq   
    3ddf:	90                   	nop
    3de0:	44 89 c1             	mov    %r8d,%ecx
    3de3:	31 c0                	xor    %eax,%eax
    3de5:	f7 d9                	neg    %ecx
    3de7:	48 d3 e7             	shl    %cl,%rdi
    3dea:	48 89 fa             	mov    %rdi,%rdx
    3ded:	c3                   	retq   
    3dee:	66 90                	xchg   %ax,%ax
    3df0:	48 89 f8             	mov    %rdi,%rax
    3df3:	48 89 f2             	mov    %rsi,%rdx
    3df6:	c3                   	retq   
    3df7:	66 0f 1f 84 00 00 00 	nopw   0x0(%rax,%rax,1)
    3dfe:	00 00 

0000000000003e00 <__ashrti3@@GCC_3.0>:
    3e00:	f3 0f 1e fa          	endbr64 
    3e04:	48 89 d1             	mov    %rdx,%rcx
    3e07:	48 85 d2             	test   %rdx,%rdx
    3e0a:	74 34                	je     3e40 <__ashrti3@@GCC_3.0+0x40>
    3e0c:	41 b8 40 00 00 00    	mov    $0x40,%r8d
    3e12:	49 29 d0             	sub    %rdx,%r8
    3e15:	48 89 f2             	mov    %rsi,%rdx
    3e18:	4d 85 c0             	test   %r8,%r8
    3e1b:	7e 13                	jle    3e30 <__ashrti3@@GCC_3.0+0x30>
    3e1d:	48 d3 ef             	shr    %cl,%rdi
    3e20:	48 d3 fa             	sar    %cl,%rdx
    3e23:	48 89 f0             	mov    %rsi,%rax
    3e26:	44 89 c1             	mov    %r8d,%ecx
    3e29:	48 d3 e0             	shl    %cl,%rax
    3e2c:	48 09 f8             	or     %rdi,%rax
    3e2f:	c3                   	retq   
    3e30:	44 89 c1             	mov    %r8d,%ecx
    3e33:	48 89 f0             	mov    %rsi,%rax
    3e36:	48 c1 fa 3f          	sar    $0x3f,%rdx
    3e3a:	f7 d9                	neg    %ecx
    3e3c:	48 d3 f8             	sar    %cl,%rax
    3e3f:	c3                   	retq   
    3e40:	48 89 f8             	mov    %rdi,%rax
    3e43:	48 89 f2             	mov    %rsi,%rdx
    3e46:	c3                   	retq   
    3e47:	66 0f 1f 84 00 00 00 	nopw   0x0(%rax,%rax,1)
    3e4e:	00 00 

0000000000003e50 <__cmpti2@@GCC_3.0>:
    3e50:	f3 0f 1e fa          	endbr64 
    3e54:	31 c0                	xor    %eax,%eax
    3e56:	48 39 ce             	cmp    %rcx,%rsi
    3e59:	7c 1c                	jl     3e77 <__cmpti2@@GCC_3.0+0x27>
    3e5b:	b8 02 00 00 00       	mov    $0x2,%eax
    3e60:	7f 15                	jg     3e77 <__cmpti2@@GCC_3.0+0x27>
    3e62:	31 c0                	xor    %eax,%eax
    3e64:	48 39 d7             	cmp    %rdx,%rdi
    3e67:	72 0e                	jb     3e77 <__cmpti2@@GCC_3.0+0x27>
    3e69:	b8 01 00 00 00       	mov    $0x1,%eax
    3e6e:	ba 02 00 00 00       	mov    $0x2,%edx
    3e73:	48 0f 47 c2          	cmova  %rdx,%rax
    3e77:	c3                   	retq   
    3e78:	0f 1f 84 00 00 00 00 	nopl   0x0(%rax,%rax,1)
    3e7f:	00 

0000000000003e80 <__ucmpti2@@GCC_3.0>:
    3e80:	f3 0f 1e fa          	endbr64 
    3e84:	31 c0                	xor    %eax,%eax
    3e86:	48 39 ce             	cmp    %rcx,%rsi
    3e89:	72 1c                	jb     3ea7 <__ucmpti2@@GCC_3.0+0x27>
    3e8b:	b8 02 00 00 00       	mov    $0x2,%eax
    3e90:	77 15                	ja     3ea7 <__ucmpti2@@GCC_3.0+0x27>
    3e92:	31 c0                	xor    %eax,%eax
    3e94:	48 39 d7             	cmp    %rdx,%rdi
    3e97:	72 0e                	jb     3ea7 <__ucmpti2@@GCC_3.0+0x27>
    3e99:	b8 01 00 00 00       	mov    $0x1,%eax
    3e9e:	ba 02 00 00 00       	mov    $0x2,%edx
    3ea3:	48 0f 47 c2          	cmova  %rdx,%rax
    3ea7:	c3                   	retq   
    3ea8:	0f 1f 84 00 00 00 00 	nopl   0x0(%rax,%rax,1)
    3eaf:	00 

0000000000003eb0 <__clear_cache@@GCC_3.0>:
    3eb0:	f3 0f 1e fa          	endbr64 
    3eb4:	c3                   	retq   
    3eb5:	66 2e 0f 1f 84 00 00 	nopw   %cs:0x0(%rax,%rax,1)
    3ebc:	00 00 00 
    3ebf:	90                   	nop

0000000000003ec0 <__absvdi2@@GCC_3.0>:
    3ec0:	f3 0f 1e fa          	endbr64 
    3ec4:	48 89 f8             	mov    %rdi,%rax
    3ec7:	48 85 ff             	test   %rdi,%rdi
    3eca:	78 04                	js     3ed0 <__absvdi2@@GCC_3.0+0x10>
    3ecc:	c3                   	retq   
    3ecd:	0f 1f 00             	nopl   (%rax)
    3ed0:	48 f7 d8             	neg    %rax
    3ed3:	48 83 ec 08          	sub    $0x8,%rsp
    3ed7:	48 85 c0             	test   %rax,%rax
    3eda:	0f 88 00 f7 ff ff    	js     35e0 <_Unwind_GetDataRelBase@plt+0x10>
    3ee0:	48 83 c4 08          	add    $0x8,%rsp
    3ee4:	c3                   	retq   
    3ee5:	66 66 2e 0f 1f 84 00 	data16 nopw %cs:0x0(%rax,%rax,1)
    3eec:	00 00 00 00 

0000000000003ef0 <__absvsi2@@GCC_3.0>:
    3ef0:	f3 0f 1e fa          	endbr64 
    3ef4:	89 f8                	mov    %edi,%eax
    3ef6:	85 ff                	test   %edi,%edi
    3ef8:	78 06                	js     3f00 <__absvsi2@@GCC_3.0+0x10>
    3efa:	c3                   	retq   
    3efb:	0f 1f 44 00 00       	nopl   0x0(%rax,%rax,1)
    3f00:	f7 d8                	neg    %eax
    3f02:	48 83 ec 08          	sub    $0x8,%rsp
    3f06:	85 c0                	test   %eax,%eax
    3f08:	0f 88 d7 f6 ff ff    	js     35e5 <_Unwind_GetDataRelBase@plt+0x15>
    3f0e:	48 83 c4 08          	add    $0x8,%rsp
    3f12:	c3                   	retq   
    3f13:	66 2e 0f 1f 84 00 00 	nopw   %cs:0x0(%rax,%rax,1)
    3f1a:	00 00 00 
    3f1d:	0f 1f 00             	nopl   (%rax)

0000000000003f20 <__absvti2@@GCC_3.4.4>:
    3f20:	f3 0f 1e fa          	endbr64 
    3f24:	48 89 f8             	mov    %rdi,%rax
    3f27:	48 89 f2             	mov    %rsi,%rdx
    3f2a:	48 85 f6             	test   %rsi,%rsi
    3f2d:	78 01                	js     3f30 <__absvti2@@GCC_3.4.4+0x10>
    3f2f:	c3                   	retq   
    3f30:	48 83 ec 08          	sub    $0x8,%rsp
    3f34:	48 f7 d8             	neg    %rax
    3f37:	48 83 d2 00          	adc    $0x0,%rdx
    3f3b:	48 f7 da             	neg    %rdx
    3f3e:	48 85 d2             	test   %rdx,%rdx
    3f41:	0f 88 a3 f6 ff ff    	js     35ea <_Unwind_GetDataRelBase@plt+0x1a>
    3f47:	48 83 c4 08          	add    $0x8,%rsp
    3f4b:	c3                   	retq   
    3f4c:	0f 1f 40 00          	nopl   0x0(%rax)

0000000000003f50 <__addvdi3@@GCC_3.0>:
    3f50:	f3 0f 1e fa          	endbr64 
    3f54:	48 83 ec 08          	sub    $0x8,%rsp
    3f58:	48 8d 04 37          	lea    (%rdi,%rsi,1),%rax
    3f5c:	48 85 f6             	test   %rsi,%rsi
    3f5f:	78 0f                	js     3f70 <__addvdi3@@GCC_3.0+0x20>
    3f61:	48 39 c7             	cmp    %rax,%rdi
    3f64:	7f 18                	jg     3f7e <__addvdi3@@GCC_3.0+0x2e>
    3f66:	48 83 c4 08          	add    $0x8,%rsp
    3f6a:	c3                   	retq   
    3f6b:	0f 1f 44 00 00       	nopl   0x0(%rax,%rax,1)
    3f70:	48 39 c7             	cmp    %rax,%rdi
    3f73:	0f 8c 76 f6 ff ff    	jl     35ef <_Unwind_GetDataRelBase@plt+0x1f>
    3f79:	48 83 c4 08          	add    $0x8,%rsp
    3f7d:	c3                   	retq   
    3f7e:	e9 6c f6 ff ff       	jmpq   35ef <_Unwind_GetDataRelBase@plt+0x1f>
    3f83:	66 66 2e 0f 1f 84 00 	data16 nopw %cs:0x0(%rax,%rax,1)
    3f8a:	00 00 00 00 
    3f8e:	66 90                	xchg   %ax,%ax

0000000000003f90 <__addvsi3@@GCC_3.0>:
    3f90:	f3 0f 1e fa          	endbr64 
    3f94:	48 83 ec 08          	sub    $0x8,%rsp
    3f98:	8d 04 37             	lea    (%rdi,%rsi,1),%eax
    3f9b:	85 f6                	test   %esi,%esi
    3f9d:	78 11                	js     3fb0 <__addvsi3@@GCC_3.0+0x20>
    3f9f:	39 c7                	cmp    %eax,%edi
    3fa1:	7f 1a                	jg     3fbd <__addvsi3@@GCC_3.0+0x2d>
    3fa3:	48 83 c4 08          	add    $0x8,%rsp
    3fa7:	c3                   	retq   
    3fa8:	0f 1f 84 00 00 00 00 	nopl   0x0(%rax,%rax,1)
    3faf:	00 
    3fb0:	39 c7                	cmp    %eax,%edi
    3fb2:	0f 8c 3c f6 ff ff    	jl     35f4 <_Unwind_GetDataRelBase@plt+0x24>
    3fb8:	48 83 c4 08          	add    $0x8,%rsp
    3fbc:	c3                   	retq   
    3fbd:	e9 32 f6 ff ff       	jmpq   35f4 <_Unwind_GetDataRelBase@plt+0x24>
    3fc2:	66 2e 0f 1f 84 00 00 	nopw   %cs:0x0(%rax,%rax,1)
    3fc9:	00 00 00 
    3fcc:	0f 1f 40 00          	nopl   0x0(%rax)

0000000000003fd0 <__addvti3@@GCC_3.4.4>:
    3fd0:	f3 0f 1e fa          	endbr64 
    3fd4:	49 89 f9             	mov    %rdi,%r9
    3fd7:	49 89 d0             	mov    %rdx,%r8
    3fda:	48 83 ec 08          	sub    $0x8,%rsp
    3fde:	48 89 f2             	mov    %rsi,%rdx
    3fe1:	4c 89 c8             	mov    %r9,%rax
    3fe4:	48 89 f7             	mov    %rsi,%rdi
    3fe7:	4c 01 c0             	add    %r8,%rax
    3fea:	48 11 ca             	adc    %rcx,%rdx
    3fed:	48 85 c9             	test   %rcx,%rcx
    3ff0:	78 16                	js     4008 <__addvti3@@GCC_3.4.4+0x38>
    3ff2:	4c 39 c8             	cmp    %r9,%rax
    3ff5:	48 89 d1             	mov    %rdx,%rcx
    3ff8:	48 19 f1             	sbb    %rsi,%rcx
    3ffb:	7c 1c                	jl     4019 <__addvti3@@GCC_3.4.4+0x49>
    3ffd:	48 83 c4 08          	add    $0x8,%rsp
    4001:	c3                   	retq   
    4002:	66 0f 1f 44 00 00    	nopw   0x0(%rax,%rax,1)
    4008:	49 39 c1             	cmp    %rax,%r9
    400b:	48 19 d7             	sbb    %rdx,%rdi
    400e:	0f 8c e5 f5 ff ff    	jl     35f9 <_Unwind_GetDataRelBase@plt+0x29>
    4014:	48 83 c4 08          	add    $0x8,%rsp
    4018:	c3                   	retq   
    4019:	e9 db f5 ff ff       	jmpq   35f9 <_Unwind_GetDataRelBase@plt+0x29>
    401e:	66 90                	xchg   %ax,%ax

0000000000004020 <__subvdi3@@GCC_3.0>:
    4020:	f3 0f 1e fa          	endbr64 
    4024:	48 89 f8             	mov    %rdi,%rax
    4027:	48 83 ec 08          	sub    $0x8,%rsp
    402b:	48 29 f0             	sub    %rsi,%rax
    402e:	48 85 f6             	test   %rsi,%rsi
    4031:	78 0d                	js     4040 <__subvdi3@@GCC_3.0+0x20>
    4033:	48 39 c7             	cmp    %rax,%rdi
    4036:	7c 16                	jl     404e <__subvdi3@@GCC_3.0+0x2e>
    4038:	48 83 c4 08          	add    $0x8,%rsp
    403c:	c3                   	retq   
    403d:	0f 1f 00             	nopl   (%rax)
    4040:	48 39 c7             	cmp    %rax,%rdi
    4043:	0f 8f b5 f5 ff ff    	jg     35fe <_Unwind_GetDataRelBase@plt+0x2e>
    4049:	48 83 c4 08          	add    $0x8,%rsp
    404d:	c3                   	retq   
    404e:	e9 ab f5 ff ff       	jmpq   35fe <_Unwind_GetDataRelBase@plt+0x2e>
    4053:	66 66 2e 0f 1f 84 00 	data16 nopw %cs:0x0(%rax,%rax,1)
    405a:	00 00 00 00 
    405e:	66 90                	xchg   %ax,%ax

0000000000004060 <__subvsi3@@GCC_3.0>:
    4060:	f3 0f 1e fa          	endbr64 
    4064:	89 f8                	mov    %edi,%eax
    4066:	48 83 ec 08          	sub    $0x8,%rsp
    406a:	29 f0                	sub    %esi,%eax
    406c:	85 f6                	test   %esi,%esi
    406e:	78 10                	js     4080 <__subvsi3@@GCC_3.0+0x20>
    4070:	39 c7                	cmp    %eax,%edi
    4072:	7c 19                	jl     408d <__subvsi3@@GCC_3.0+0x2d>
    4074:	48 83 c4 08          	add    $0x8,%rsp
    4078:	c3                   	retq   
    4079:	0f 1f 80 00 00 00 00 	nopl   0x0(%rax)
    4080:	39 c7                	cmp    %eax,%edi
    4082:	0f 8f 7b f5 ff ff    	jg     3603 <_Unwind_GetDataRelBase@plt+0x33>
    4088:	48 83 c4 08          	add    $0x8,%rsp
    408c:	c3                   	retq   
    408d:	e9 71 f5 ff ff       	jmpq   3603 <_Unwind_GetDataRelBase@plt+0x33>
    4092:	66 2e 0f 1f 84 00 00 	nopw   %cs:0x0(%rax,%rax,1)
    4099:	00 00 00 
    409c:	0f 1f 40 00          	nopl   0x0(%rax)

00000000000040a0 <__subvti3@@GCC_3.4.4>:
    40a0:	f3 0f 1e fa          	endbr64 
    40a4:	49 89 f9             	mov    %rdi,%r9
    40a7:	49 89 d0             	mov    %rdx,%r8
    40aa:	48 83 ec 08          	sub    $0x8,%rsp
    40ae:	48 89 f2             	mov    %rsi,%rdx
    40b1:	4c 89 c8             	mov    %r9,%rax
    40b4:	4c 29 c0             	sub    %r8,%rax
    40b7:	48 19 ca             	sbb    %rcx,%rdx
    40ba:	48 85 c9             	test   %rcx,%rcx
    40bd:	78 11                	js     40d0 <__subvti3@@GCC_3.4.4+0x30>
    40bf:	49 39 c1             	cmp    %rax,%r9
    40c2:	48 89 f1             	mov    %rsi,%rcx
    40c5:	48 19 d1             	sbb    %rdx,%rcx
    40c8:	7c 1a                	jl     40e4 <__subvti3@@GCC_3.4.4+0x44>
    40ca:	48 83 c4 08          	add    $0x8,%rsp
    40ce:	c3                   	retq   
    40cf:	90                   	nop
    40d0:	4c 39 c8             	cmp    %r9,%rax
    40d3:	48 89 d1             	mov    %rdx,%rcx
    40d6:	48 19 f1             	sbb    %rsi,%rcx
    40d9:	0f 8c 29 f5 ff ff    	jl     3608 <_Unwind_GetDataRelBase@plt+0x38>
    40df:	48 83 c4 08          	add    $0x8,%rsp
    40e3:	c3                   	retq   
    40e4:	e9 1f f5 ff ff       	jmpq   3608 <_Unwind_GetDataRelBase@plt+0x38>
    40e9:	0f 1f 80 00 00 00 00 	nopl   0x0(%rax)

00000000000040f0 <__mulvdi3@@GCC_3.0>:
    40f0:	f3 0f 1e fa          	endbr64 
    40f4:	48 89 f8             	mov    %rdi,%rax
    40f7:	48 83 ec 08          	sub    $0x8,%rsp
    40fb:	48 f7 ee             	imul   %rsi
    40fe:	48 89 c1             	mov    %rax,%rcx
    4101:	48 c1 f9 3f          	sar    $0x3f,%rcx
    4105:	48 39 d1             	cmp    %rdx,%rcx
    4108:	0f 85 ff f4 ff ff    	jne    360d <_Unwind_GetDataRelBase@plt+0x3d>
    410e:	48 83 c4 08          	add    $0x8,%rsp
    4112:	c3                   	retq   
    4113:	66 66 2e 0f 1f 84 00 	data16 nopw %cs:0x0(%rax,%rax,1)
    411a:	00 00 00 00 
    411e:	66 90                	xchg   %ax,%ax

0000000000004120 <__mulvsi3@@GCC_3.0>:
    4120:	f3 0f 1e fa          	endbr64 
    4124:	48 63 c7             	movslq %edi,%rax
    4127:	48 63 f6             	movslq %esi,%rsi
    412a:	48 83 ec 08          	sub    $0x8,%rsp
    412e:	48 0f af c6          	imul   %rsi,%rax
    4132:	48 89 c2             	mov    %rax,%rdx
    4135:	89 c1                	mov    %eax,%ecx
    4137:	48 c1 fa 20          	sar    $0x20,%rdx
    413b:	c1 f9 1f             	sar    $0x1f,%ecx
    413e:	39 d1                	cmp    %edx,%ecx
    4140:	0f 85 cc f4 ff ff    	jne    3612 <_Unwind_GetDataRelBase@plt+0x42>
    4146:	48 83 c4 08          	add    $0x8,%rsp
    414a:	c3                   	retq   
    414b:	0f 1f 44 00 00       	nopl   0x0(%rax,%rax,1)

0000000000004150 <__mulvti3@@GCC_3.4.4>:
    4150:	f3 0f 1e fa          	endbr64 
    4154:	41 55                	push   %r13
    4156:	49 89 cb             	mov    %rcx,%r11
    4159:	48 89 d0             	mov    %rdx,%rax
    415c:	49 89 d2             	mov    %rdx,%r10
    415f:	41 54                	push   %r12
    4161:	49 89 fc             	mov    %rdi,%r12
    4164:	48 89 d1             	mov    %rdx,%rcx
    4167:	49 89 f0             	mov    %rsi,%r8
    416a:	4c 89 e2             	mov    %r12,%rdx
    416d:	49 89 f5             	mov    %rsi,%r13
    4170:	53                   	push   %rbx
    4171:	48 89 fe             	mov    %rdi,%rsi
    4174:	48 c1 fa 3f          	sar    $0x3f,%rdx
    4178:	48 c1 f8 3f          	sar    $0x3f,%rax
    417c:	4c 89 df             	mov    %r11,%rdi
    417f:	4c 39 c2             	cmp    %r8,%rdx
    4182:	75 14                	jne    4198 <__mulvti3@@GCC_3.4.4+0x48>
    4184:	4c 39 d8             	cmp    %r11,%rax
    4187:	75 67                	jne    41f0 <__mulvti3@@GCC_3.4.4+0xa0>
    4189:	4c 89 e0             	mov    %r12,%rax
    418c:	49 f7 ea             	imul   %r10
    418f:	5b                   	pop    %rbx
    4190:	41 5c                	pop    %r12
    4192:	41 5d                	pop    %r13
    4194:	c3                   	retq   
    4195:	0f 1f 00             	nopl   (%rax)
    4198:	4c 39 d8             	cmp    %r11,%rax
    419b:	0f 85 a7 00 00 00    	jne    4248 <__mulvti3@@GCC_3.4.4+0xf8>
    41a1:	4c 89 e0             	mov    %r12,%rax
    41a4:	49 f7 e2             	mul    %r10
    41a7:	49 89 c1             	mov    %rax,%r9
    41aa:	4c 89 c0             	mov    %r8,%rax
    41ad:	48 89 d7             	mov    %rdx,%rdi
    41b0:	49 f7 e2             	mul    %r10
    41b3:	4d 85 c0             	test   %r8,%r8
    41b6:	79 09                	jns    41c1 <__mulvti3@@GCC_3.4.4+0x71>
    41b8:	49 89 d0             	mov    %rdx,%r8
    41bb:	49 29 c8             	sub    %rcx,%r8
    41be:	4c 89 c2             	mov    %r8,%rdx
    41c1:	48 85 c9             	test   %rcx,%rcx
    41c4:	79 06                	jns    41cc <__mulvti3@@GCC_3.4.4+0x7c>
    41c6:	4c 29 e0             	sub    %r12,%rax
    41c9:	4c 19 ea             	sbb    %r13,%rdx
    41cc:	49 89 fa             	mov    %rdi,%r10
    41cf:	45 31 db             	xor    %r11d,%r11d
    41d2:	49 01 c2             	add    %rax,%r10
    41d5:	4c 89 d0             	mov    %r10,%rax
    41d8:	49 11 d3             	adc    %rdx,%r11
    41db:	48 c1 f8 3f          	sar    $0x3f,%rax
    41df:	4c 39 d8             	cmp    %r11,%rax
    41e2:	0f 85 2f f4 ff ff    	jne    3617 <_Unwind_GetDataRelBase@plt+0x47>
    41e8:	4c 89 c8             	mov    %r9,%rax
    41eb:	4c 89 d2             	mov    %r10,%rdx
    41ee:	eb 9f                	jmp    418f <__mulvti3@@GCC_3.4.4+0x3f>
    41f0:	4c 89 d0             	mov    %r10,%rax
    41f3:	49 f7 e4             	mul    %r12
    41f6:	49 89 c0             	mov    %rax,%r8
    41f9:	4c 89 d8             	mov    %r11,%rax
    41fc:	48 89 d3             	mov    %rdx,%rbx
    41ff:	49 f7 e4             	mul    %r12
    4202:	4d 85 db             	test   %r11,%r11
    4205:	79 09                	jns    4210 <__mulvti3@@GCC_3.4.4+0xc0>
    4207:	48 89 d7             	mov    %rdx,%rdi
    420a:	4c 29 e7             	sub    %r12,%rdi
    420d:	48 89 fa             	mov    %rdi,%rdx
    4210:	48 85 f6             	test   %rsi,%rsi
    4213:	79 06                	jns    421b <__mulvti3@@GCC_3.4.4+0xcb>
    4215:	4c 29 d0             	sub    %r10,%rax
    4218:	4c 19 da             	sbb    %r11,%rdx
    421b:	48 89 de             	mov    %rbx,%rsi
    421e:	31 ff                	xor    %edi,%edi
    4220:	48 01 c6             	add    %rax,%rsi
    4223:	48 89 f0             	mov    %rsi,%rax
    4226:	48 11 d7             	adc    %rdx,%rdi
    4229:	48 c1 f8 3f          	sar    $0x3f,%rax
    422d:	48 39 f8             	cmp    %rdi,%rax
    4230:	0f 85 e1 f3 ff ff    	jne    3617 <_Unwind_GetDataRelBase@plt+0x47>
    4236:	4c 89 c0             	mov    %r8,%rax
    4239:	48 89 f2             	mov    %rsi,%rdx
    423c:	e9 4e ff ff ff       	jmpq   418f <__mulvti3@@GCC_3.4.4+0x3f>
    4241:	0f 1f 80 00 00 00 00 	nopl   0x0(%rax)
    4248:	4d 85 c0             	test   %r8,%r8
    424b:	78 23                	js     4270 <__mulvti3@@GCC_3.4.4+0x120>
    424d:	4d 85 db             	test   %r11,%r11
    4250:	78 4d                	js     429f <__mulvti3@@GCC_3.4.4+0x14f>
    4252:	4c 09 c7             	or     %r8,%rdi
    4255:	0f 85 bc f3 ff ff    	jne    3617 <_Unwind_GetDataRelBase@plt+0x47>
    425b:	4c 89 e0             	mov    %r12,%rax
    425e:	49 f7 e2             	mul    %r10
    4261:	48 85 d2             	test   %rdx,%rdx
    4264:	0f 89 25 ff ff ff    	jns    418f <__mulvti3@@GCC_3.4.4+0x3f>
    426a:	e9 a8 f3 ff ff       	jmpq   3617 <_Unwind_GetDataRelBase@plt+0x47>
    426f:	90                   	nop
    4270:	4d 85 db             	test   %r11,%r11
    4273:	78 57                	js     42cc <__mulvti3@@GCC_3.4.4+0x17c>
    4275:	0f 85 9c f3 ff ff    	jne    3617 <_Unwind_GetDataRelBase@plt+0x47>
    427b:	49 83 f8 ff          	cmp    $0xffffffffffffffff,%r8
    427f:	0f 85 92 f3 ff ff    	jne    3617 <_Unwind_GetDataRelBase@plt+0x47>
    4285:	4c 89 e0             	mov    %r12,%rax
    4288:	49 f7 e2             	mul    %r10
    428b:	49 89 d0             	mov    %rdx,%r8
    428e:	4d 29 d0             	sub    %r10,%r8
    4291:	0f 89 80 f3 ff ff    	jns    3617 <_Unwind_GetDataRelBase@plt+0x47>
    4297:	4c 89 c2             	mov    %r8,%rdx
    429a:	e9 f0 fe ff ff       	jmpq   418f <__mulvti3@@GCC_3.4.4+0x3f>
    429f:	49 83 fb ff          	cmp    $0xffffffffffffffff,%r11
    42a3:	0f 85 6e f3 ff ff    	jne    3617 <_Unwind_GetDataRelBase@plt+0x47>
    42a9:	4d 85 c0             	test   %r8,%r8
    42ac:	0f 85 65 f3 ff ff    	jne    3617 <_Unwind_GetDataRelBase@plt+0x47>
    42b2:	4c 89 d0             	mov    %r10,%rax
    42b5:	49 f7 e4             	mul    %r12
    42b8:	48 89 d7             	mov    %rdx,%rdi
    42bb:	4c 29 e7             	sub    %r12,%rdi
    42be:	0f 89 53 f3 ff ff    	jns    3617 <_Unwind_GetDataRelBase@plt+0x47>
    42c4:	48 89 fa             	mov    %rdi,%rdx
    42c7:	e9 c3 fe ff ff       	jmpq   418f <__mulvti3@@GCC_3.4.4+0x3f>
    42cc:	4c 21 c7             	and    %r8,%rdi
    42cf:	48 83 ff ff          	cmp    $0xffffffffffffffff,%rdi
    42d3:	0f 85 3e f3 ff ff    	jne    3617 <_Unwind_GetDataRelBase@plt+0x47>
    42d9:	4c 89 d0             	mov    %r10,%rax
    42dc:	4c 09 e0             	or     %r12,%rax
    42df:	0f 84 32 f3 ff ff    	je     3617 <_Unwind_GetDataRelBase@plt+0x47>
    42e5:	4c 89 e0             	mov    %r12,%rax
    42e8:	49 f7 e2             	mul    %r10
    42eb:	4c 29 e2             	sub    %r12,%rdx
    42ee:	49 89 c0             	mov    %rax,%r8
    42f1:	48 89 d6             	mov    %rdx,%rsi
    42f4:	4c 29 d6             	sub    %r10,%rsi
    42f7:	0f 88 1a f3 ff ff    	js     3617 <_Unwind_GetDataRelBase@plt+0x47>
    42fd:	e9 34 ff ff ff       	jmpq   4236 <__mulvti3@@GCC_3.4.4+0xe6>
    4302:	66 2e 0f 1f 84 00 00 	nopw   %cs:0x0(%rax,%rax,1)
    4309:	00 00 00 
    430c:	0f 1f 40 00          	nopl   0x0(%rax)

0000000000004310 <__negvdi2@@GCC_3.0>:
    4310:	f3 0f 1e fa          	endbr64 
    4314:	48 89 f8             	mov    %rdi,%rax
    4317:	48 83 ec 08          	sub    $0x8,%rsp
    431b:	48 f7 d8             	neg    %rax
    431e:	48 85 ff             	test   %rdi,%rdi
    4321:	78 0d                	js     4330 <__negvdi2@@GCC_3.0+0x20>
    4323:	48 85 c0             	test   %rax,%rax
    4326:	7f 16                	jg     433e <__negvdi2@@GCC_3.0+0x2e>
    4328:	48 83 c4 08          	add    $0x8,%rsp
    432c:	c3                   	retq   
    432d:	0f 1f 00             	nopl   (%rax)
    4330:	48 85 c0             	test   %rax,%rax
    4333:	0f 88 e3 f2 ff ff    	js     361c <_Unwind_GetDataRelBase@plt+0x4c>
    4339:	48 83 c4 08          	add    $0x8,%rsp
    433d:	c3                   	retq   
    433e:	e9 d9 f2 ff ff       	jmpq   361c <_Unwind_GetDataRelBase@plt+0x4c>
    4343:	66 66 2e 0f 1f 84 00 	data16 nopw %cs:0x0(%rax,%rax,1)
    434a:	00 00 00 00 
    434e:	66 90                	xchg   %ax,%ax

0000000000004350 <__negvsi2@@GCC_3.0>:
    4350:	f3 0f 1e fa          	endbr64 
    4354:	89 f8                	mov    %edi,%eax
    4356:	48 83 ec 08          	sub    $0x8,%rsp
    435a:	f7 d8                	neg    %eax
    435c:	85 ff                	test   %edi,%edi
    435e:	78 10                	js     4370 <__negvsi2@@GCC_3.0+0x20>
    4360:	85 c0                	test   %eax,%eax
    4362:	7f 19                	jg     437d <__negvsi2@@GCC_3.0+0x2d>
    4364:	48 83 c4 08          	add    $0x8,%rsp
    4368:	c3                   	retq   
    4369:	0f 1f 80 00 00 00 00 	nopl   0x0(%rax)
    4370:	85 c0                	test   %eax,%eax
    4372:	0f 88 a9 f2 ff ff    	js     3621 <_Unwind_GetDataRelBase@plt+0x51>
    4378:	48 83 c4 08          	add    $0x8,%rsp
    437c:	c3                   	retq   
    437d:	e9 9f f2 ff ff       	jmpq   3621 <_Unwind_GetDataRelBase@plt+0x51>
    4382:	66 2e 0f 1f 84 00 00 	nopw   %cs:0x0(%rax,%rax,1)
    4389:	00 00 00 
    438c:	0f 1f 40 00          	nopl   0x0(%rax)

0000000000004390 <__negvti2@@GCC_3.4.4>:
    4390:	f3 0f 1e fa          	endbr64 
    4394:	48 89 f8             	mov    %rdi,%rax
    4397:	48 83 ec 08          	sub    $0x8,%rsp
    439b:	48 89 f2             	mov    %rsi,%rdx
    439e:	48 f7 d8             	neg    %rax
    43a1:	48 83 d2 00          	adc    $0x0,%rdx
    43a5:	48 f7 da             	neg    %rdx
    43a8:	48 85 f6             	test   %rsi,%rsi
    43ab:	78 13                	js     43c0 <__negvti2@@GCC_3.4.4+0x30>
    43ad:	31 c9                	xor    %ecx,%ecx
    43af:	48 39 c1             	cmp    %rax,%rcx
    43b2:	48 19 d1             	sbb    %rdx,%rcx
    43b5:	7c 17                	jl     43ce <__negvti2@@GCC_3.4.4+0x3e>
    43b7:	48 83 c4 08          	add    $0x8,%rsp
    43bb:	c3                   	retq   
    43bc:	0f 1f 40 00          	nopl   0x0(%rax)
    43c0:	48 85 d2             	test   %rdx,%rdx
    43c3:	0f 88 5d f2 ff ff    	js     3626 <_Unwind_GetDataRelBase@plt+0x56>
    43c9:	48 83 c4 08          	add    $0x8,%rsp
    43cd:	c3                   	retq   
    43ce:	e9 53 f2 ff ff       	jmpq   3626 <_Unwind_GetDataRelBase@plt+0x56>
    43d3:	66 2e 0f 1f 84 00 00 	nopw   %cs:0x0(%rax,%rax,1)
    43da:	00 00 00 
    43dd:	0f 1f 00             	nopl   (%rax)

00000000000043e0 <__ffsdi2@@GCC_3.0>:
    43e0:	f3 0f 1e fa          	endbr64 
    43e4:	31 c0                	xor    %eax,%eax
    43e6:	ba 00 00 00 00       	mov    $0x0,%edx
    43eb:	f3 48 0f bc c7       	tzcnt  %rdi,%rax
    43f0:	83 c0 01             	add    $0x1,%eax
    43f3:	48 85 ff             	test   %rdi,%rdi
    43f6:	0f 44 c2             	cmove  %edx,%eax
    43f9:	c3                   	retq   
    43fa:	66 0f 1f 44 00 00    	nopw   0x0(%rax,%rax,1)

0000000000004400 <__ffsti2@@GCC_3.0>:
    4400:	f3 0f 1e fa          	endbr64 
    4404:	31 c0                	xor    %eax,%eax
    4406:	48 85 ff             	test   %rdi,%rdi
    4409:	75 0d                	jne    4418 <__ffsti2@@GCC_3.0+0x18>
    440b:	48 85 f6             	test   %rsi,%rsi
    440e:	74 11                	je     4421 <__ffsti2@@GCC_3.0+0x21>
    4410:	48 89 f7             	mov    %rsi,%rdi
    4413:	b8 40 00 00 00       	mov    $0x40,%eax
    4418:	f3 48 0f bc ff       	tzcnt  %rdi,%rdi
    441d:	8d 44 38 01          	lea    0x1(%rax,%rdi,1),%eax
    4421:	c3                   	retq   
    4422:	66 2e 0f 1f 84 00 00 	nopw   %cs:0x0(%rax,%rax,1)
    4429:	00 00 00 
    442c:	0f 1f 40 00          	nopl   0x0(%rax)

0000000000004430 <__clzdi2@@GCC_3.4>:
    4430:	f3 0f 1e fa          	endbr64 
    4434:	48 0f bd c7          	bsr    %rdi,%rax
    4438:	48 83 f0 3f          	xor    $0x3f,%rax
    443c:	c3                   	retq   
    443d:	0f 1f 00             	nopl   (%rax)

0000000000004440 <__clzti2@@GCC_3.4>:
    4440:	f3 0f 1e fa          	endbr64 
    4444:	ba 40 00 00 00       	mov    $0x40,%edx
    4449:	48 85 f6             	test   %rsi,%rsi
    444c:	74 05                	je     4453 <__clzti2@@GCC_3.4+0x13>
    444e:	48 89 f7             	mov    %rsi,%rdi
    4451:	31 d2                	xor    %edx,%edx
    4453:	48 0f bd c7          	bsr    %rdi,%rax
    4457:	48 83 f0 3f          	xor    $0x3f,%rax
    445b:	01 d0                	add    %edx,%eax
    445d:	c3                   	retq   
    445e:	66 90                	xchg   %ax,%ax

0000000000004460 <__ctzdi2@@GCC_3.4>:
    4460:	f3 0f 1e fa          	endbr64 
    4464:	31 c0                	xor    %eax,%eax
    4466:	f3 48 0f bc c7       	tzcnt  %rdi,%rax
    446b:	c3                   	retq   
    446c:	0f 1f 40 00          	nopl   0x0(%rax)

0000000000004470 <__ctzti2@@GCC_3.4>:
    4470:	f3 0f 1e fa          	endbr64 
    4474:	48 89 f8             	mov    %rdi,%rax
    4477:	31 d2                	xor    %edx,%edx
    4479:	48 85 ff             	test   %rdi,%rdi
    447c:	75 08                	jne    4486 <__ctzti2@@GCC_3.4+0x16>
    447e:	48 89 f0             	mov    %rsi,%rax
    4481:	ba 40 00 00 00       	mov    $0x40,%edx
    4486:	f3 48 0f bc c0       	tzcnt  %rax,%rax
    448b:	01 d0                	add    %edx,%eax
    448d:	c3                   	retq   
    448e:	66 90                	xchg   %ax,%ax

0000000000004490 <__popcountdi2@@GCC_3.4>:
    4490:	f3 0f 1e fa          	endbr64 
    4494:	48 ba 55 55 55 55 55 	movabs $0x5555555555555555,%rdx
    449b:	55 55 55 
    449e:	48 89 f8             	mov    %rdi,%rax
    44a1:	48 d1 e8             	shr    %rax
    44a4:	48 21 d0             	and    %rdx,%rax
    44a7:	48 ba 33 33 33 33 33 	movabs $0x3333333333333333,%rdx
    44ae:	33 33 33 
    44b1:	48 29 c7             	sub    %rax,%rdi
    44b4:	48 89 f8             	mov    %rdi,%rax
    44b7:	48 c1 ef 02          	shr    $0x2,%rdi
    44bb:	48 21 d0             	and    %rdx,%rax
    44be:	48 21 d7             	and    %rdx,%rdi
    44c1:	48 01 c7             	add    %rax,%rdi
    44c4:	48 89 f8             	mov    %rdi,%rax
    44c7:	48 c1 e8 04          	shr    $0x4,%rax
    44cb:	48 01 f8             	add    %rdi,%rax
    44ce:	48 bf 0f 0f 0f 0f 0f 	movabs $0xf0f0f0f0f0f0f0f,%rdi
    44d5:	0f 0f 0f 
    44d8:	48 21 f8             	and    %rdi,%rax
    44db:	48 bf 01 01 01 01 01 	movabs $0x101010101010101,%rdi
    44e2:	01 01 01 
    44e5:	48 0f af c7          	imul   %rdi,%rax
    44e9:	48 c1 e8 38          	shr    $0x38,%rax
    44ed:	c3                   	retq   
    44ee:	66 90                	xchg   %ax,%ax

00000000000044f0 <__popcountti2@@GCC_3.4>:
    44f0:	f3 0f 1e fa          	endbr64 
    44f4:	48 b9 55 55 55 55 55 	movabs $0x5555555555555555,%rcx
    44fb:	55 55 55 
    44fe:	48 89 fa             	mov    %rdi,%rdx
    4501:	48 89 f0             	mov    %rsi,%rax
    4504:	48 d1 ea             	shr    %rdx
    4507:	48 d1 e8             	shr    %rax
    450a:	48 21 ca             	and    %rcx,%rdx
    450d:	48 21 c8             	and    %rcx,%rax
    4510:	48 b9 33 33 33 33 33 	movabs $0x3333333333333333,%rcx
    4517:	33 33 33 
    451a:	48 29 d7             	sub    %rdx,%rdi
    451d:	48 29 c6             	sub    %rax,%rsi
    4520:	48 89 fa             	mov    %rdi,%rdx
    4523:	48 c1 ef 02          	shr    $0x2,%rdi
    4527:	48 89 f0             	mov    %rsi,%rax
    452a:	48 21 cf             	and    %rcx,%rdi
    452d:	48 21 ca             	and    %rcx,%rdx
    4530:	48 c1 ee 02          	shr    $0x2,%rsi
    4534:	48 21 c8             	and    %rcx,%rax
    4537:	48 01 fa             	add    %rdi,%rdx
    453a:	48 21 ce             	and    %rcx,%rsi
    453d:	48 b9 0f 0f 0f 0f 0f 	movabs $0xf0f0f0f0f0f0f0f,%rcx
    4544:	0f 0f 0f 
    4547:	48 89 d7             	mov    %rdx,%rdi
    454a:	48 01 c6             	add    %rax,%rsi
    454d:	48 c1 ef 04          	shr    $0x4,%rdi
    4551:	48 8d 04 17          	lea    (%rdi,%rdx,1),%rax
    4555:	48 89 f2             	mov    %rsi,%rdx
    4558:	48 21 c8             	and    %rcx,%rax
    455b:	48 c1 ea 04          	shr    $0x4,%rdx
    455f:	48 89 c7             	mov    %rax,%rdi
    4562:	48 8d 04 32          	lea    (%rdx,%rsi,1),%rax
    4566:	48 ba 01 01 01 01 01 	movabs $0x101010101010101,%rdx
    456d:	01 01 01 
    4570:	48 21 c8             	and    %rcx,%rax
    4573:	48 01 f8             	add    %rdi,%rax
    4576:	48 0f af c2          	imul   %rdx,%rax
    457a:	48 c1 e8 38          	shr    $0x38,%rax
    457e:	c3                   	retq   
    457f:	90                   	nop

0000000000004580 <__paritydi2@@GCC_3.4>:
    4580:	f3 0f 1e fa          	endbr64 
    4584:	48 89 f9             	mov    %rdi,%rcx
    4587:	48 c1 ef 20          	shr    $0x20,%rdi
    458b:	b8 96 69 00 00       	mov    $0x6996,%eax
    4590:	48 31 f9             	xor    %rdi,%rcx
    4593:	48 89 cf             	mov    %rcx,%rdi
    4596:	48 c1 ef 10          	shr    $0x10,%rdi
    459a:	48 31 cf             	xor    %rcx,%rdi
    459d:	48 89 f9             	mov    %rdi,%rcx
    45a0:	48 c1 e9 08          	shr    $0x8,%rcx
    45a4:	48 31 cf             	xor    %rcx,%rdi
    45a7:	48 89 f9             	mov    %rdi,%rcx
    45aa:	48 c1 e9 04          	shr    $0x4,%rcx
    45ae:	48 31 f9             	xor    %rdi,%rcx
    45b1:	83 e1 0f             	and    $0xf,%ecx
    45b4:	d3 f8                	sar    %cl,%eax
    45b6:	83 e0 01             	and    $0x1,%eax
    45b9:	c3                   	retq   
    45ba:	66 0f 1f 44 00 00    	nopw   0x0(%rax,%rax,1)

00000000000045c0 <__parityti2@@GCC_3.4>:
    45c0:	f3 0f 1e fa          	endbr64 
    45c4:	48 31 f7             	xor    %rsi,%rdi
    45c7:	b8 96 69 00 00       	mov    $0x6996,%eax
    45cc:	48 89 fe             	mov    %rdi,%rsi
    45cf:	48 89 f9             	mov    %rdi,%rcx
    45d2:	48 c1 ee 20          	shr    $0x20,%rsi
    45d6:	48 31 f1             	xor    %rsi,%rcx
    45d9:	48 89 ce             	mov    %rcx,%rsi
    45dc:	48 c1 ee 10          	shr    $0x10,%rsi
    45e0:	48 31 ce             	xor    %rcx,%rsi
    45e3:	48 89 f1             	mov    %rsi,%rcx
    45e6:	48 c1 e9 08          	shr    $0x8,%rcx
    45ea:	48 31 ce             	xor    %rcx,%rsi
    45ed:	48 89 f1             	mov    %rsi,%rcx
    45f0:	48 c1 e9 04          	shr    $0x4,%rcx
    45f4:	48 31 f1             	xor    %rsi,%rcx
    45f7:	83 e1 0f             	and    $0xf,%ecx
    45fa:	d3 f8                	sar    %cl,%eax
    45fc:	83 e0 01             	and    $0x1,%eax
    45ff:	c3                   	retq   

0000000000004600 <__powisf2@@GCC_4.0.0>:
    4600:	f3 0f 1e fa          	endbr64 
    4604:	89 fa                	mov    %edi,%edx
    4606:	0f 28 c8             	movaps %xmm0,%xmm1
    4609:	c1 fa 1f             	sar    $0x1f,%edx
    460c:	89 d0                	mov    %edx,%eax
    460e:	31 f8                	xor    %edi,%eax
    4610:	29 d0                	sub    %edx,%eax
    4612:	a8 01                	test   $0x1,%al
    4614:	75 0a                	jne    4620 <__powisf2@@GCC_4.0.0+0x20>
    4616:	f3 0f 10 0d e2 0b 01 	movss  0x10be2(%rip),%xmm1        # 15200 <__emutls_register_common@@GCC_4.3.0+0x11f0>
    461d:	00 
    461e:	66 90                	xchg   %ax,%ax
    4620:	d1 e8                	shr    %eax
    4622:	74 10                	je     4634 <__powisf2@@GCC_4.0.0+0x34>
    4624:	f3 0f 59 c0          	mulss  %xmm0,%xmm0
    4628:	a8 01                	test   $0x1,%al
    462a:	74 f4                	je     4620 <__powisf2@@GCC_4.0.0+0x20>
    462c:	f3 0f 59 c8          	mulss  %xmm0,%xmm1
    4630:	d1 e8                	shr    %eax
    4632:	75 f0                	jne    4624 <__powisf2@@GCC_4.0.0+0x24>
    4634:	85 ff                	test   %edi,%edi
    4636:	79 0f                	jns    4647 <__powisf2@@GCC_4.0.0+0x47>
    4638:	f3 0f 10 05 c0 0b 01 	movss  0x10bc0(%rip),%xmm0        # 15200 <__emutls_register_common@@GCC_4.3.0+0x11f0>
    463f:	00 
    4640:	f3 0f 5e c1          	divss  %xmm1,%xmm0
    4644:	0f 28 c8             	movaps %xmm0,%xmm1
    4647:	0f 28 c1             	movaps %xmm1,%xmm0
    464a:	c3                   	retq   
    464b:	0f 1f 44 00 00       	nopl   0x0(%rax,%rax,1)

0000000000004650 <__powidf2@@GCC_4.0.0>:
    4650:	f3 0f 1e fa          	endbr64 
    4654:	89 fa                	mov    %edi,%edx
    4656:	66 0f 28 c8          	movapd %xmm0,%xmm1
    465a:	c1 fa 1f             	sar    $0x1f,%edx
    465d:	89 d0                	mov    %edx,%eax
    465f:	31 f8                	xor    %edi,%eax
    4661:	29 d0                	sub    %edx,%eax
    4663:	a8 01                	test   $0x1,%al
    4665:	75 09                	jne    4670 <__powidf2@@GCC_4.0.0+0x20>
    4667:	f2 0f 10 0d 99 0b 01 	movsd  0x10b99(%rip),%xmm1        # 15208 <__emutls_register_common@@GCC_4.3.0+0x11f8>
    466e:	00 
    466f:	90                   	nop
    4670:	d1 e8                	shr    %eax
    4672:	74 10                	je     4684 <__powidf2@@GCC_4.0.0+0x34>
    4674:	f2 0f 59 c0          	mulsd  %xmm0,%xmm0
    4678:	a8 01                	test   $0x1,%al
    467a:	74 f4                	je     4670 <__powidf2@@GCC_4.0.0+0x20>
    467c:	f2 0f 59 c8          	mulsd  %xmm0,%xmm1
    4680:	d1 e8                	shr    %eax
    4682:	75 f0                	jne    4674 <__powidf2@@GCC_4.0.0+0x24>
    4684:	85 ff                	test   %edi,%edi
    4686:	79 10                	jns    4698 <__powidf2@@GCC_4.0.0+0x48>
    4688:	f2 0f 10 05 78 0b 01 	movsd  0x10b78(%rip),%xmm0        # 15208 <__emutls_register_common@@GCC_4.3.0+0x11f8>
    468f:	00 
    4690:	f2 0f 5e c1          	divsd  %xmm1,%xmm0
    4694:	66 0f 28 c8          	movapd %xmm0,%xmm1
    4698:	66 0f 28 c1          	movapd %xmm1,%xmm0
    469c:	c3                   	retq   
    469d:	0f 1f 00             	nopl   (%rax)

00000000000046a0 <__powixf2@@GCC_4.0.0>:
    46a0:	f3 0f 1e fa          	endbr64 
    46a4:	db 6c 24 08          	fldt   0x8(%rsp)
    46a8:	89 fa                	mov    %edi,%edx
    46aa:	c1 fa 1f             	sar    $0x1f,%edx
    46ad:	89 d0                	mov    %edx,%eax
    46af:	31 f8                	xor    %edi,%eax
    46b1:	d9 c0                	fld    %st(0)
    46b3:	29 d0                	sub    %edx,%eax
    46b5:	a8 01                	test   $0x1,%al
    46b7:	75 09                	jne    46c2 <__powixf2@@GCC_4.0.0+0x22>
    46b9:	dd d8                	fstp   %st(0)
    46bb:	d9 e8                	fld1   
    46bd:	eb 03                	jmp    46c2 <__powixf2@@GCC_4.0.0+0x22>
    46bf:	90                   	nop
    46c0:	d9 c9                	fxch   %st(1)
    46c2:	d1 e8                	shr    %eax
    46c4:	74 1a                	je     46e0 <__powixf2@@GCC_4.0.0+0x40>
    46c6:	d9 c9                	fxch   %st(1)
    46c8:	d8 c8                	fmul   %st(0),%st
    46ca:	a8 01                	test   $0x1,%al
    46cc:	74 f2                	je     46c0 <__powixf2@@GCC_4.0.0+0x20>
    46ce:	d1 e8                	shr    %eax
    46d0:	dc c9                	fmul   %st,%st(1)
    46d2:	75 f4                	jne    46c8 <__powixf2@@GCC_4.0.0+0x28>
    46d4:	dd d8                	fstp   %st(0)
    46d6:	eb 0a                	jmp    46e2 <__powixf2@@GCC_4.0.0+0x42>
    46d8:	0f 1f 84 00 00 00 00 	nopl   0x0(%rax,%rax,1)
    46df:	00 
    46e0:	dd d9                	fstp   %st(1)
    46e2:	85 ff                	test   %edi,%edi
    46e4:	79 04                	jns    46ea <__powixf2@@GCC_4.0.0+0x4a>
    46e6:	d9 e8                	fld1   
    46e8:	de f1                	fdivp  %st,%st(1)
    46ea:	c3                   	retq   
    46eb:	0f 1f 44 00 00       	nopl   0x0(%rax,%rax,1)

00000000000046f0 <__mulsc3@@GCC_4.0.0>:
    46f0:	f3 0f 1e fa          	endbr64 
    46f4:	0f 28 f8             	movaps %xmm0,%xmm7
    46f7:	44 0f 28 c9          	movaps %xmm1,%xmm9
    46fb:	44 0f 28 d0          	movaps %xmm0,%xmm10
    46ff:	f3 0f 59 fa          	mulss  %xmm2,%xmm7
    4703:	44 0f 28 da          	movaps %xmm2,%xmm11
    4707:	f3 44 0f 59 cb       	mulss  %xmm3,%xmm9
    470c:	f3 44 0f 59 d3       	mulss  %xmm3,%xmm10
    4711:	f3 44 0f 59 d9       	mulss  %xmm1,%xmm11
    4716:	0f 28 e7             	movaps %xmm7,%xmm4
    4719:	f3 41 0f 5c e1       	subss  %xmm9,%xmm4
    471e:	41 0f 28 ea          	movaps %xmm10,%xmm5
    4722:	f3 41 0f 58 eb       	addss  %xmm11,%xmm5
    4727:	0f 2e e4             	ucomiss %xmm4,%xmm4
    472a:	0f 9a c0             	setp   %al
    472d:	0f 2e ed             	ucomiss %xmm5,%xmm5
    4730:	0f 9a c2             	setp   %dl
    4733:	20 d0                	and    %dl,%al
    4735:	0f 84 b6 01 00 00    	je     48f1 <__mulsc3@@GCC_4.0.0+0x201>
    473b:	f3 0f 10 35 cd 0a 01 	movss  0x10acd(%rip),%xmm6        # 15210 <__emutls_register_common@@GCC_4.3.0+0x1200>
    4742:	00 
    4743:	44 0f 28 c0          	movaps %xmm0,%xmm8
    4747:	44 0f 28 e1          	movaps %xmm1,%xmm12
    474b:	44 0f 54 c6          	andps  %xmm6,%xmm8
    474f:	44 0f 2e 05 d9 0a 01 	ucomiss 0x10ad9(%rip),%xmm8        # 15230 <__emutls_register_common@@GCC_4.3.0+0x1220>
    4756:	00 
    4757:	44 0f 54 e6          	andps  %xmm6,%xmm12
    475b:	0f 97 c2             	seta   %dl
    475e:	44 0f 2e 05 ca 0a 01 	ucomiss 0x10aca(%rip),%xmm8        # 15230 <__emutls_register_common@@GCC_4.3.0+0x1220>
    4765:	00 
    4766:	0f 86 9c 01 00 00    	jbe    4908 <__mulsc3@@GCC_4.0.0+0x218>
    476c:	66 45 0f ef ed       	pxor   %xmm13,%xmm13
    4771:	44 0f 28 f0          	movaps %xmm0,%xmm14
    4775:	44 0f 28 f9          	movaps %xmm1,%xmm15
    4779:	0f b6 d2             	movzbl %dl,%edx
    477c:	f3 44 0f 10 05 9b 0a 	movss  0x10a9b(%rip),%xmm8        # 15220 <__emutls_register_common@@GCC_4.3.0+0x1210>
    4783:	01 00 
    4785:	f3 44 0f 2a ea       	cvtsi2ss %edx,%xmm13
    478a:	31 d2                	xor    %edx,%edx
    478c:	44 0f 2e 25 9c 0a 01 	ucomiss 0x10a9c(%rip),%xmm12        # 15230 <__emutls_register_common@@GCC_4.3.0+0x1220>
    4793:	00 
    4794:	45 0f 54 f0          	andps  %xmm8,%xmm14
    4798:	45 0f 54 f8          	andps  %xmm8,%xmm15
    479c:	66 45 0f ef e4       	pxor   %xmm12,%xmm12
    47a1:	0f 97 c2             	seta   %dl
    47a4:	0f 2e d2             	ucomiss %xmm2,%xmm2
    47a7:	44 0f 54 ee          	andps  %xmm6,%xmm13
    47ab:	f3 44 0f 2a e2       	cvtsi2ss %edx,%xmm12
    47b0:	45 0f 56 ee          	orps   %xmm14,%xmm13
    47b4:	41 0f 28 c5          	movaps %xmm13,%xmm0
    47b8:	44 0f 54 e6          	andps  %xmm6,%xmm12
    47bc:	45 0f 56 e7          	orps   %xmm15,%xmm12
    47c0:	41 0f 28 cc          	movaps %xmm12,%xmm1
    47c4:	0f 8a 86 01 00 00    	jp     4950 <__mulsc3@@GCC_4.0.0+0x260>
    47ca:	0f 2e db             	ucomiss %xmm3,%xmm3
    47cd:	0f 8a 8d 01 00 00    	jp     4960 <__mulsc3@@GCC_4.0.0+0x270>
    47d3:	44 0f 28 c2          	movaps %xmm2,%xmm8
    47d7:	44 0f 28 e3          	movaps %xmm3,%xmm12
    47db:	44 0f 54 c6          	andps  %xmm6,%xmm8
    47df:	44 0f 2e 05 49 0a 01 	ucomiss 0x10a49(%rip),%xmm8        # 15230 <__emutls_register_common@@GCC_4.3.0+0x1220>
    47e6:	00 
    47e7:	44 0f 54 e6          	andps  %xmm6,%xmm12
    47eb:	0f 97 c2             	seta   %dl
    47ee:	44 0f 2e 05 3a 0a 01 	ucomiss 0x10a3a(%rip),%xmm8        # 15230 <__emutls_register_common@@GCC_4.3.0+0x1220>
    47f5:	00 
    47f6:	77 78                	ja     4870 <__mulsc3@@GCC_4.0.0+0x180>
    47f8:	44 0f 2e 25 30 0a 01 	ucomiss 0x10a30(%rip),%xmm12        # 15230 <__emutls_register_common@@GCC_4.3.0+0x1220>
    47ff:	00 
    4800:	77 6e                	ja     4870 <__mulsc3@@GCC_4.0.0+0x180>
    4802:	84 c0                	test   %al,%al
    4804:	0f 85 b9 00 00 00    	jne    48c3 <__mulsc3@@GCC_4.0.0+0x1d3>
    480a:	0f 54 fe             	andps  %xmm6,%xmm7
    480d:	0f 2e 3d 1c 0a 01 00 	ucomiss 0x10a1c(%rip),%xmm7        # 15230 <__emutls_register_common@@GCC_4.3.0+0x1220>
    4814:	77 2a                	ja     4840 <__mulsc3@@GCC_4.0.0+0x150>
    4816:	44 0f 54 ce          	andps  %xmm6,%xmm9
    481a:	44 0f 2e 0d 0e 0a 01 	ucomiss 0x10a0e(%rip),%xmm9        # 15230 <__emutls_register_common@@GCC_4.3.0+0x1220>
    4821:	00 
    4822:	77 1c                	ja     4840 <__mulsc3@@GCC_4.0.0+0x150>
    4824:	44 0f 54 d6          	andps  %xmm6,%xmm10
    4828:	44 0f 2e 15 00 0a 01 	ucomiss 0x10a00(%rip),%xmm10        # 15230 <__emutls_register_common@@GCC_4.3.0+0x1220>
    482f:	00 
    4830:	0f 86 ea 00 00 00    	jbe    4920 <__mulsc3@@GCC_4.0.0+0x230>
    4836:	66 2e 0f 1f 84 00 00 	nopw   %cs:0x0(%rax,%rax,1)
    483d:	00 00 00 
    4840:	0f 2e c0             	ucomiss %xmm0,%xmm0
    4843:	0f 8a 47 01 00 00    	jp     4990 <__mulsc3@@GCC_4.0.0+0x2a0>
    4849:	0f 2e c9             	ucomiss %xmm1,%xmm1
    484c:	0f 8a 2e 01 00 00    	jp     4980 <__mulsc3@@GCC_4.0.0+0x290>
    4852:	0f 2e d2             	ucomiss %xmm2,%xmm2
    4855:	0f 8a 15 01 00 00    	jp     4970 <__mulsc3@@GCC_4.0.0+0x280>
    485b:	0f 2e db             	ucomiss %xmm3,%xmm3
    485e:	7b 63                	jnp    48c3 <__mulsc3@@GCC_4.0.0+0x1d3>
    4860:	0f 54 1d b9 09 01 00 	andps  0x109b9(%rip),%xmm3        # 15220 <__emutls_register_common@@GCC_4.3.0+0x1210>
    4867:	eb 5a                	jmp    48c3 <__mulsc3@@GCC_4.0.0+0x1d3>
    4869:	0f 1f 80 00 00 00 00 	nopl   0x0(%rax)
    4870:	0f b6 d2             	movzbl %dl,%edx
    4873:	66 0f ef e4          	pxor   %xmm4,%xmm4
    4877:	0f 28 fa             	movaps %xmm2,%xmm7
    487a:	31 c0                	xor    %eax,%eax
    487c:	f3 0f 2a e2          	cvtsi2ss %edx,%xmm4
    4880:	44 0f 2e 25 a8 09 01 	ucomiss 0x109a8(%rip),%xmm12        # 15230 <__emutls_register_common@@GCC_4.3.0+0x1220>
    4887:	00 
    4888:	f3 44 0f 10 05 8f 09 	movss  0x1098f(%rip),%xmm8        # 15220 <__emutls_register_common@@GCC_4.3.0+0x1210>
    488f:	01 00 
    4891:	41 0f 54 f8          	andps  %xmm8,%xmm7
    4895:	0f 97 c0             	seta   %al
    4898:	0f 2e c0             	ucomiss %xmm0,%xmm0
    489b:	0f 54 e6             	andps  %xmm6,%xmm4
    489e:	0f 56 e7             	orps   %xmm7,%xmm4
    48a1:	0f 28 fb             	movaps %xmm3,%xmm7
    48a4:	0f 28 d4             	movaps %xmm4,%xmm2
    48a7:	66 0f ef e4          	pxor   %xmm4,%xmm4
    48ab:	41 0f 54 f8          	andps  %xmm8,%xmm7
    48af:	f3 0f 2a e0          	cvtsi2ss %eax,%xmm4
    48b3:	0f 54 e6             	andps  %xmm6,%xmm4
    48b6:	0f 56 e7             	orps   %xmm7,%xmm4
    48b9:	0f 28 dc             	movaps %xmm4,%xmm3
    48bc:	7a 7a                	jp     4938 <__mulsc3@@GCC_4.0.0+0x248>
    48be:	0f 2e c9             	ucomiss %xmm1,%xmm1
    48c1:	7a 7d                	jp     4940 <__mulsc3@@GCC_4.0.0+0x250>
    48c3:	0f 28 e0             	movaps %xmm0,%xmm4
    48c6:	0f 28 e9             	movaps %xmm1,%xmm5
    48c9:	f3 0f 59 eb          	mulss  %xmm3,%xmm5
    48cd:	f3 0f 59 e2          	mulss  %xmm2,%xmm4
    48d1:	f3 0f 59 c3          	mulss  %xmm3,%xmm0
    48d5:	f3 0f 59 ca          	mulss  %xmm2,%xmm1
    48d9:	f3 0f 5c e5          	subss  %xmm5,%xmm4
    48dd:	f3 0f 10 2d 4f 09 01 	movss  0x1094f(%rip),%xmm5        # 15234 <__emutls_register_common@@GCC_4.3.0+0x1224>
    48e4:	00 
    48e5:	f3 0f 58 c1          	addss  %xmm1,%xmm0
    48e9:	f3 0f 59 e5          	mulss  %xmm5,%xmm4
    48ed:	f3 0f 59 e8          	mulss  %xmm0,%xmm5
    48f1:	f3 0f 11 64 24 f8    	movss  %xmm4,-0x8(%rsp)
    48f7:	f3 0f 11 6c 24 fc    	movss  %xmm5,-0x4(%rsp)
    48fd:	f3 0f 7e 44 24 f8    	movq   -0x8(%rsp),%xmm0
    4903:	c3                   	retq   
    4904:	0f 1f 40 00          	nopl   0x0(%rax)
    4908:	44 0f 2e 25 20 09 01 	ucomiss 0x10920(%rip),%xmm12        # 15230 <__emutls_register_common@@GCC_4.3.0+0x1220>
    490f:	00 
    4910:	0f 87 56 fe ff ff    	ja     476c <__mulsc3@@GCC_4.0.0+0x7c>
    4916:	31 c0                	xor    %eax,%eax
    4918:	e9 b6 fe ff ff       	jmpq   47d3 <__mulsc3@@GCC_4.0.0+0xe3>
    491d:	0f 1f 00             	nopl   (%rax)
    4920:	41 0f 54 f3          	andps  %xmm11,%xmm6
    4924:	0f 2e 35 05 09 01 00 	ucomiss 0x10905(%rip),%xmm6        # 15230 <__emutls_register_common@@GCC_4.3.0+0x1220>
    492b:	76 c4                	jbe    48f1 <__mulsc3@@GCC_4.0.0+0x201>
    492d:	e9 0e ff ff ff       	jmpq   4840 <__mulsc3@@GCC_4.0.0+0x150>
    4932:	66 0f 1f 44 00 00    	nopw   0x0(%rax,%rax,1)
    4938:	41 0f 54 c0          	andps  %xmm8,%xmm0
    493c:	eb 80                	jmp    48be <__mulsc3@@GCC_4.0.0+0x1ce>
    493e:	66 90                	xchg   %ax,%ax
    4940:	41 0f 54 c8          	andps  %xmm8,%xmm1
    4944:	e9 7a ff ff ff       	jmpq   48c3 <__mulsc3@@GCC_4.0.0+0x1d3>
    4949:	0f 1f 80 00 00 00 00 	nopl   0x0(%rax)
    4950:	41 0f 54 d0          	andps  %xmm8,%xmm2
    4954:	e9 71 fe ff ff       	jmpq   47ca <__mulsc3@@GCC_4.0.0+0xda>
    4959:	0f 1f 80 00 00 00 00 	nopl   0x0(%rax)
    4960:	41 0f 54 d8          	andps  %xmm8,%xmm3
    4964:	e9 6a fe ff ff       	jmpq   47d3 <__mulsc3@@GCC_4.0.0+0xe3>
    4969:	0f 1f 80 00 00 00 00 	nopl   0x0(%rax)
    4970:	0f 54 15 a9 08 01 00 	andps  0x108a9(%rip),%xmm2        # 15220 <__emutls_register_common@@GCC_4.3.0+0x1210>
    4977:	e9 df fe ff ff       	jmpq   485b <__mulsc3@@GCC_4.0.0+0x16b>
    497c:	0f 1f 40 00          	nopl   0x0(%rax)
    4980:	0f 54 0d 99 08 01 00 	andps  0x10899(%rip),%xmm1        # 15220 <__emutls_register_common@@GCC_4.3.0+0x1210>
    4987:	e9 c6 fe ff ff       	jmpq   4852 <__mulsc3@@GCC_4.0.0+0x162>
    498c:	0f 1f 40 00          	nopl   0x0(%rax)
    4990:	0f 54 05 89 08 01 00 	andps  0x10889(%rip),%xmm0        # 15220 <__emutls_register_common@@GCC_4.3.0+0x1210>
    4997:	e9 ad fe ff ff       	jmpq   4849 <__mulsc3@@GCC_4.0.0+0x159>
    499c:	0f 1f 40 00          	nopl   0x0(%rax)

00000000000049a0 <__muldc3@@GCC_4.0.0>:
    49a0:	f3 0f 1e fa          	endbr64 
    49a4:	66 0f 28 f8          	movapd %xmm0,%xmm7
    49a8:	66 44 0f 28 d1       	movapd %xmm1,%xmm10
    49ad:	66 44 0f 28 d8       	movapd %xmm0,%xmm11
    49b2:	f2 0f 59 fa          	mulsd  %xmm2,%xmm7
    49b6:	66 44 0f 28 e2       	movapd %xmm2,%xmm12
    49bb:	66 0f 28 e1          	movapd %xmm1,%xmm4
    49bf:	f2 44 0f 59 d3       	mulsd  %xmm3,%xmm10
    49c4:	f2 44 0f 59 db       	mulsd  %xmm3,%xmm11
    49c9:	f2 44 0f 59 e1       	mulsd  %xmm1,%xmm12
    49ce:	66 0f 28 ef          	movapd %xmm7,%xmm5
    49d2:	f2 41 0f 5c ea       	subsd  %xmm10,%xmm5
    49d7:	66 41 0f 28 cb       	movapd %xmm11,%xmm1
    49dc:	f2 41 0f 58 cc       	addsd  %xmm12,%xmm1
    49e1:	66 0f 2e ed          	ucomisd %xmm5,%xmm5
    49e5:	0f 9a c0             	setp   %al
    49e8:	66 0f 2e c9          	ucomisd %xmm1,%xmm1
    49ec:	0f 9a c2             	setp   %dl
    49ef:	20 d0                	and    %dl,%al
    49f1:	0f 84 d9 01 00 00    	je     4bd0 <__muldc3@@GCC_4.0.0+0x230>
    49f7:	f3 0f 7e 35 41 08 01 	movq   0x10841(%rip),%xmm6        # 15240 <__emutls_register_common@@GCC_4.3.0+0x1230>
    49fe:	00 
    49ff:	66 44 0f 28 c8       	movapd %xmm0,%xmm9
    4a04:	66 44 0f 28 ec       	movapd %xmm4,%xmm13
    4a09:	f2 44 0f 10 05 4e 08 	movsd  0x1084e(%rip),%xmm8        # 15260 <__emutls_register_common@@GCC_4.3.0+0x1250>
    4a10:	01 00 
    4a12:	66 44 0f 54 ce       	andpd  %xmm6,%xmm9
    4a17:	66 44 0f 54 ee       	andpd  %xmm6,%xmm13
    4a1c:	66 44 0f 2e 0d 3b 08 	ucomisd 0x1083b(%rip),%xmm9        # 15260 <__emutls_register_common@@GCC_4.3.0+0x1250>
    4a23:	01 00 
    4a25:	0f 97 c2             	seta   %dl
    4a28:	66 45 0f 2e c8       	ucomisd %xmm8,%xmm9
    4a2d:	0f 86 a5 01 00 00    	jbe    4bd8 <__muldc3@@GCC_4.0.0+0x238>
    4a33:	0f b6 d2             	movzbl %dl,%edx
    4a36:	66 45 0f ef f6       	pxor   %xmm14,%xmm14
    4a3b:	66 44 0f 28 f8       	movapd %xmm0,%xmm15
    4a40:	f3 44 0f 7e 0d 07 08 	movq   0x10807(%rip),%xmm9        # 15250 <__emutls_register_common@@GCC_4.3.0+0x1240>
    4a47:	01 00 
    4a49:	f2 44 0f 2a f2       	cvtsi2sd %edx,%xmm14
    4a4e:	31 d2                	xor    %edx,%edx
    4a50:	66 44 0f 2e 2d 07 08 	ucomisd 0x10807(%rip),%xmm13        # 15260 <__emutls_register_common@@GCC_4.3.0+0x1250>
    4a57:	01 00 
    4a59:	66 45 0f ef ed       	pxor   %xmm13,%xmm13
    4a5e:	66 45 0f 54 f9       	andpd  %xmm9,%xmm15
    4a63:	0f 97 c2             	seta   %dl
    4a66:	66 0f 2e d2          	ucomisd %xmm2,%xmm2
    4a6a:	66 44 0f 54 f6       	andpd  %xmm6,%xmm14
    4a6f:	f2 44 0f 2a ea       	cvtsi2sd %edx,%xmm13
    4a74:	66 45 0f 56 f7       	orpd   %xmm15,%xmm14
    4a79:	66 41 0f 28 c6       	movapd %xmm14,%xmm0
    4a7e:	66 44 0f 28 f4       	movapd %xmm4,%xmm14
    4a83:	66 45 0f 54 f1       	andpd  %xmm9,%xmm14
    4a88:	66 44 0f 54 ee       	andpd  %xmm6,%xmm13
    4a8d:	66 45 0f 56 ee       	orpd   %xmm14,%xmm13
    4a92:	66 41 0f 28 e5       	movapd %xmm13,%xmm4
    4a97:	0f 8a 83 01 00 00    	jp     4c20 <__muldc3@@GCC_4.0.0+0x280>
    4a9d:	66 0f 2e db          	ucomisd %xmm3,%xmm3
    4aa1:	0f 8a 89 01 00 00    	jp     4c30 <__muldc3@@GCC_4.0.0+0x290>
    4aa7:	66 44 0f 28 ca       	movapd %xmm2,%xmm9
    4aac:	66 44 0f 28 eb       	movapd %xmm3,%xmm13
    4ab1:	66 44 0f 54 ce       	andpd  %xmm6,%xmm9
    4ab6:	66 44 0f 54 ee       	andpd  %xmm6,%xmm13
    4abb:	66 44 0f 2e 0d 9c 07 	ucomisd 0x1079c(%rip),%xmm9        # 15260 <__emutls_register_common@@GCC_4.3.0+0x1250>
    4ac2:	01 00 
    4ac4:	0f 97 c2             	seta   %dl
    4ac7:	66 45 0f 2e c8       	ucomisd %xmm8,%xmm9
    4acc:	77 72                	ja     4b40 <__muldc3@@GCC_4.0.0+0x1a0>
    4ace:	66 45 0f 2e e8       	ucomisd %xmm8,%xmm13
    4ad3:	77 6b                	ja     4b40 <__muldc3@@GCC_4.0.0+0x1a0>
    4ad5:	84 c0                	test   %al,%al
    4ad7:	0f 85 c3 00 00 00    	jne    4ba0 <__muldc3@@GCC_4.0.0+0x200>
    4add:	66 0f 54 fe          	andpd  %xmm6,%xmm7
    4ae1:	66 41 0f 2e f8       	ucomisd %xmm8,%xmm7
    4ae6:	77 20                	ja     4b08 <__muldc3@@GCC_4.0.0+0x168>
    4ae8:	66 44 0f 54 d6       	andpd  %xmm6,%xmm10
    4aed:	66 45 0f 2e d0       	ucomisd %xmm8,%xmm10
    4af2:	77 14                	ja     4b08 <__muldc3@@GCC_4.0.0+0x168>
    4af4:	66 44 0f 54 de       	andpd  %xmm6,%xmm11
    4af9:	66 45 0f 2e d8       	ucomisd %xmm8,%xmm11
    4afe:	0f 86 ec 00 00 00    	jbe    4bf0 <__muldc3@@GCC_4.0.0+0x250>
    4b04:	0f 1f 40 00          	nopl   0x0(%rax)
    4b08:	66 0f 2e c0          	ucomisd %xmm0,%xmm0
    4b0c:	0f 8a 4e 01 00 00    	jp     4c60 <__muldc3@@GCC_4.0.0+0x2c0>
    4b12:	66 0f 2e e4          	ucomisd %xmm4,%xmm4
    4b16:	0f 8a 34 01 00 00    	jp     4c50 <__muldc3@@GCC_4.0.0+0x2b0>
    4b1c:	66 0f 2e d2          	ucomisd %xmm2,%xmm2
    4b20:	0f 8a 1a 01 00 00    	jp     4c40 <__muldc3@@GCC_4.0.0+0x2a0>
    4b26:	66 0f 2e db          	ucomisd %xmm3,%xmm3
    4b2a:	7b 74                	jnp    4ba0 <__muldc3@@GCC_4.0.0+0x200>
    4b2c:	66 0f 54 1d 1c 07 01 	andpd  0x1071c(%rip),%xmm3        # 15250 <__emutls_register_common@@GCC_4.3.0+0x1240>
    4b33:	00 
    4b34:	eb 6a                	jmp    4ba0 <__muldc3@@GCC_4.0.0+0x200>
    4b36:	66 2e 0f 1f 84 00 00 	nopw   %cs:0x0(%rax,%rax,1)
    4b3d:	00 00 00 
    4b40:	0f b6 d2             	movzbl %dl,%edx
    4b43:	66 0f ef c9          	pxor   %xmm1,%xmm1
    4b47:	66 0f 28 fa          	movapd %xmm2,%xmm7
    4b4b:	31 c0                	xor    %eax,%eax
    4b4d:	f2 0f 2a ca          	cvtsi2sd %edx,%xmm1
    4b51:	66 0f 28 eb          	movapd %xmm3,%xmm5
    4b55:	f3 44 0f 7e 0d f2 06 	movq   0x106f2(%rip),%xmm9        # 15250 <__emutls_register_common@@GCC_4.3.0+0x1240>
    4b5c:	01 00 
    4b5e:	66 44 0f 2e 2d f9 06 	ucomisd 0x106f9(%rip),%xmm13        # 15260 <__emutls_register_common@@GCC_4.3.0+0x1250>
    4b65:	01 00 
    4b67:	66 41 0f 54 f9       	andpd  %xmm9,%xmm7
    4b6c:	66 41 0f 54 e9       	andpd  %xmm9,%xmm5
    4b71:	66 0f 54 ce          	andpd  %xmm6,%xmm1
    4b75:	0f 97 c0             	seta   %al
    4b78:	66 0f 56 cf          	orpd   %xmm7,%xmm1
    4b7c:	66 0f 2e c0          	ucomisd %xmm0,%xmm0
    4b80:	66 0f 28 d1          	movapd %xmm1,%xmm2
    4b84:	66 0f ef c9          	pxor   %xmm1,%xmm1
    4b88:	f2 0f 2a c8          	cvtsi2sd %eax,%xmm1
    4b8c:	66 0f 54 ce          	andpd  %xmm6,%xmm1
    4b90:	66 0f 56 cd          	orpd   %xmm5,%xmm1
    4b94:	66 0f 28 d9          	movapd %xmm1,%xmm3
    4b98:	7a 6e                	jp     4c08 <__muldc3@@GCC_4.0.0+0x268>
    4b9a:	66 0f 2e e4          	ucomisd %xmm4,%xmm4
    4b9e:	7a 70                	jp     4c10 <__muldc3@@GCC_4.0.0+0x270>
    4ba0:	66 0f 28 e8          	movapd %xmm0,%xmm5
    4ba4:	66 0f 28 cc          	movapd %xmm4,%xmm1
    4ba8:	f2 0f 59 ea          	mulsd  %xmm2,%xmm5
    4bac:	f2 0f 59 cb          	mulsd  %xmm3,%xmm1
    4bb0:	f2 0f 59 c3          	mulsd  %xmm3,%xmm0
    4bb4:	f2 0f 59 d4          	mulsd  %xmm4,%xmm2
    4bb8:	f2 0f 5c e9          	subsd  %xmm1,%xmm5
    4bbc:	f2 0f 10 0d a4 06 01 	movsd  0x106a4(%rip),%xmm1        # 15268 <__emutls_register_common@@GCC_4.3.0+0x1258>
    4bc3:	00 
    4bc4:	f2 0f 58 c2          	addsd  %xmm2,%xmm0
    4bc8:	f2 0f 59 e9          	mulsd  %xmm1,%xmm5
    4bcc:	f2 0f 59 c8          	mulsd  %xmm0,%xmm1
    4bd0:	66 0f 28 c5          	movapd %xmm5,%xmm0
    4bd4:	c3                   	retq   
    4bd5:	0f 1f 00             	nopl   (%rax)
    4bd8:	66 45 0f 2e e8       	ucomisd %xmm8,%xmm13
    4bdd:	0f 87 50 fe ff ff    	ja     4a33 <__muldc3@@GCC_4.0.0+0x93>
    4be3:	31 c0                	xor    %eax,%eax
    4be5:	e9 bd fe ff ff       	jmpq   4aa7 <__muldc3@@GCC_4.0.0+0x107>
    4bea:	66 0f 1f 44 00 00    	nopw   0x0(%rax,%rax,1)
    4bf0:	66 41 0f 54 f4       	andpd  %xmm12,%xmm6
    4bf5:	66 41 0f 2e f0       	ucomisd %xmm8,%xmm6
    4bfa:	76 d4                	jbe    4bd0 <__muldc3@@GCC_4.0.0+0x230>
    4bfc:	e9 07 ff ff ff       	jmpq   4b08 <__muldc3@@GCC_4.0.0+0x168>
    4c01:	0f 1f 80 00 00 00 00 	nopl   0x0(%rax)
    4c08:	66 41 0f 54 c1       	andpd  %xmm9,%xmm0
    4c0d:	eb 8b                	jmp    4b9a <__muldc3@@GCC_4.0.0+0x1fa>
    4c0f:	90                   	nop
    4c10:	66 41 0f 54 e1       	andpd  %xmm9,%xmm4
    4c15:	eb 89                	jmp    4ba0 <__muldc3@@GCC_4.0.0+0x200>
    4c17:	66 0f 1f 84 00 00 00 	nopw   0x0(%rax,%rax,1)
    4c1e:	00 00 
    4c20:	66 41 0f 54 d1       	andpd  %xmm9,%xmm2
    4c25:	e9 73 fe ff ff       	jmpq   4a9d <__muldc3@@GCC_4.0.0+0xfd>
    4c2a:	66 0f 1f 44 00 00    	nopw   0x0(%rax,%rax,1)
    4c30:	66 41 0f 54 d9       	andpd  %xmm9,%xmm3
    4c35:	e9 6d fe ff ff       	jmpq   4aa7 <__muldc3@@GCC_4.0.0+0x107>
    4c3a:	66 0f 1f 44 00 00    	nopw   0x0(%rax,%rax,1)
    4c40:	66 0f 54 15 08 06 01 	andpd  0x10608(%rip),%xmm2        # 15250 <__emutls_register_common@@GCC_4.3.0+0x1240>
    4c47:	00 
    4c48:	e9 d9 fe ff ff       	jmpq   4b26 <__muldc3@@GCC_4.0.0+0x186>
    4c4d:	0f 1f 00             	nopl   (%rax)
    4c50:	66 0f 54 25 f8 05 01 	andpd  0x105f8(%rip),%xmm4        # 15250 <__emutls_register_common@@GCC_4.3.0+0x1240>
    4c57:	00 
    4c58:	e9 bf fe ff ff       	jmpq   4b1c <__muldc3@@GCC_4.0.0+0x17c>
    4c5d:	0f 1f 00             	nopl   (%rax)
    4c60:	66 0f 54 05 e8 05 01 	andpd  0x105e8(%rip),%xmm0        # 15250 <__emutls_register_common@@GCC_4.3.0+0x1240>
    4c67:	00 
    4c68:	e9 a5 fe ff ff       	jmpq   4b12 <__muldc3@@GCC_4.0.0+0x172>
    4c6d:	0f 1f 00             	nopl   (%rax)

0000000000004c70 <__mulxc3@@GCC_4.0.0>:
    4c70:	f3 0f 1e fa          	endbr64 
    4c74:	db 6c 24 08          	fldt   0x8(%rsp)
    4c78:	db 6c 24 18          	fldt   0x18(%rsp)
    4c7c:	db 6c 24 28          	fldt   0x28(%rsp)
    4c80:	db 6c 24 38          	fldt   0x38(%rsp)
    4c84:	d9 c3                	fld    %st(3)
    4c86:	d8 ca                	fmul   %st(2),%st
    4c88:	d9 c0                	fld    %st(0)
    4c8a:	db 7c 24 a8          	fstpt  -0x58(%rsp)
    4c8e:	d9 c3                	fld    %st(3)
    4c90:	d8 ca                	fmul   %st(2),%st
    4c92:	d9 c0                	fld    %st(0)
    4c94:	db 7c 24 b8          	fstpt  -0x48(%rsp)
    4c98:	d9 c5                	fld    %st(5)
    4c9a:	d8 cb                	fmul   %st(3),%st
    4c9c:	d9 c0                	fld    %st(0)
    4c9e:	db 7c 24 c8          	fstpt  -0x38(%rsp)
    4ca2:	d9 c4                	fld    %st(4)
    4ca4:	d8 ce                	fmul   %st(6),%st
    4ca6:	db 7c 24 d8          	fstpt  -0x28(%rsp)
    4caa:	db 6c 24 d8          	fldt   -0x28(%rsp)
    4cae:	d9 cb                	fxch   %st(3)
    4cb0:	de e2                	fsubp  %st,%st(2)
    4cb2:	d9 c9                	fxch   %st(1)
    4cb4:	d9 c0                	fld    %st(0)
    4cb6:	db 7c 24 98          	fstpt  -0x68(%rsp)
    4cba:	d9 c9                	fxch   %st(1)
    4cbc:	de c2                	faddp  %st,%st(2)
    4cbe:	df e8                	fucomip %st(0),%st
    4cc0:	0f 9a c0             	setp   %al
    4cc3:	db e8                	fucomi %st(0),%st
    4cc5:	0f 9a c2             	setp   %dl
    4cc8:	20 c2                	and    %al,%dl
    4cca:	0f 84 70 02 00 00    	je     4f40 <__mulxc3@@GCC_4.0.0+0x2d0>
    4cd0:	d9 c4                	fld    %st(4)
    4cd2:	d9 e1                	fabs   
    4cd4:	db 2d 96 05 01 00    	fldt   0x10596(%rip)        # 15270 <__emutls_register_common@@GCC_4.3.0+0x1260>
    4cda:	d9 c9                	fxch   %st(1)
    4cdc:	db e9                	fucomi %st(1),%st
    4cde:	d9 c5                	fld    %st(5)
    4ce0:	0f 97 c0             	seta   %al
    4ce3:	d9 e1                	fabs   
    4ce5:	d9 c9                	fxch   %st(1)
    4ce7:	df ea                	fucomip %st(2),%st
    4ce9:	77 15                	ja     4d00 <__mulxc3@@GCC_4.0.0+0x90>
    4ceb:	db e9                	fucomi %st(1),%st
    4ced:	dd d9                	fstp   %st(1)
    4cef:	0f 86 8b 02 00 00    	jbe    4f80 <__mulxc3@@GCC_4.0.0+0x310>
    4cf5:	eb 0b                	jmp    4d02 <__mulxc3@@GCC_4.0.0+0x92>
    4cf7:	66 0f 1f 84 00 00 00 	nopw   0x0(%rax,%rax,1)
    4cfe:	00 00 
    4d00:	dd d9                	fstp   %st(1)
    4d02:	0f b6 c0             	movzbl %al,%eax
    4d05:	89 44 24 e8          	mov    %eax,-0x18(%rsp)
    4d09:	db 44 24 e8          	fildl  -0x18(%rsp)
    4d0d:	d9 ce                	fxch   %st(6)
    4d0f:	d9 e5                	fxam   
    4d11:	df e0                	fnstsw %ax
    4d13:	dd d8                	fstp   %st(0)
    4d15:	d9 cd                	fxch   %st(5)
    4d17:	d9 e1                	fabs   
    4d19:	f6 c4 02             	test   $0x2,%ah
    4d1c:	0f 85 4e 02 00 00    	jne    4f70 <__mulxc3@@GCC_4.0.0+0x300>
    4d22:	db 2d 48 05 01 00    	fldt   0x10548(%rip)        # 15270 <__emutls_register_common@@GCC_4.3.0+0x1260>
    4d28:	d9 ce                	fxch   %st(6)
    4d2a:	31 c0                	xor    %eax,%eax
    4d2c:	df ee                	fucomip %st(6),%st
    4d2e:	dd dd                	fstp   %st(5)
    4d30:	0f 97 c0             	seta   %al
    4d33:	89 44 24 e8          	mov    %eax,-0x18(%rsp)
    4d37:	db 44 24 e8          	fildl  -0x18(%rsp)
    4d3b:	d9 cc                	fxch   %st(4)
    4d3d:	d9 e5                	fxam   
    4d3f:	df e0                	fnstsw %ax
    4d41:	dd d8                	fstp   %st(0)
    4d43:	d9 cb                	fxch   %st(3)
    4d45:	d9 e1                	fabs   
    4d47:	f6 c4 02             	test   $0x2,%ah
    4d4a:	0f 85 10 02 00 00    	jne    4f60 <__mulxc3@@GCC_4.0.0+0x2f0>
    4d50:	d9 ca                	fxch   %st(2)
    4d52:	db e8                	fucomi %st(0),%st
    4d54:	0f 8a 96 02 00 00    	jp     4ff0 <__mulxc3@@GCC_4.0.0+0x380>
    4d5a:	d9 c9                	fxch   %st(1)
    4d5c:	db e8                	fucomi %st(0),%st
    4d5e:	0f 8a ac 02 00 00    	jp     5010 <__mulxc3@@GCC_4.0.0+0x3a0>
    4d64:	d9 c1                	fld    %st(1)
    4d66:	d9 e1                	fabs   
    4d68:	db 2d 02 05 01 00    	fldt   0x10502(%rip)        # 15270 <__emutls_register_common@@GCC_4.3.0+0x1260>
    4d6e:	d9 c9                	fxch   %st(1)
    4d70:	db e9                	fucomi %st(1),%st
    4d72:	d9 c2                	fld    %st(2)
    4d74:	0f 97 c0             	seta   %al
    4d77:	d9 e1                	fabs   
    4d79:	db 7c 24 e8          	fstpt  -0x18(%rsp)
    4d7d:	db 6c 24 e8          	fldt   -0x18(%rsp)
    4d81:	d9 c9                	fxch   %st(1)
    4d83:	df ea                	fucomip %st(2),%st
    4d85:	0f 87 cd 00 00 00    	ja     4e58 <__mulxc3@@GCC_4.0.0+0x1e8>
    4d8b:	df e9                	fucomip %st(1),%st
    4d8d:	0f 87 d5 00 00 00    	ja     4e68 <__mulxc3@@GCC_4.0.0+0x1f8>
    4d93:	84 d2                	test   %dl,%dl
    4d95:	0f 85 4d 01 00 00    	jne    4ee8 <__mulxc3@@GCC_4.0.0+0x278>
    4d9b:	db 6c 24 a8          	fldt   -0x58(%rsp)
    4d9f:	d9 e1                	fabs   
    4da1:	df e9                	fucomip %st(1),%st
    4da3:	77 2b                	ja     4dd0 <__mulxc3@@GCC_4.0.0+0x160>
    4da5:	db 6c 24 b8          	fldt   -0x48(%rsp)
    4da9:	d9 e1                	fabs   
    4dab:	df e9                	fucomip %st(1),%st
    4dad:	77 31                	ja     4de0 <__mulxc3@@GCC_4.0.0+0x170>
    4daf:	db 6c 24 c8          	fldt   -0x38(%rsp)
    4db3:	d9 e1                	fabs   
    4db5:	df e9                	fucomip %st(1),%st
    4db7:	0f 86 d3 01 00 00    	jbe    4f90 <__mulxc3@@GCC_4.0.0+0x320>
    4dbd:	dd d8                	fstp   %st(0)
    4dbf:	dd db                	fstp   %st(3)
    4dc1:	d9 c9                	fxch   %st(1)
    4dc3:	d9 ca                	fxch   %st(2)
    4dc5:	d9 cb                	fxch   %st(3)
    4dc7:	eb 21                	jmp    4dea <__mulxc3@@GCC_4.0.0+0x17a>
    4dc9:	0f 1f 80 00 00 00 00 	nopl   0x0(%rax)
    4dd0:	dd d8                	fstp   %st(0)
    4dd2:	dd db                	fstp   %st(3)
    4dd4:	d9 c9                	fxch   %st(1)
    4dd6:	d9 ca                	fxch   %st(2)
    4dd8:	d9 cb                	fxch   %st(3)
    4dda:	eb 0e                	jmp    4dea <__mulxc3@@GCC_4.0.0+0x17a>
    4ddc:	0f 1f 40 00          	nopl   0x0(%rax)
    4de0:	dd d8                	fstp   %st(0)
    4de2:	dd db                	fstp   %st(3)
    4de4:	d9 c9                	fxch   %st(1)
    4de6:	d9 ca                	fxch   %st(2)
    4de8:	d9 cb                	fxch   %st(3)
    4dea:	db e8                	fucomi %st(0),%st
    4dec:	0f 8a 7e 02 00 00    	jp     5070 <__mulxc3@@GCC_4.0.0+0x400>
    4df2:	d9 ca                	fxch   %st(2)
    4df4:	eb 12                	jmp    4e08 <__mulxc3@@GCC_4.0.0+0x198>
    4df6:	66 2e 0f 1f 84 00 00 	nopw   %cs:0x0(%rax,%rax,1)
    4dfd:	00 00 00 
    4e00:	d9 ca                	fxch   %st(2)
    4e02:	66 0f 1f 44 00 00    	nopw   0x0(%rax,%rax,1)
    4e08:	db e8                	fucomi %st(0),%st
    4e0a:	0f 8a 40 02 00 00    	jp     5050 <__mulxc3@@GCC_4.0.0+0x3e0>
    4e10:	d9 c9                	fxch   %st(1)
    4e12:	eb 0c                	jmp    4e20 <__mulxc3@@GCC_4.0.0+0x1b0>
    4e14:	0f 1f 40 00          	nopl   0x0(%rax)
    4e18:	d9 c9                	fxch   %st(1)
    4e1a:	66 0f 1f 44 00 00    	nopw   0x0(%rax,%rax,1)
    4e20:	db e8                	fucomi %st(0),%st
    4e22:	0f 8a 08 02 00 00    	jp     5030 <__mulxc3@@GCC_4.0.0+0x3c0>
    4e28:	d9 cb                	fxch   %st(3)
    4e2a:	db e8                	fucomi %st(0),%st
    4e2c:	0f 8b ce 00 00 00    	jnp    4f00 <__mulxc3@@GCC_4.0.0+0x290>
    4e32:	d9 e5                	fxam   
    4e34:	df e0                	fnstsw %ax
    4e36:	dd d8                	fstp   %st(0)
    4e38:	d9 ee                	fldz   
    4e3a:	f6 c4 02             	test   $0x2,%ah
    4e3d:	0f 84 cd 00 00 00    	je     4f10 <__mulxc3@@GCC_4.0.0+0x2a0>
    4e43:	dd d8                	fstp   %st(0)
    4e45:	d9 ee                	fldz   
    4e47:	d9 e0                	fchs   
    4e49:	d9 cb                	fxch   %st(3)
    4e4b:	d9 c9                	fxch   %st(1)
    4e4d:	e9 c6 00 00 00       	jmpq   4f18 <__mulxc3@@GCC_4.0.0+0x2a8>
    4e52:	66 0f 1f 44 00 00    	nopw   0x0(%rax,%rax,1)
    4e58:	dd d8                	fstp   %st(0)
    4e5a:	dd d8                	fstp   %st(0)
    4e5c:	dd db                	fstp   %st(3)
    4e5e:	d9 c9                	fxch   %st(1)
    4e60:	d9 ca                	fxch   %st(2)
    4e62:	eb 0c                	jmp    4e70 <__mulxc3@@GCC_4.0.0+0x200>
    4e64:	0f 1f 40 00          	nopl   0x0(%rax)
    4e68:	dd d8                	fstp   %st(0)
    4e6a:	dd db                	fstp   %st(3)
    4e6c:	d9 c9                	fxch   %st(1)
    4e6e:	d9 ca                	fxch   %st(2)
    4e70:	0f b6 c0             	movzbl %al,%eax
    4e73:	89 44 24 98          	mov    %eax,-0x68(%rsp)
    4e77:	db 44 24 98          	fildl  -0x68(%rsp)
    4e7b:	d9 ca                	fxch   %st(2)
    4e7d:	d9 e5                	fxam   
    4e7f:	df e0                	fnstsw %ax
    4e81:	dd d8                	fstp   %st(0)
    4e83:	d9 c9                	fxch   %st(1)
    4e85:	d9 e1                	fabs   
    4e87:	f6 c4 02             	test   $0x2,%ah
    4e8a:	74 02                	je     4e8e <__mulxc3@@GCC_4.0.0+0x21e>
    4e8c:	d9 e0                	fchs   
    4e8e:	31 c0                	xor    %eax,%eax
    4e90:	db 2d da 03 01 00    	fldt   0x103da(%rip)        # 15270 <__emutls_register_common@@GCC_4.3.0+0x1260>
    4e96:	db 6c 24 e8          	fldt   -0x18(%rsp)
    4e9a:	df e9                	fucomip %st(1),%st
    4e9c:	dd d8                	fstp   %st(0)
    4e9e:	0f 97 c0             	seta   %al
    4ea1:	89 44 24 98          	mov    %eax,-0x68(%rsp)
    4ea5:	db 44 24 98          	fildl  -0x68(%rsp)
    4ea9:	d9 ca                	fxch   %st(2)
    4eab:	d9 e5                	fxam   
    4ead:	df e0                	fnstsw %ax
    4eaf:	dd d8                	fstp   %st(0)
    4eb1:	d9 c9                	fxch   %st(1)
    4eb3:	d9 e1                	fabs   
    4eb5:	f6 c4 02             	test   $0x2,%ah
    4eb8:	74 06                	je     4ec0 <__mulxc3@@GCC_4.0.0+0x250>
    4eba:	d9 e0                	fchs   
    4ebc:	d9 cb                	fxch   %st(3)
    4ebe:	eb 02                	jmp    4ec2 <__mulxc3@@GCC_4.0.0+0x252>
    4ec0:	d9 cb                	fxch   %st(3)
    4ec2:	db e8                	fucomi %st(0),%st
    4ec4:	0f 8a e6 00 00 00    	jp     4fb0 <__mulxc3@@GCC_4.0.0+0x340>
    4eca:	d9 ca                	fxch   %st(2)
    4ecc:	eb 0a                	jmp    4ed8 <__mulxc3@@GCC_4.0.0+0x268>
    4ece:	66 90                	xchg   %ax,%ax
    4ed0:	d9 ca                	fxch   %st(2)
    4ed2:	66 0f 1f 44 00 00    	nopw   0x0(%rax,%rax,1)
    4ed8:	db e8                	fucomi %st(0),%st
    4eda:	0f 8a f0 00 00 00    	jp     4fd0 <__mulxc3@@GCC_4.0.0+0x360>
    4ee0:	eb 36                	jmp    4f18 <__mulxc3@@GCC_4.0.0+0x2a8>
    4ee2:	66 0f 1f 44 00 00    	nopw   0x0(%rax,%rax,1)
    4ee8:	dd d8                	fstp   %st(0)
    4eea:	dd db                	fstp   %st(3)
    4eec:	d9 c9                	fxch   %st(1)
    4eee:	d9 ca                	fxch   %st(2)
    4ef0:	d9 cb                	fxch   %st(3)
    4ef2:	d9 ca                	fxch   %st(2)
    4ef4:	eb 22                	jmp    4f18 <__mulxc3@@GCC_4.0.0+0x2a8>
    4ef6:	66 2e 0f 1f 84 00 00 	nopw   %cs:0x0(%rax,%rax,1)
    4efd:	00 00 00 
    4f00:	d9 cb                	fxch   %st(3)
    4f02:	d9 c9                	fxch   %st(1)
    4f04:	eb 12                	jmp    4f18 <__mulxc3@@GCC_4.0.0+0x2a8>
    4f06:	66 2e 0f 1f 84 00 00 	nopw   %cs:0x0(%rax,%rax,1)
    4f0d:	00 00 00 
    4f10:	d9 cb                	fxch   %st(3)
    4f12:	d9 c9                	fxch   %st(1)
    4f14:	0f 1f 40 00          	nopl   0x0(%rax)
    4f18:	d9 c2                	fld    %st(2)
    4f1a:	d8 ca                	fmul   %st(2),%st
    4f1c:	d9 c1                	fld    %st(1)
    4f1e:	d8 cd                	fmul   %st(5),%st
    4f20:	de e9                	fsubrp %st,%st(1)
    4f22:	d9 05 0c 03 01 00    	flds   0x1030c(%rip)        # 15234 <__emutls_register_common@@GCC_4.3.0+0x1224>
    4f28:	dc c9                	fmul   %st,%st(1)
    4f2a:	d9 c9                	fxch   %st(1)
    4f2c:	db 7c 24 98          	fstpt  -0x68(%rsp)
    4f30:	d9 cb                	fxch   %st(3)
    4f32:	de cc                	fmulp  %st,%st(4)
    4f34:	de c9                	fmulp  %st,%st(1)
    4f36:	de c2                	faddp  %st,%st(2)
    4f38:	de c9                	fmulp  %st,%st(1)
    4f3a:	eb 1c                	jmp    4f58 <__mulxc3@@GCC_4.0.0+0x2e8>
    4f3c:	0f 1f 40 00          	nopl   0x0(%rax)
    4f40:	dd db                	fstp   %st(3)
    4f42:	dd d8                	fstp   %st(0)
    4f44:	dd d8                	fstp   %st(0)
    4f46:	dd d9                	fstp   %st(1)
    4f48:	eb 0e                	jmp    4f58 <__mulxc3@@GCC_4.0.0+0x2e8>
    4f4a:	66 0f 1f 44 00 00    	nopw   0x0(%rax,%rax,1)
    4f50:	dd d8                	fstp   %st(0)
    4f52:	dd d8                	fstp   %st(0)
    4f54:	dd d8                	fstp   %st(0)
    4f56:	dd d9                	fstp   %st(1)
    4f58:	db 6c 24 98          	fldt   -0x68(%rsp)
    4f5c:	c3                   	retq   
    4f5d:	0f 1f 00             	nopl   (%rax)
    4f60:	d9 e0                	fchs   
    4f62:	d9 ca                	fxch   %st(2)
    4f64:	e9 e9 fd ff ff       	jmpq   4d52 <__mulxc3@@GCC_4.0.0+0xe2>
    4f69:	0f 1f 80 00 00 00 00 	nopl   0x0(%rax)
    4f70:	d9 e0                	fchs   
    4f72:	e9 ab fd ff ff       	jmpq   4d22 <__mulxc3@@GCC_4.0.0+0xb2>
    4f77:	66 0f 1f 84 00 00 00 	nopw   0x0(%rax,%rax,1)
    4f7e:	00 00 
    4f80:	dd d8                	fstp   %st(0)
    4f82:	d9 cb                	fxch   %st(3)
    4f84:	d9 ca                	fxch   %st(2)
    4f86:	d9 c9                	fxch   %st(1)
    4f88:	31 d2                	xor    %edx,%edx
    4f8a:	e9 d5 fd ff ff       	jmpq   4d64 <__mulxc3@@GCC_4.0.0+0xf4>
    4f8f:	90                   	nop
    4f90:	db 6c 24 d8          	fldt   -0x28(%rsp)
    4f94:	d9 e1                	fabs   
    4f96:	df e9                	fucomip %st(1),%st
    4f98:	dd d8                	fstp   %st(0)
    4f9a:	76 b4                	jbe    4f50 <__mulxc3@@GCC_4.0.0+0x2e0>
    4f9c:	dd db                	fstp   %st(3)
    4f9e:	d9 c9                	fxch   %st(1)
    4fa0:	d9 ca                	fxch   %st(2)
    4fa2:	d9 cb                	fxch   %st(3)
    4fa4:	e9 41 fe ff ff       	jmpq   4dea <__mulxc3@@GCC_4.0.0+0x17a>
    4fa9:	0f 1f 80 00 00 00 00 	nopl   0x0(%rax)
    4fb0:	d9 e5                	fxam   
    4fb2:	df e0                	fnstsw %ax
    4fb4:	dd d8                	fstp   %st(0)
    4fb6:	d9 ee                	fldz   
    4fb8:	f6 c4 02             	test   $0x2,%ah
    4fbb:	0f 84 0f ff ff ff    	je     4ed0 <__mulxc3@@GCC_4.0.0+0x260>
    4fc1:	dd d8                	fstp   %st(0)
    4fc3:	d9 ee                	fldz   
    4fc5:	d9 e0                	fchs   
    4fc7:	d9 ca                	fxch   %st(2)
    4fc9:	e9 0a ff ff ff       	jmpq   4ed8 <__mulxc3@@GCC_4.0.0+0x268>
    4fce:	66 90                	xchg   %ax,%ax
    4fd0:	d9 e5                	fxam   
    4fd2:	df e0                	fnstsw %ax
    4fd4:	dd d8                	fstp   %st(0)
    4fd6:	d9 ee                	fldz   
    4fd8:	f6 c4 02             	test   $0x2,%ah
    4fdb:	0f 84 37 ff ff ff    	je     4f18 <__mulxc3@@GCC_4.0.0+0x2a8>
    4fe1:	dd d8                	fstp   %st(0)
    4fe3:	d9 ee                	fldz   
    4fe5:	d9 e0                	fchs   
    4fe7:	e9 2c ff ff ff       	jmpq   4f18 <__mulxc3@@GCC_4.0.0+0x2a8>
    4fec:	0f 1f 40 00          	nopl   0x0(%rax)
    4ff0:	d9 e5                	fxam   
    4ff2:	df e0                	fnstsw %ax
    4ff4:	dd d8                	fstp   %st(0)
    4ff6:	d9 ee                	fldz   
    4ff8:	f6 c4 02             	test   $0x2,%ah
    4ffb:	74 06                	je     5003 <__mulxc3@@GCC_4.0.0+0x393>
    4ffd:	dd d8                	fstp   %st(0)
    4fff:	d9 ee                	fldz   
    5001:	d9 e0                	fchs   
    5003:	d9 c9                	fxch   %st(1)
    5005:	e9 52 fd ff ff       	jmpq   4d5c <__mulxc3@@GCC_4.0.0+0xec>
    500a:	66 0f 1f 44 00 00    	nopw   0x0(%rax,%rax,1)
    5010:	d9 e5                	fxam   
    5012:	df e0                	fnstsw %ax
    5014:	dd d8                	fstp   %st(0)
    5016:	d9 ee                	fldz   
    5018:	f6 c4 02             	test   $0x2,%ah
    501b:	0f 84 43 fd ff ff    	je     4d64 <__mulxc3@@GCC_4.0.0+0xf4>
    5021:	dd d8                	fstp   %st(0)
    5023:	d9 ee                	fldz   
    5025:	d9 e0                	fchs   
    5027:	e9 38 fd ff ff       	jmpq   4d64 <__mulxc3@@GCC_4.0.0+0xf4>
    502c:	0f 1f 40 00          	nopl   0x0(%rax)
    5030:	d9 e5                	fxam   
    5032:	df e0                	fnstsw %ax
    5034:	dd d8                	fstp   %st(0)
    5036:	d9 ee                	fldz   
    5038:	f6 c4 02             	test   $0x2,%ah
    503b:	74 06                	je     5043 <__mulxc3@@GCC_4.0.0+0x3d3>
    503d:	dd d8                	fstp   %st(0)
    503f:	d9 ee                	fldz   
    5041:	d9 e0                	fchs   
    5043:	d9 cb                	fxch   %st(3)
    5045:	e9 e0 fd ff ff       	jmpq   4e2a <__mulxc3@@GCC_4.0.0+0x1ba>
    504a:	66 0f 1f 44 00 00    	nopw   0x0(%rax,%rax,1)
    5050:	d9 e5                	fxam   
    5052:	df e0                	fnstsw %ax
    5054:	dd d8                	fstp   %st(0)
    5056:	d9 ee                	fldz   
    5058:	f6 c4 02             	test   $0x2,%ah
    505b:	0f 84 b7 fd ff ff    	je     4e18 <__mulxc3@@GCC_4.0.0+0x1a8>
    5061:	dd d8                	fstp   %st(0)
    5063:	d9 ee                	fldz   
    5065:	d9 e0                	fchs   
    5067:	d9 c9                	fxch   %st(1)
    5069:	e9 b2 fd ff ff       	jmpq   4e20 <__mulxc3@@GCC_4.0.0+0x1b0>
    506e:	66 90                	xchg   %ax,%ax
    5070:	d9 e5                	fxam   
    5072:	df e0                	fnstsw %ax
    5074:	dd d8                	fstp   %st(0)
    5076:	d9 ee                	fldz   
    5078:	f6 c4 02             	test   $0x2,%ah
    507b:	0f 84 7f fd ff ff    	je     4e00 <__mulxc3@@GCC_4.0.0+0x190>
    5081:	dd d8                	fstp   %st(0)
    5083:	d9 ee                	fldz   
    5085:	d9 e0                	fchs   
    5087:	d9 ca                	fxch   %st(2)
    5089:	e9 7a fd ff ff       	jmpq   4e08 <__mulxc3@@GCC_4.0.0+0x198>
    508e:	66 90                	xchg   %ax,%ax

0000000000005090 <__divsc3@@GCC_4.0.0>:
    5090:	f3 0f 1e fa          	endbr64 
    5094:	f3 0f 10 3d 74 01 01 	movss  0x10174(%rip),%xmm7        # 15210 <__emutls_register_common@@GCC_4.3.0+0x1200>
    509b:	00 
    509c:	44 0f 28 c2          	movaps %xmm2,%xmm8
    50a0:	44 0f 28 cb          	movaps %xmm3,%xmm9
    50a4:	44 0f 54 c7          	andps  %xmm7,%xmm8
    50a8:	44 0f 54 cf          	andps  %xmm7,%xmm9
    50ac:	0f 28 f0             	movaps %xmm0,%xmm6
    50af:	45 0f 2f c8          	comiss %xmm8,%xmm9
    50b3:	0f 86 4f 01 00 00    	jbe    5208 <__divsc3@@GCC_4.0.0+0x178>
    50b9:	0f 28 e2             	movaps %xmm2,%xmm4
    50bc:	0f 28 e8             	movaps %xmm0,%xmm5
    50bf:	44 0f 28 d2          	movaps %xmm2,%xmm10
    50c3:	f3 0f 5e e3          	divss  %xmm3,%xmm4
    50c7:	f3 44 0f 59 d4       	mulss  %xmm4,%xmm10
    50cc:	f3 0f 59 ec          	mulss  %xmm4,%xmm5
    50d0:	f3 0f 59 e1          	mulss  %xmm1,%xmm4
    50d4:	f3 44 0f 58 d3       	addss  %xmm3,%xmm10
    50d9:	f3 0f 58 e9          	addss  %xmm1,%xmm5
    50dd:	0f 28 c4             	movaps %xmm4,%xmm0
    50e0:	f3 0f 5c c6          	subss  %xmm6,%xmm0
    50e4:	f3 41 0f 5e ea       	divss  %xmm10,%xmm5
    50e9:	f3 41 0f 5e c2       	divss  %xmm10,%xmm0
    50ee:	0f 2e ed             	ucomiss %xmm5,%xmm5
    50f1:	0f 8b f9 00 00 00    	jnp    51f0 <__divsc3@@GCC_4.0.0+0x160>
    50f7:	0f 2e c0             	ucomiss %xmm0,%xmm0
    50fa:	0f 8b f0 00 00 00    	jnp    51f0 <__divsc3@@GCC_4.0.0+0x160>
    5100:	66 45 0f ef db       	pxor   %xmm11,%xmm11
    5105:	ba 00 00 00 00       	mov    $0x0,%edx
    510a:	41 0f 2e db          	ucomiss %xmm11,%xmm3
    510e:	0f 9b c0             	setnp  %al
    5111:	0f 45 c2             	cmovne %edx,%eax
    5114:	84 c0                	test   %al,%al
    5116:	74 12                	je     512a <__divsc3@@GCC_4.0.0+0x9a>
    5118:	41 0f 2e d3          	ucomiss %xmm11,%xmm2
    511c:	0f 9b c0             	setnp  %al
    511f:	0f 44 d0             	cmove  %eax,%edx
    5122:	84 d2                	test   %dl,%dl
    5124:	0f 85 b6 01 00 00    	jne    52e0 <__divsc3@@GCC_4.0.0+0x250>
    512a:	0f 28 e6             	movaps %xmm6,%xmm4
    512d:	0f 54 e7             	andps  %xmm7,%xmm4
    5130:	0f 2e 25 f9 00 01 00 	ucomiss 0x100f9(%rip),%xmm4        # 15230 <__emutls_register_common@@GCC_4.3.0+0x1220>
    5137:	0f 87 0b 01 00 00    	ja     5248 <__divsc3@@GCC_4.0.0+0x1b8>
    513d:	44 0f 28 d1          	movaps %xmm1,%xmm10
    5141:	44 0f 54 d7          	andps  %xmm7,%xmm10
    5145:	44 0f 2e 15 e3 00 01 	ucomiss 0x100e3(%rip),%xmm10        # 15230 <__emutls_register_common@@GCC_4.3.0+0x1220>
    514c:	00 
    514d:	0f 87 f5 00 00 00    	ja     5248 <__divsc3@@GCC_4.0.0+0x1b8>
    5153:	44 0f 2e 05 d5 00 01 	ucomiss 0x100d5(%rip),%xmm8        # 15230 <__emutls_register_common@@GCC_4.3.0+0x1220>
    515a:	00 
    515b:	0f 96 c0             	setbe  %al
    515e:	44 0f 2e 0d ca 00 01 	ucomiss 0x100ca(%rip),%xmm9        # 15230 <__emutls_register_common@@GCC_4.3.0+0x1220>
    5165:	00 
    5166:	0f 96 c2             	setbe  %dl
    5169:	84 c0                	test   %al,%al
    516b:	74 04                	je     5171 <__divsc3@@GCC_4.0.0+0xe1>
    516d:	84 d2                	test   %dl,%dl
    516f:	75 7f                	jne    51f0 <__divsc3@@GCC_4.0.0+0x160>
    5171:	f3 44 0f 10 05 b6 00 	movss  0x100b6(%rip),%xmm8        # 15230 <__emutls_register_common@@GCC_4.3.0+0x1220>
    5178:	01 00 
    517a:	44 0f 2e c4          	ucomiss %xmm4,%xmm8
    517e:	72 70                	jb     51f0 <__divsc3@@GCC_4.0.0+0x160>
    5180:	0f 28 e1             	movaps %xmm1,%xmm4
    5183:	0f 54 e7             	andps  %xmm7,%xmm4
    5186:	44 0f 2e c4          	ucomiss %xmm4,%xmm8
    518a:	72 64                	jb     51f0 <__divsc3@@GCC_4.0.0+0x160>
    518c:	83 f0 01             	xor    $0x1,%eax
    518f:	66 0f ef c0          	pxor   %xmm0,%xmm0
    5193:	0f 28 ea             	movaps %xmm2,%xmm5
    5196:	83 f2 01             	xor    $0x1,%edx
    5199:	0f b6 c0             	movzbl %al,%eax
    519c:	0f b6 d2             	movzbl %dl,%edx
    519f:	66 0f ef d2          	pxor   %xmm2,%xmm2
    51a3:	f3 0f 2a c0          	cvtsi2ss %eax,%xmm0
    51a7:	f3 0f 10 25 71 00 01 	movss  0x10071(%rip),%xmm4        # 15220 <__emutls_register_common@@GCC_4.3.0+0x1210>
    51ae:	00 
    51af:	f3 0f 2a d2          	cvtsi2ss %edx,%xmm2
    51b3:	0f 54 ec             	andps  %xmm4,%xmm5
    51b6:	0f 54 c7             	andps  %xmm7,%xmm0
    51b9:	0f 56 c5             	orps   %xmm5,%xmm0
    51bc:	0f 28 eb             	movaps %xmm3,%xmm5
    51bf:	0f 54 fa             	andps  %xmm2,%xmm7
    51c2:	0f 54 ec             	andps  %xmm4,%xmm5
    51c5:	0f 28 d1             	movaps %xmm1,%xmm2
    51c8:	0f 56 fd             	orps   %xmm5,%xmm7
    51cb:	0f 28 ee             	movaps %xmm6,%xmm5
    51ce:	f3 0f 59 e8          	mulss  %xmm0,%xmm5
    51d2:	f3 0f 59 d7          	mulss  %xmm7,%xmm2
    51d6:	f3 0f 59 c1          	mulss  %xmm1,%xmm0
    51da:	f3 0f 59 f7          	mulss  %xmm7,%xmm6
    51de:	f3 0f 58 ea          	addss  %xmm2,%xmm5
    51e2:	f3 0f 5c c6          	subss  %xmm6,%xmm0
    51e6:	f3 41 0f 59 eb       	mulss  %xmm11,%xmm5
    51eb:	f3 41 0f 59 c3       	mulss  %xmm11,%xmm0
    51f0:	f3 0f 11 6c 24 f8    	movss  %xmm5,-0x8(%rsp)
    51f6:	f3 0f 11 44 24 fc    	movss  %xmm0,-0x4(%rsp)
    51fc:	f3 0f 7e 44 24 f8    	movq   -0x8(%rsp),%xmm0
    5202:	c3                   	retq   
    5203:	0f 1f 44 00 00       	nopl   0x0(%rax,%rax,1)
    5208:	0f 28 c3             	movaps %xmm3,%xmm0
    520b:	44 0f 28 d3          	movaps %xmm3,%xmm10
    520f:	f3 0f 5e c2          	divss  %xmm2,%xmm0
    5213:	f3 44 0f 59 d0       	mulss  %xmm0,%xmm10
    5218:	0f 28 e8             	movaps %xmm0,%xmm5
    521b:	0f 28 e0             	movaps %xmm0,%xmm4
    521e:	f3 0f 59 e9          	mulss  %xmm1,%xmm5
    5222:	0f 28 c1             	movaps %xmm1,%xmm0
    5225:	f3 0f 59 e6          	mulss  %xmm6,%xmm4
    5229:	f3 44 0f 58 d2       	addss  %xmm2,%xmm10
    522e:	f3 0f 58 ee          	addss  %xmm6,%xmm5
    5232:	f3 0f 5c c4          	subss  %xmm4,%xmm0
    5236:	f3 41 0f 5e ea       	divss  %xmm10,%xmm5
    523b:	f3 41 0f 5e c2       	divss  %xmm10,%xmm0
    5240:	e9 a9 fe ff ff       	jmpq   50ee <__divsc3@@GCC_4.0.0+0x5e>
    5245:	0f 1f 00             	nopl   (%rax)
    5248:	f3 44 0f 10 15 df ff 	movss  0xffdf(%rip),%xmm10        # 15230 <__emutls_register_common@@GCC_4.3.0+0x1220>
    524f:	00 00 
    5251:	45 0f 2e d0          	ucomiss %xmm8,%xmm10
    5255:	0f 82 f8 fe ff ff    	jb     5153 <__divsc3@@GCC_4.0.0+0xc3>
    525b:	45 0f 2e d1          	ucomiss %xmm9,%xmm10
    525f:	0f 82 ee fe ff ff    	jb     5153 <__divsc3@@GCC_4.0.0+0xc3>
    5265:	31 c0                	xor    %eax,%eax
    5267:	41 0f 2e e2          	ucomiss %xmm10,%xmm4
    526b:	66 0f ef e4          	pxor   %xmm4,%xmm4
    526f:	f3 0f 10 2d a9 ff 00 	movss  0xffa9(%rip),%xmm5        # 15220 <__emutls_register_common@@GCC_4.3.0+0x1210>
    5276:	00 
    5277:	0f 28 c6             	movaps %xmm6,%xmm0
    527a:	0f 28 f1             	movaps %xmm1,%xmm6
    527d:	0f 54 c5             	andps  %xmm5,%xmm0
    5280:	0f 54 f5             	andps  %xmm5,%xmm6
    5283:	0f 28 ea             	movaps %xmm2,%xmm5
    5286:	0f 97 c0             	seta   %al
    5289:	f3 0f 2a e0          	cvtsi2ss %eax,%xmm4
    528d:	31 c0                	xor    %eax,%eax
    528f:	0f 54 e7             	andps  %xmm7,%xmm4
    5292:	0f 56 e0             	orps   %xmm0,%xmm4
    5295:	0f 28 c1             	movaps %xmm1,%xmm0
    5298:	f3 0f 59 ec          	mulss  %xmm4,%xmm5
    529c:	0f 54 c7             	andps  %xmm7,%xmm0
    529f:	41 0f 2e c2          	ucomiss %xmm10,%xmm0
    52a3:	66 0f ef c0          	pxor   %xmm0,%xmm0
    52a7:	0f 97 c0             	seta   %al
    52aa:	f3 0f 2a c0          	cvtsi2ss %eax,%xmm0
    52ae:	0f 54 f8             	andps  %xmm0,%xmm7
    52b1:	0f 28 c3             	movaps %xmm3,%xmm0
    52b4:	f3 0f 59 dc          	mulss  %xmm4,%xmm3
    52b8:	0f 56 fe             	orps   %xmm6,%xmm7
    52bb:	f3 0f 59 c7          	mulss  %xmm7,%xmm0
    52bf:	f3 0f 59 fa          	mulss  %xmm2,%xmm7
    52c3:	f3 0f 58 e8          	addss  %xmm0,%xmm5
    52c7:	f3 0f 10 05 65 ff 00 	movss  0xff65(%rip),%xmm0        # 15234 <__emutls_register_common@@GCC_4.3.0+0x1224>
    52ce:	00 
    52cf:	f3 0f 5c fb          	subss  %xmm3,%xmm7
    52d3:	f3 0f 59 e8          	mulss  %xmm0,%xmm5
    52d7:	f3 0f 59 c7          	mulss  %xmm7,%xmm0
    52db:	e9 10 ff ff ff       	jmpq   51f0 <__divsc3@@GCC_4.0.0+0x160>
    52e0:	0f 2e f6             	ucomiss %xmm6,%xmm6
    52e3:	7b 09                	jnp    52ee <__divsc3@@GCC_4.0.0+0x25e>
    52e5:	0f 2e c9             	ucomiss %xmm1,%xmm1
    52e8:	0f 8a 3c fe ff ff    	jp     512a <__divsc3@@GCC_4.0.0+0x9a>
    52ee:	0f 54 15 2b ff 00 00 	andps  0xff2b(%rip),%xmm2        # 15220 <__emutls_register_common@@GCC_4.3.0+0x1210>
    52f5:	0f 56 15 84 ff 00 00 	orps   0xff84(%rip),%xmm2        # 15280 <__emutls_register_common@@GCC_4.3.0+0x1270>
    52fc:	f3 0f 59 f2          	mulss  %xmm2,%xmm6
    5300:	f3 0f 59 d1          	mulss  %xmm1,%xmm2
    5304:	0f 28 ee             	movaps %xmm6,%xmm5
    5307:	0f 28 c2             	movaps %xmm2,%xmm0
    530a:	e9 e1 fe ff ff       	jmpq   51f0 <__divsc3@@GCC_4.0.0+0x160>
    530f:	90                   	nop

0000000000005310 <__divdc3@@GCC_4.0.0>:
    5310:	f3 0f 1e fa          	endbr64 
    5314:	66 44 0f 28 c2       	movapd %xmm2,%xmm8
    5319:	f3 0f 7e 3d 1f ff 00 	movq   0xff1f(%rip),%xmm7        # 15240 <__emutls_register_common@@GCC_4.3.0+0x1230>
    5320:	00 
    5321:	66 44 0f 28 d3       	movapd %xmm3,%xmm10
    5326:	66 0f 28 f1          	movapd %xmm1,%xmm6
    532a:	66 44 0f 54 c7       	andpd  %xmm7,%xmm8
    532f:	66 44 0f 54 d7       	andpd  %xmm7,%xmm10
    5334:	66 45 0f 2f d0       	comisd %xmm8,%xmm10
    5339:	0f 86 a9 00 00 00    	jbe    53e8 <__divdc3@@GCC_4.0.0+0xd8>
    533f:	66 0f 28 e2          	movapd %xmm2,%xmm4
    5343:	66 44 0f 28 ca       	movapd %xmm2,%xmm9
    5348:	66 0f 28 e8          	movapd %xmm0,%xmm5
    534c:	f2 0f 5e e3          	divsd  %xmm3,%xmm4
    5350:	f2 44 0f 59 cc       	mulsd  %xmm4,%xmm9
    5355:	f2 0f 59 ec          	mulsd  %xmm4,%xmm5
    5359:	f2 0f 59 e1          	mulsd  %xmm1,%xmm4
    535d:	f2 44 0f 58 cb       	addsd  %xmm3,%xmm9
    5362:	f2 0f 58 e9          	addsd  %xmm1,%xmm5
    5366:	66 0f 28 cc          	movapd %xmm4,%xmm1
    536a:	f2 0f 5c c8          	subsd  %xmm0,%xmm1
    536e:	f2 41 0f 5e e9       	divsd  %xmm9,%xmm5
    5373:	f2 41 0f 5e c9       	divsd  %xmm9,%xmm1
    5378:	66 0f 2e ed          	ucomisd %xmm5,%xmm5
    537c:	7b 62                	jnp    53e0 <__divdc3@@GCC_4.0.0+0xd0>
    537e:	66 0f 2e c9          	ucomisd %xmm1,%xmm1
    5382:	7b 5c                	jnp    53e0 <__divdc3@@GCC_4.0.0+0xd0>
    5384:	66 45 0f ef db       	pxor   %xmm11,%xmm11
    5389:	ba 00 00 00 00       	mov    $0x0,%edx
    538e:	66 41 0f 2e d3       	ucomisd %xmm11,%xmm2
    5393:	0f 9b c0             	setnp  %al
    5396:	0f 45 c2             	cmovne %edx,%eax
    5399:	84 c0                	test   %al,%al
    539b:	0f 84 8f 00 00 00    	je     5430 <__divdc3@@GCC_4.0.0+0x120>
    53a1:	66 41 0f 2e db       	ucomisd %xmm11,%xmm3
    53a6:	0f 9b c0             	setnp  %al
    53a9:	0f 45 c2             	cmovne %edx,%eax
    53ac:	84 c0                	test   %al,%al
    53ae:	0f 84 7c 00 00 00    	je     5430 <__divdc3@@GCC_4.0.0+0x120>
    53b4:	66 0f 2e c0          	ucomisd %xmm0,%xmm0
    53b8:	7b 06                	jnp    53c0 <__divdc3@@GCC_4.0.0+0xb0>
    53ba:	66 0f 2e f6          	ucomisd %xmm6,%xmm6
    53be:	7a 70                	jp     5430 <__divdc3@@GCC_4.0.0+0x120>
    53c0:	66 0f 54 15 88 fe 00 	andpd  0xfe88(%rip),%xmm2        # 15250 <__emutls_register_common@@GCC_4.3.0+0x1240>
    53c7:	00 
    53c8:	66 0f 56 15 c0 fe 00 	orpd   0xfec0(%rip),%xmm2        # 15290 <__emutls_register_common@@GCC_4.3.0+0x1280>
    53cf:	00 
    53d0:	f2 0f 59 c2          	mulsd  %xmm2,%xmm0
    53d4:	f2 0f 59 d6          	mulsd  %xmm6,%xmm2
    53d8:	66 0f 28 e8          	movapd %xmm0,%xmm5
    53dc:	66 0f 28 ca          	movapd %xmm2,%xmm1
    53e0:	66 0f 28 c5          	movapd %xmm5,%xmm0
    53e4:	c3                   	retq   
    53e5:	0f 1f 00             	nopl   (%rax)
    53e8:	66 0f 28 cb          	movapd %xmm3,%xmm1
    53ec:	66 44 0f 28 cb       	movapd %xmm3,%xmm9
    53f1:	f2 0f 5e ca          	divsd  %xmm2,%xmm1
    53f5:	f2 44 0f 59 c9       	mulsd  %xmm1,%xmm9
    53fa:	66 0f 28 e9          	movapd %xmm1,%xmm5
    53fe:	66 0f 28 e1          	movapd %xmm1,%xmm4
    5402:	f2 0f 59 ee          	mulsd  %xmm6,%xmm5
    5406:	66 0f 28 ce          	movapd %xmm6,%xmm1
    540a:	f2 0f 59 e0          	mulsd  %xmm0,%xmm4
    540e:	f2 44 0f 58 ca       	addsd  %xmm2,%xmm9
    5413:	f2 0f 58 e8          	addsd  %xmm0,%xmm5
    5417:	f2 0f 5c cc          	subsd  %xmm4,%xmm1
    541b:	f2 41 0f 5e e9       	divsd  %xmm9,%xmm5
    5420:	f2 41 0f 5e c9       	divsd  %xmm9,%xmm1
    5425:	e9 4e ff ff ff       	jmpq   5378 <__divdc3@@GCC_4.0.0+0x68>
    542a:	66 0f 1f 44 00 00    	nopw   0x0(%rax,%rax,1)
    5430:	f2 0f 10 25 28 fe 00 	movsd  0xfe28(%rip),%xmm4        # 15260 <__emutls_register_common@@GCC_4.3.0+0x1250>
    5437:	00 
    5438:	66 44 0f 28 c8       	movapd %xmm0,%xmm9
    543d:	66 44 0f 54 cf       	andpd  %xmm7,%xmm9
    5442:	66 44 0f 2e cc       	ucomisd %xmm4,%xmm9
    5447:	77 15                	ja     545e <__divdc3@@GCC_4.0.0+0x14e>
    5449:	66 44 0f 28 e6       	movapd %xmm6,%xmm12
    544e:	66 44 0f 54 e7       	andpd  %xmm7,%xmm12
    5453:	66 44 0f 2e e4       	ucomisd %xmm4,%xmm12
    5458:	0f 86 aa 00 00 00    	jbe    5508 <__divdc3@@GCC_4.0.0+0x1f8>
    545e:	66 41 0f 2e e0       	ucomisd %xmm8,%xmm4
    5463:	0f 82 9f 00 00 00    	jb     5508 <__divdc3@@GCC_4.0.0+0x1f8>
    5469:	66 41 0f 2e e2       	ucomisd %xmm10,%xmm4
    546e:	0f 82 94 00 00 00    	jb     5508 <__divdc3@@GCC_4.0.0+0x1f8>
    5474:	31 c0                	xor    %eax,%eax
    5476:	66 0f ef e4          	pxor   %xmm4,%xmm4
    547a:	66 0f 28 c8          	movapd %xmm0,%xmm1
    547e:	f3 0f 7e 2d ca fd 00 	movq   0xfdca(%rip),%xmm5        # 15250 <__emutls_register_common@@GCC_4.3.0+0x1240>
    5485:	00 
    5486:	66 44 0f 2e 0d d1 fd 	ucomisd 0xfdd1(%rip),%xmm9        # 15260 <__emutls_register_common@@GCC_4.3.0+0x1250>
    548d:	00 00 
    548f:	66 0f 28 c6          	movapd %xmm6,%xmm0
    5493:	66 0f 54 c7          	andpd  %xmm7,%xmm0
    5497:	66 0f 54 cd          	andpd  %xmm5,%xmm1
    549b:	0f 97 c0             	seta   %al
    549e:	f2 0f 2a e0          	cvtsi2sd %eax,%xmm4
    54a2:	31 c0                	xor    %eax,%eax
    54a4:	66 0f 2e 05 b4 fd 00 	ucomisd 0xfdb4(%rip),%xmm0        # 15260 <__emutls_register_common@@GCC_4.3.0+0x1250>
    54ab:	00 
    54ac:	66 0f 28 c6          	movapd %xmm6,%xmm0
    54b0:	66 0f 54 c5          	andpd  %xmm5,%xmm0
    54b4:	66 0f 28 ea          	movapd %xmm2,%xmm5
    54b8:	66 0f 54 e7          	andpd  %xmm7,%xmm4
    54bc:	0f 97 c0             	seta   %al
    54bf:	66 0f 56 e1          	orpd   %xmm1,%xmm4
    54c3:	66 0f ef c9          	pxor   %xmm1,%xmm1
    54c7:	f2 0f 2a c8          	cvtsi2sd %eax,%xmm1
    54cb:	f2 0f 59 ec          	mulsd  %xmm4,%xmm5
    54cf:	66 0f 54 f9          	andpd  %xmm1,%xmm7
    54d3:	f2 0f 10 0d 8d fd 00 	movsd  0xfd8d(%rip),%xmm1        # 15268 <__emutls_register_common@@GCC_4.3.0+0x1258>
    54da:	00 
    54db:	66 0f 56 f8          	orpd   %xmm0,%xmm7
    54df:	66 0f 28 c3          	movapd %xmm3,%xmm0
    54e3:	f2 0f 59 c7          	mulsd  %xmm7,%xmm0
    54e7:	f2 0f 59 dc          	mulsd  %xmm4,%xmm3
    54eb:	f2 0f 59 fa          	mulsd  %xmm2,%xmm7
    54ef:	f2 0f 58 e8          	addsd  %xmm0,%xmm5
    54f3:	f2 0f 5c fb          	subsd  %xmm3,%xmm7
    54f7:	f2 0f 59 e9          	mulsd  %xmm1,%xmm5
    54fb:	f2 0f 59 cf          	mulsd  %xmm7,%xmm1
    54ff:	e9 dc fe ff ff       	jmpq   53e0 <__divdc3@@GCC_4.0.0+0xd0>
    5504:	0f 1f 40 00          	nopl   0x0(%rax)
    5508:	66 44 0f 2e 05 4f fd 	ucomisd 0xfd4f(%rip),%xmm8        # 15260 <__emutls_register_common@@GCC_4.3.0+0x1250>
    550f:	00 00 
    5511:	0f 96 c0             	setbe  %al
    5514:	66 44 0f 2e 15 43 fd 	ucomisd 0xfd43(%rip),%xmm10        # 15260 <__emutls_register_common@@GCC_4.3.0+0x1250>
    551b:	00 00 
    551d:	0f 96 c2             	setbe  %dl
    5520:	84 c0                	test   %al,%al
    5522:	74 08                	je     552c <__divdc3@@GCC_4.0.0+0x21c>
    5524:	84 d2                	test   %dl,%dl
    5526:	0f 85 b4 fe ff ff    	jne    53e0 <__divdc3@@GCC_4.0.0+0xd0>
    552c:	66 41 0f 2e e1       	ucomisd %xmm9,%xmm4
    5531:	0f 82 a9 fe ff ff    	jb     53e0 <__divdc3@@GCC_4.0.0+0xd0>
    5537:	66 44 0f 28 c6       	movapd %xmm6,%xmm8
    553c:	66 44 0f 54 c7       	andpd  %xmm7,%xmm8
    5541:	66 41 0f 2e e0       	ucomisd %xmm8,%xmm4
    5546:	0f 82 94 fe ff ff    	jb     53e0 <__divdc3@@GCC_4.0.0+0xd0>
    554c:	83 f0 01             	xor    $0x1,%eax
    554f:	66 0f ef c9          	pxor   %xmm1,%xmm1
    5553:	66 0f 28 ea          	movapd %xmm2,%xmm5
    5557:	83 f2 01             	xor    $0x1,%edx
    555a:	0f b6 c0             	movzbl %al,%eax
    555d:	0f b6 d2             	movzbl %dl,%edx
    5560:	66 0f ef d2          	pxor   %xmm2,%xmm2
    5564:	f3 0f 7e 25 e4 fc 00 	movq   0xfce4(%rip),%xmm4        # 15250 <__emutls_register_common@@GCC_4.3.0+0x1240>
    556b:	00 
    556c:	f2 0f 2a c8          	cvtsi2sd %eax,%xmm1
    5570:	f2 0f 2a d2          	cvtsi2sd %edx,%xmm2
    5574:	66 0f 54 ec          	andpd  %xmm4,%xmm5
    5578:	66 0f 54 cf          	andpd  %xmm7,%xmm1
    557c:	66 0f 56 cd          	orpd   %xmm5,%xmm1
    5580:	66 0f 28 eb          	movapd %xmm3,%xmm5
    5584:	66 0f 54 fa          	andpd  %xmm2,%xmm7
    5588:	66 0f 54 ec          	andpd  %xmm4,%xmm5
    558c:	66 0f 28 d6          	movapd %xmm6,%xmm2
    5590:	66 0f 56 fd          	orpd   %xmm5,%xmm7
    5594:	66 0f 28 e8          	movapd %xmm0,%xmm5
    5598:	f2 0f 59 e9          	mulsd  %xmm1,%xmm5
    559c:	f2 0f 59 d7          	mulsd  %xmm7,%xmm2
    55a0:	f2 0f 59 ce          	mulsd  %xmm6,%xmm1
    55a4:	f2 0f 59 c7          	mulsd  %xmm7,%xmm0
    55a8:	f2 0f 58 ea          	addsd  %xmm2,%xmm5
    55ac:	f2 0f 5c c8          	subsd  %xmm0,%xmm1
    55b0:	f2 41 0f 59 eb       	mulsd  %xmm11,%xmm5
    55b5:	f2 41 0f 59 cb       	mulsd  %xmm11,%xmm1
    55ba:	e9 21 fe ff ff       	jmpq   53e0 <__divdc3@@GCC_4.0.0+0xd0>
    55bf:	90                   	nop

00000000000055c0 <__divxc3@@GCC_4.0.0>:
    55c0:	f3 0f 1e fa          	endbr64 
    55c4:	db 6c 24 28          	fldt   0x28(%rsp)
    55c8:	db 6c 24 38          	fldt   0x38(%rsp)
    55cc:	d9 c1                	fld    %st(1)
    55ce:	d9 e1                	fabs   
    55d0:	d9 c1                	fld    %st(1)
    55d2:	d9 e1                	fabs   
    55d4:	db f1                	fcomi  %st(1),%st
    55d6:	0f 86 04 01 00 00    	jbe    56e0 <__divxc3@@GCC_4.0.0+0x120>
    55dc:	d9 c3                	fld    %st(3)
    55de:	d8 f3                	fdiv   %st(3),%st
    55e0:	d9 c4                	fld    %st(4)
    55e2:	d8 c9                	fmul   %st(1),%st
    55e4:	d8 c4                	fadd   %st(4),%st
    55e6:	db 6c 24 08          	fldt   0x8(%rsp)
    55ea:	d8 ca                	fmul   %st(2),%st
    55ec:	db 6c 24 18          	fldt   0x18(%rsp)
    55f0:	dc c1                	fadd   %st,%st(1)
    55f2:	d9 c9                	fxch   %st(1)
    55f4:	d8 f2                	fdiv   %st(2),%st
    55f6:	d9 cb                	fxch   %st(3)
    55f8:	de c9                	fmulp  %st,%st(1)
    55fa:	db 6c 24 08          	fldt   0x8(%rsp)
    55fe:	de e9                	fsubrp %st,%st(1)
    5600:	de f1                	fdivp  %st,%st(1)
    5602:	d9 c9                	fxch   %st(1)
    5604:	db e8                	fucomi %st(0),%st
    5606:	0f 8b 8c 00 00 00    	jnp    5698 <__divxc3@@GCC_4.0.0+0xd8>
    560c:	d9 c9                	fxch   %st(1)
    560e:	db e8                	fucomi %st(0),%st
    5610:	0f 8b 92 00 00 00    	jnp    56a8 <__divxc3@@GCC_4.0.0+0xe8>
    5616:	d9 ee                	fldz   
    5618:	ba 00 00 00 00       	mov    $0x0,%edx
    561d:	db ee                	fucomi %st(6),%st
    561f:	0f 9b c0             	setnp  %al
    5622:	0f 45 c2             	cmovne %edx,%eax
    5625:	84 c0                	test   %al,%al
    5627:	0f 84 e3 00 00 00    	je     5710 <__divxc3@@GCC_4.0.0+0x150>
    562d:	df ed                	fucomip %st(5),%st
    562f:	0f 9b c0             	setnp  %al
    5632:	0f 45 c2             	cmovne %edx,%eax
    5635:	84 c0                	test   %al,%al
    5637:	0f 84 d5 00 00 00    	je     5712 <__divxc3@@GCC_4.0.0+0x152>
    563d:	db 6c 24 08          	fldt   0x8(%rsp)
    5641:	df e8                	fucomip %st(0),%st
    5643:	7b 1b                	jnp    5660 <__divxc3@@GCC_4.0.0+0xa0>
    5645:	db 6c 24 18          	fldt   0x18(%rsp)
    5649:	df e8                	fucomip %st(0),%st
    564b:	0f 8a c1 00 00 00    	jp     5712 <__divxc3@@GCC_4.0.0+0x152>
    5651:	dd d8                	fstp   %st(0)
    5653:	dd d8                	fstp   %st(0)
    5655:	dd d8                	fstp   %st(0)
    5657:	dd d8                	fstp   %st(0)
    5659:	dd d8                	fstp   %st(0)
    565b:	eb 0d                	jmp    566a <__divxc3@@GCC_4.0.0+0xaa>
    565d:	0f 1f 00             	nopl   (%rax)
    5660:	dd d8                	fstp   %st(0)
    5662:	dd d8                	fstp   %st(0)
    5664:	dd d8                	fstp   %st(0)
    5666:	dd d8                	fstp   %st(0)
    5668:	dd d8                	fstp   %st(0)
    566a:	d9 e5                	fxam   
    566c:	df e0                	fnstsw %ax
    566e:	dd d8                	fstp   %st(0)
    5670:	d9 05 be fb 00 00    	flds   0xfbbe(%rip)        # 15234 <__emutls_register_common@@GCC_4.3.0+0x1224>
    5676:	f6 c4 02             	test   $0x2,%ah
    5679:	74 08                	je     5683 <__divxc3@@GCC_4.0.0+0xc3>
    567b:	dd d8                	fstp   %st(0)
    567d:	d9 05 1d fc 00 00    	flds   0xfc1d(%rip)        # 152a0 <__emutls_register_common@@GCC_4.3.0+0x1290>
    5683:	db 6c 24 08          	fldt   0x8(%rsp)
    5687:	d8 c9                	fmul   %st(1),%st
    5689:	db 6c 24 18          	fldt   0x18(%rsp)
    568d:	de ca                	fmulp  %st,%st(2)
    568f:	d9 c9                	fxch   %st(1)
    5691:	eb 41                	jmp    56d4 <__divxc3@@GCC_4.0.0+0x114>
    5693:	0f 1f 44 00 00       	nopl   0x0(%rax,%rax,1)
    5698:	dd dd                	fstp   %st(5)
    569a:	dd db                	fstp   %st(3)
    569c:	dd d8                	fstp   %st(0)
    569e:	dd d8                	fstp   %st(0)
    56a0:	eb 32                	jmp    56d4 <__divxc3@@GCC_4.0.0+0x114>
    56a2:	66 0f 1f 44 00 00    	nopw   0x0(%rax,%rax,1)
    56a8:	dd dc                	fstp   %st(4)
    56aa:	dd dc                	fstp   %st(4)
    56ac:	dd d8                	fstp   %st(0)
    56ae:	dd d8                	fstp   %st(0)
    56b0:	eb 22                	jmp    56d4 <__divxc3@@GCC_4.0.0+0x114>
    56b2:	66 0f 1f 44 00 00    	nopw   0x0(%rax,%rax,1)
    56b8:	dd da                	fstp   %st(2)
    56ba:	dd da                	fstp   %st(2)
    56bc:	eb 16                	jmp    56d4 <__divxc3@@GCC_4.0.0+0x114>
    56be:	66 90                	xchg   %ax,%ax
    56c0:	dd d8                	fstp   %st(0)
    56c2:	dd da                	fstp   %st(2)
    56c4:	dd da                	fstp   %st(2)
    56c6:	eb 0c                	jmp    56d4 <__divxc3@@GCC_4.0.0+0x114>
    56c8:	0f 1f 84 00 00 00 00 	nopl   0x0(%rax,%rax,1)
    56cf:	00 
    56d0:	dd da                	fstp   %st(2)
    56d2:	dd da                	fstp   %st(2)
    56d4:	d9 c9                	fxch   %st(1)
    56d6:	c3                   	retq   
    56d7:	66 0f 1f 84 00 00 00 	nopw   0x0(%rax,%rax,1)
    56de:	00 00 
    56e0:	d9 c2                	fld    %st(2)
    56e2:	d8 f4                	fdiv   %st(4),%st
    56e4:	d9 c3                	fld    %st(3)
    56e6:	d8 c9                	fmul   %st(1),%st
    56e8:	d8 c5                	fadd   %st(5),%st
    56ea:	db 6c 24 18          	fldt   0x18(%rsp)
    56ee:	d8 ca                	fmul   %st(2),%st
    56f0:	db 6c 24 08          	fldt   0x8(%rsp)
    56f4:	dc c1                	fadd   %st,%st(1)
    56f6:	d9 c9                	fxch   %st(1)
    56f8:	d8 f2                	fdiv   %st(2),%st
    56fa:	d9 cb                	fxch   %st(3)
    56fc:	de c9                	fmulp  %st,%st(1)
    56fe:	db 6c 24 18          	fldt   0x18(%rsp)
    5702:	de e1                	fsubp  %st,%st(1)
    5704:	de f1                	fdivp  %st,%st(1)
    5706:	d9 c9                	fxch   %st(1)
    5708:	e9 f7 fe ff ff       	jmpq   5604 <__divxc3@@GCC_4.0.0+0x44>
    570d:	0f 1f 00             	nopl   (%rax)
    5710:	dd d8                	fstp   %st(0)
    5712:	db 6c 24 08          	fldt   0x8(%rsp)
    5716:	d9 e1                	fabs   
    5718:	d9 c0                	fld    %st(0)
    571a:	db 7c 24 e8          	fstpt  -0x18(%rsp)
    571e:	db 2d 4c fb 00 00    	fldt   0xfb4c(%rip)        # 15270 <__emutls_register_common@@GCC_4.3.0+0x1260>
    5724:	d9 c9                	fxch   %st(1)
    5726:	df e9                	fucomip %st(1),%st
    5728:	dd d8                	fstp   %st(0)
    572a:	77 18                	ja     5744 <__divxc3@@GCC_4.0.0+0x184>
    572c:	db 6c 24 18          	fldt   0x18(%rsp)
    5730:	d9 e1                	fabs   
    5732:	db 2d 38 fb 00 00    	fldt   0xfb38(%rip)        # 15270 <__emutls_register_common@@GCC_4.3.0+0x1260>
    5738:	d9 c9                	fxch   %st(1)
    573a:	df e9                	fucomip %st(1),%st
    573c:	dd d8                	fstp   %st(0)
    573e:	0f 86 b6 00 00 00    	jbe    57fa <__divxc3@@GCC_4.0.0+0x23a>
    5744:	db 2d 26 fb 00 00    	fldt   0xfb26(%rip)        # 15270 <__emutls_register_common@@GCC_4.3.0+0x1260>
    574a:	db ec                	fucomi %st(4),%st
    574c:	0f 82 9e 00 00 00    	jb     57f0 <__divxc3@@GCC_4.0.0+0x230>
    5752:	db eb                	fucomi %st(3),%st
    5754:	0f 82 9e 00 00 00    	jb     57f8 <__divxc3@@GCC_4.0.0+0x238>
    575a:	dd dc                	fstp   %st(4)
    575c:	dd d8                	fstp   %st(0)
    575e:	dd d8                	fstp   %st(0)
    5760:	dd d8                	fstp   %st(0)
    5762:	db 6c 24 e8          	fldt   -0x18(%rsp)
    5766:	31 c0                	xor    %eax,%eax
    5768:	df e9                	fucomip %st(1),%st
    576a:	dd d8                	fstp   %st(0)
    576c:	0f 97 c0             	seta   %al
    576f:	89 44 24 e8          	mov    %eax,-0x18(%rsp)
    5773:	db 44 24 e8          	fildl  -0x18(%rsp)
    5777:	db 6c 24 08          	fldt   0x8(%rsp)
    577b:	d9 e5                	fxam   
    577d:	df e0                	fnstsw %ax
    577f:	dd d8                	fstp   %st(0)
    5781:	d9 e1                	fabs   
    5783:	f6 c4 02             	test   $0x2,%ah
    5786:	0f 85 34 01 00 00    	jne    58c0 <__divxc3@@GCC_4.0.0+0x300>
    578c:	db 6c 24 18          	fldt   0x18(%rsp)
    5790:	31 c0                	xor    %eax,%eax
    5792:	d9 e1                	fabs   
    5794:	db 2d d6 fa 00 00    	fldt   0xfad6(%rip)        # 15270 <__emutls_register_common@@GCC_4.3.0+0x1260>
    579a:	d9 c9                	fxch   %st(1)
    579c:	df e9                	fucomip %st(1),%st
    579e:	dd d8                	fstp   %st(0)
    57a0:	0f 97 c0             	seta   %al
    57a3:	89 44 24 e8          	mov    %eax,-0x18(%rsp)
    57a7:	db 44 24 e8          	fildl  -0x18(%rsp)
    57ab:	db 6c 24 18          	fldt   0x18(%rsp)
    57af:	d9 e5                	fxam   
    57b1:	df e0                	fnstsw %ax
    57b3:	dd d8                	fstp   %st(0)
    57b5:	d9 e1                	fabs   
    57b7:	f6 c4 02             	test   $0x2,%ah
    57ba:	0f 85 f0 00 00 00    	jne    58b0 <__divxc3@@GCC_4.0.0+0x2f0>
    57c0:	d9 c3                	fld    %st(3)
    57c2:	d8 ca                	fmul   %st(2),%st
    57c4:	d9 c3                	fld    %st(3)
    57c6:	d8 ca                	fmul   %st(2),%st
    57c8:	de c1                	faddp  %st,%st(1)
    57ca:	d9 05 64 fa 00 00    	flds   0xfa64(%rip)        # 15234 <__emutls_register_common@@GCC_4.3.0+0x1224>
    57d0:	dc c9                	fmul   %st,%st(1)
    57d2:	d9 cd                	fxch   %st(5)
    57d4:	de ca                	fmulp  %st,%st(2)
    57d6:	d9 ca                	fxch   %st(2)
    57d8:	de cb                	fmulp  %st,%st(3)
    57da:	de e2                	fsubp  %st,%st(2)
    57dc:	d9 c9                	fxch   %st(1)
    57de:	de ca                	fmulp  %st,%st(2)
    57e0:	d9 c9                	fxch   %st(1)
    57e2:	e9 ed fe ff ff       	jmpq   56d4 <__divxc3@@GCC_4.0.0+0x114>
    57e7:	66 0f 1f 84 00 00 00 	nopw   0x0(%rax,%rax,1)
    57ee:	00 00 
    57f0:	dd d8                	fstp   %st(0)
    57f2:	eb 06                	jmp    57fa <__divxc3@@GCC_4.0.0+0x23a>
    57f4:	0f 1f 40 00          	nopl   0x0(%rax)
    57f8:	dd d8                	fstp   %st(0)
    57fa:	db 2d 70 fa 00 00    	fldt   0xfa70(%rip)        # 15270 <__emutls_register_common@@GCC_4.3.0+0x1260>
    5800:	d9 cc                	fxch   %st(4)
    5802:	df ec                	fucomip %st(4),%st
    5804:	d9 ca                	fxch   %st(2)
    5806:	0f 96 c0             	setbe  %al
    5809:	df eb                	fucomip %st(3),%st
    580b:	dd da                	fstp   %st(2)
    580d:	0f 96 c2             	setbe  %dl
    5810:	84 c0                	test   %al,%al
    5812:	74 08                	je     581c <__divxc3@@GCC_4.0.0+0x25c>
    5814:	84 d2                	test   %dl,%dl
    5816:	0f 85 9c fe ff ff    	jne    56b8 <__divxc3@@GCC_4.0.0+0xf8>
    581c:	db 6c 24 e8          	fldt   -0x18(%rsp)
    5820:	db 2d 4a fa 00 00    	fldt   0xfa4a(%rip)        # 15270 <__emutls_register_common@@GCC_4.3.0+0x1260>
    5826:	db e9                	fucomi %st(1),%st
    5828:	dd d9                	fstp   %st(1)
    582a:	0f 82 90 fe ff ff    	jb     56c0 <__divxc3@@GCC_4.0.0+0x100>
    5830:	db 6c 24 18          	fldt   0x18(%rsp)
    5834:	d9 e1                	fabs   
    5836:	d9 c9                	fxch   %st(1)
    5838:	df e9                	fucomip %st(1),%st
    583a:	dd d8                	fstp   %st(0)
    583c:	0f 82 8e fe ff ff    	jb     56d0 <__divxc3@@GCC_4.0.0+0x110>
    5842:	dd d8                	fstp   %st(0)
    5844:	dd d8                	fstp   %st(0)
    5846:	83 f0 01             	xor    $0x1,%eax
    5849:	0f b6 c0             	movzbl %al,%eax
    584c:	89 44 24 e8          	mov    %eax,-0x18(%rsp)
    5850:	db 44 24 e8          	fildl  -0x18(%rsp)
    5854:	d9 ca                	fxch   %st(2)
    5856:	d9 e5                	fxam   
    5858:	df e0                	fnstsw %ax
    585a:	dd d8                	fstp   %st(0)
    585c:	d9 c9                	fxch   %st(1)
    585e:	d9 e1                	fabs   
    5860:	f6 c4 02             	test   $0x2,%ah
    5863:	75 6b                	jne    58d0 <__divxc3@@GCC_4.0.0+0x310>
    5865:	83 f2 01             	xor    $0x1,%edx
    5868:	0f b6 d2             	movzbl %dl,%edx
    586b:	89 54 24 e8          	mov    %edx,-0x18(%rsp)
    586f:	db 44 24 e8          	fildl  -0x18(%rsp)
    5873:	d9 ca                	fxch   %st(2)
    5875:	d9 e5                	fxam   
    5877:	df e0                	fnstsw %ax
    5879:	dd d8                	fstp   %st(0)
    587b:	d9 c9                	fxch   %st(1)
    587d:	d9 e1                	fabs   
    587f:	f6 c4 02             	test   $0x2,%ah
    5882:	75 54                	jne    58d8 <__divxc3@@GCC_4.0.0+0x318>
    5884:	db 6c 24 08          	fldt   0x8(%rsp)
    5888:	d8 ca                	fmul   %st(2),%st
    588a:	db 6c 24 18          	fldt   0x18(%rsp)
    588e:	d8 ca                	fmul   %st(2),%st
    5890:	de c1                	faddp  %st,%st(1)
    5892:	d9 ee                	fldz   
    5894:	de c9                	fmulp  %st,%st(1)
    5896:	db 6c 24 18          	fldt   0x18(%rsp)
    589a:	de cb                	fmulp  %st,%st(3)
    589c:	db 6c 24 08          	fldt   0x8(%rsp)
    58a0:	de ca                	fmulp  %st,%st(2)
    58a2:	d9 ca                	fxch   %st(2)
    58a4:	de e1                	fsubp  %st,%st(1)
    58a6:	d9 ee                	fldz   
    58a8:	de c9                	fmulp  %st,%st(1)
    58aa:	e9 25 fe ff ff       	jmpq   56d4 <__divxc3@@GCC_4.0.0+0x114>
    58af:	90                   	nop
    58b0:	d9 e0                	fchs   
    58b2:	e9 09 ff ff ff       	jmpq   57c0 <__divxc3@@GCC_4.0.0+0x200>
    58b7:	66 0f 1f 84 00 00 00 	nopw   0x0(%rax,%rax,1)
    58be:	00 00 
    58c0:	d9 e0                	fchs   
    58c2:	e9 c5 fe ff ff       	jmpq   578c <__divxc3@@GCC_4.0.0+0x1cc>
    58c7:	66 0f 1f 84 00 00 00 	nopw   0x0(%rax,%rax,1)
    58ce:	00 00 
    58d0:	d9 e0                	fchs   
    58d2:	eb 91                	jmp    5865 <__divxc3@@GCC_4.0.0+0x2a5>
    58d4:	0f 1f 40 00          	nopl   0x0(%rax)
    58d8:	d9 e0                	fchs   
    58da:	eb a8                	jmp    5884 <__divxc3@@GCC_4.0.0+0x2c4>
    58dc:	0f 1f 40 00          	nopl   0x0(%rax)

00000000000058e0 <__bswapsi2@@GCC_4.3.0>:
    58e0:	f3 0f 1e fa          	endbr64 
    58e4:	89 f8                	mov    %edi,%eax
    58e6:	0f c8                	bswap  %eax
    58e8:	c3                   	retq   
    58e9:	0f 1f 80 00 00 00 00 	nopl   0x0(%rax)

00000000000058f0 <__bswapdi2@@GCC_4.3.0>:
    58f0:	f3 0f 1e fa          	endbr64 
    58f4:	48 89 f8             	mov    %rdi,%rax
    58f7:	48 0f c8             	bswap  %rax
    58fa:	c3                   	retq   
    58fb:	0f 1f 44 00 00       	nopl   0x0(%rax,%rax,1)

0000000000005900 <__clrsbdi2@@GCC_4.7.0>:
    5900:	f3 0f 1e fa          	endbr64 
    5904:	48 89 f8             	mov    %rdi,%rax
    5907:	41 b8 3f 00 00 00    	mov    $0x3f,%r8d
    590d:	48 c1 f8 3f          	sar    $0x3f,%rax
    5911:	48 31 f8             	xor    %rdi,%rax
    5914:	74 0c                	je     5922 <__clrsbdi2@@GCC_4.7.0+0x22>
    5916:	48 0f bd c0          	bsr    %rax,%rax
    591a:	48 83 f0 3f          	xor    $0x3f,%rax
    591e:	44 8d 40 ff          	lea    -0x1(%rax),%r8d
    5922:	44 89 c0             	mov    %r8d,%eax
    5925:	c3                   	retq   
    5926:	66 2e 0f 1f 84 00 00 	nopw   %cs:0x0(%rax,%rax,1)
    592d:	00 00 00 

0000000000005930 <__clrsbti2@@GCC_4.7.0>:
    5930:	f3 0f 1e fa          	endbr64 
    5934:	48 85 f6             	test   %rsi,%rsi
    5937:	74 27                	je     5960 <__clrsbti2@@GCC_4.7.0+0x30>
    5939:	48 f7 d7             	not    %rdi
    593c:	48 83 fe ff          	cmp    $0xffffffffffffffff,%rsi
    5940:	74 1e                	je     5960 <__clrsbti2@@GCC_4.7.0+0x30>
    5942:	48 85 f6             	test   %rsi,%rsi
    5945:	78 31                	js     5978 <__clrsbti2@@GCC_4.7.0+0x48>
    5947:	48 89 f7             	mov    %rsi,%rdi
    594a:	31 c0                	xor    %eax,%eax
    594c:	48 0f bd ff          	bsr    %rdi,%rdi
    5950:	48 83 f7 3f          	xor    $0x3f,%rdi
    5954:	8d 44 38 ff          	lea    -0x1(%rax,%rdi,1),%eax
    5958:	c3                   	retq   
    5959:	0f 1f 80 00 00 00 00 	nopl   0x0(%rax)
    5960:	b8 7f 00 00 00       	mov    $0x7f,%eax
    5965:	48 85 ff             	test   %rdi,%rdi
    5968:	74 ee                	je     5958 <__clrsbti2@@GCC_4.7.0+0x28>
    596a:	b8 40 00 00 00       	mov    $0x40,%eax
    596f:	eb db                	jmp    594c <__clrsbti2@@GCC_4.7.0+0x1c>
    5971:	0f 1f 80 00 00 00 00 	nopl   0x0(%rax)
    5978:	48 f7 d6             	not    %rsi
    597b:	eb ca                	jmp    5947 <__clrsbti2@@GCC_4.7.0+0x17>
    597d:	0f 1f 00             	nopl   (%rax)

0000000000005980 <__fixunssfdi@@GCC_3.0>:
    5980:	f3 0f 1e fa          	endbr64 
    5984:	0f 2f 05 19 f9 00 00 	comiss 0xf919(%rip),%xmm0        # 152a4 <__emutls_register_common@@GCC_4.3.0+0x1294>
    598b:	73 0b                	jae    5998 <__fixunssfdi@@GCC_3.0+0x18>
    598d:	f3 48 0f 2c c0       	cvttss2si %xmm0,%rax
    5992:	c3                   	retq   
    5993:	0f 1f 44 00 00       	nopl   0x0(%rax,%rax,1)
    5998:	f3 0f 5c 05 04 f9 00 	subss  0xf904(%rip),%xmm0        # 152a4 <__emutls_register_common@@GCC_4.3.0+0x1294>
    599f:	00 
    59a0:	48 ba 00 00 00 00 00 	movabs $0x8000000000000000,%rdx
    59a7:	00 00 80 
    59aa:	f3 48 0f 2c c0       	cvttss2si %xmm0,%rax
    59af:	48 01 d0             	add    %rdx,%rax
    59b2:	c3                   	retq   
    59b3:	66 2e 0f 1f 84 00 00 	nopw   %cs:0x0(%rax,%rax,1)
    59ba:	00 00 00 
    59bd:	0f 1f 00             	nopl   (%rax)

00000000000059c0 <__fixunsdfdi@@GCC_3.0>:
    59c0:	f3 0f 1e fa          	endbr64 
    59c4:	f2 0f 10 0d dc f8 00 	movsd  0xf8dc(%rip),%xmm1        # 152a8 <__emutls_register_common@@GCC_4.3.0+0x1298>
    59cb:	00 
    59cc:	66 0f 2f c1          	comisd %xmm1,%xmm0
    59d0:	73 0e                	jae    59e0 <__fixunsdfdi@@GCC_3.0+0x20>
    59d2:	f2 48 0f 2c c0       	cvttsd2si %xmm0,%rax
    59d7:	c3                   	retq   
    59d8:	0f 1f 84 00 00 00 00 	nopl   0x0(%rax,%rax,1)
    59df:	00 
    59e0:	48 ba 00 00 00 00 00 	movabs $0x8000000000000000,%rdx
    59e7:	00 00 80 
    59ea:	f2 0f 5c c1          	subsd  %xmm1,%xmm0
    59ee:	f2 48 0f 2c c0       	cvttsd2si %xmm0,%rax
    59f3:	48 01 d0             	add    %rdx,%rax
    59f6:	c3                   	retq   
    59f7:	66 0f 1f 84 00 00 00 	nopw   0x0(%rax,%rax,1)
    59fe:	00 00 

0000000000005a00 <__fixunsxfdi@@GCC_3.0>:
    5a00:	f3 0f 1e fa          	endbr64 
    5a04:	d9 05 9a f8 00 00    	flds   0xf89a(%rip)        # 152a4 <__emutls_register_common@@GCC_4.3.0+0x1294>
    5a0a:	db 6c 24 08          	fldt   0x8(%rsp)
    5a0e:	db f1                	fcomi  %st(1),%st
    5a10:	73 2e                	jae    5a40 <__fixunsxfdi@@GCC_3.0+0x40>
    5a12:	dd d9                	fstp   %st(1)
    5a14:	d9 7c 24 f6          	fnstcw -0xa(%rsp)
    5a18:	0f b7 44 24 f6       	movzwl -0xa(%rsp),%eax
    5a1d:	80 cc 0c             	or     $0xc,%ah
    5a20:	66 89 44 24 f4       	mov    %ax,-0xc(%rsp)
    5a25:	d9 6c 24 f4          	fldcw  -0xc(%rsp)
    5a29:	df 7c 24 e8          	fistpll -0x18(%rsp)
    5a2d:	d9 6c 24 f6          	fldcw  -0xa(%rsp)
    5a31:	48 8b 44 24 e8       	mov    -0x18(%rsp),%rax
    5a36:	c3                   	retq   
    5a37:	66 0f 1f 84 00 00 00 	nopw   0x0(%rax,%rax,1)
    5a3e:	00 00 
    5a40:	d9 7c 24 f6          	fnstcw -0xa(%rsp)
    5a44:	de e1                	fsubp  %st,%st(1)
    5a46:	0f b7 44 24 f6       	movzwl -0xa(%rsp),%eax
    5a4b:	80 cc 0c             	or     $0xc,%ah
    5a4e:	66 89 44 24 f4       	mov    %ax,-0xc(%rsp)
    5a53:	48 b8 00 00 00 00 00 	movabs $0x8000000000000000,%rax
    5a5a:	00 00 80 
    5a5d:	d9 6c 24 f4          	fldcw  -0xc(%rsp)
    5a61:	df 7c 24 e8          	fistpll -0x18(%rsp)
    5a65:	d9 6c 24 f6          	fldcw  -0xa(%rsp)
    5a69:	48 03 44 24 e8       	add    -0x18(%rsp),%rax
    5a6e:	c3                   	retq   
    5a6f:	90                   	nop

0000000000005a70 <__fixsfti@@GCC_3.0>:
    5a70:	f3 0f 1e fa          	endbr64 
    5a74:	66 0f ef c9          	pxor   %xmm1,%xmm1
    5a78:	0f 2f c8             	comiss %xmm0,%xmm1
    5a7b:	77 0b                	ja     5a88 <__fixsfti@@GCC_3.0+0x18>
    5a7d:	e9 9e d9 ff ff       	jmpq   3420 <__fixunssfti@plt>
    5a82:	66 0f 1f 44 00 00    	nopw   0x0(%rax,%rax,1)
    5a88:	48 83 ec 08          	sub    $0x8,%rsp
    5a8c:	0f 57 05 8d f7 00 00 	xorps  0xf78d(%rip),%xmm0        # 15220 <__emutls_register_common@@GCC_4.3.0+0x1210>
    5a93:	e8 88 d9 ff ff       	callq  3420 <__fixunssfti@plt>
    5a98:	48 f7 d8             	neg    %rax
    5a9b:	48 83 d2 00          	adc    $0x0,%rdx
    5a9f:	48 83 c4 08          	add    $0x8,%rsp
    5aa3:	48 f7 da             	neg    %rdx
    5aa6:	c3                   	retq   
    5aa7:	66 0f 1f 84 00 00 00 	nopw   0x0(%rax,%rax,1)
    5aae:	00 00 

0000000000005ab0 <__fixdfti@@GCC_3.0>:
    5ab0:	f3 0f 1e fa          	endbr64 
    5ab4:	66 0f ef c9          	pxor   %xmm1,%xmm1
    5ab8:	66 0f 2f c8          	comisd %xmm0,%xmm1
    5abc:	77 0a                	ja     5ac8 <__fixdfti@@GCC_3.0+0x18>
    5abe:	e9 ad da ff ff       	jmpq   3570 <__fixunsdfti@plt>
    5ac3:	0f 1f 44 00 00       	nopl   0x0(%rax,%rax,1)
    5ac8:	48 83 ec 08          	sub    $0x8,%rsp
    5acc:	66 0f 57 05 7c f7 00 	xorpd  0xf77c(%rip),%xmm0        # 15250 <__emutls_register_common@@GCC_4.3.0+0x1240>
    5ad3:	00 
    5ad4:	e8 97 da ff ff       	callq  3570 <__fixunsdfti@plt>
    5ad9:	48 f7 d8             	neg    %rax
    5adc:	48 83 d2 00          	adc    $0x0,%rdx
    5ae0:	48 83 c4 08          	add    $0x8,%rsp
    5ae4:	48 f7 da             	neg    %rdx
    5ae7:	c3                   	retq   
    5ae8:	0f 1f 84 00 00 00 00 	nopl   0x0(%rax,%rax,1)
    5aef:	00 

0000000000005af0 <__fixxfti@@GCC_3.0>:
    5af0:	f3 0f 1e fa          	endbr64 
    5af4:	48 83 ec 08          	sub    $0x8,%rsp
    5af8:	db 6c 24 10          	fldt   0x10(%rsp)
    5afc:	d9 ee                	fldz   
    5afe:	df f1                	fcomip %st(1),%st
    5b00:	77 0e                	ja     5b10 <__fixxfti@@GCC_3.0+0x20>
    5b02:	dd d8                	fstp   %st(0)
    5b04:	48 83 c4 08          	add    $0x8,%rsp
    5b08:	e9 73 d8 ff ff       	jmpq   3380 <__fixunsxfti@plt>
    5b0d:	0f 1f 00             	nopl   (%rax)
    5b10:	d9 e0                	fchs   
    5b12:	48 83 ec 10          	sub    $0x10,%rsp
    5b16:	db 3c 24             	fstpt  (%rsp)
    5b19:	e8 62 d8 ff ff       	callq  3380 <__fixunsxfti@plt>
    5b1e:	48 f7 d8             	neg    %rax
    5b21:	48 83 d2 00          	adc    $0x0,%rdx
    5b25:	48 83 c4 18          	add    $0x18,%rsp
    5b29:	48 f7 da             	neg    %rdx
    5b2c:	c3                   	retq   
    5b2d:	0f 1f 00             	nopl   (%rax)

0000000000005b30 <__fixunssfti@@GCC_3.0>:
    5b30:	f3 0f 1e fa          	endbr64 
    5b34:	f2 0f 10 0d 74 f7 00 	movsd  0xf774(%rip),%xmm1        # 152b0 <__emutls_register_common@@GCC_4.3.0+0x12a0>
    5b3b:	00 
    5b3c:	f3 0f 5a c0          	cvtss2sd %xmm0,%xmm0
    5b40:	f2 0f 10 15 60 f7 00 	movsd  0xf760(%rip),%xmm2        # 152a8 <__emutls_register_common@@GCC_4.3.0+0x1298>
    5b47:	00 
    5b48:	f2 0f 59 c8          	mulsd  %xmm0,%xmm1
    5b4c:	66 0f 2f ca          	comisd %xmm2,%xmm1
    5b50:	73 2e                	jae    5b80 <__fixunssfti@@GCC_3.0+0x50>
    5b52:	f2 48 0f 2c d1       	cvttsd2si %xmm1,%rdx
    5b57:	48 85 d2             	test   %rdx,%rdx
    5b5a:	78 37                	js     5b93 <__fixunssfti@@GCC_3.0+0x63>
    5b5c:	66 0f ef c9          	pxor   %xmm1,%xmm1
    5b60:	f2 48 0f 2a ca       	cvtsi2sd %rdx,%xmm1
    5b65:	f2 0f 59 0d 4b f7 00 	mulsd  0xf74b(%rip),%xmm1        # 152b8 <__emutls_register_common@@GCC_4.3.0+0x12a8>
    5b6c:	00 
    5b6d:	f2 0f 5c c1          	subsd  %xmm1,%xmm0
    5b71:	66 0f 2f c2          	comisd %xmm2,%xmm0
    5b75:	73 41                	jae    5bb8 <__fixunssfti@@GCC_3.0+0x88>
    5b77:	f2 48 0f 2c c0       	cvttsd2si %xmm0,%rax
    5b7c:	c3                   	retq   
    5b7d:	0f 1f 00             	nopl   (%rax)
    5b80:	f2 0f 5c ca          	subsd  %xmm2,%xmm1
    5b84:	f2 48 0f 2c d1       	cvttsd2si %xmm1,%rdx
    5b89:	48 0f ba fa 3f       	btc    $0x3f,%rdx
    5b8e:	48 85 d2             	test   %rdx,%rdx
    5b91:	79 c9                	jns    5b5c <__fixunssfti@@GCC_3.0+0x2c>
    5b93:	48 89 d0             	mov    %rdx,%rax
    5b96:	48 89 d1             	mov    %rdx,%rcx
    5b99:	66 0f ef c9          	pxor   %xmm1,%xmm1
    5b9d:	48 d1 e8             	shr    %rax
    5ba0:	83 e1 01             	and    $0x1,%ecx
    5ba3:	48 09 c8             	or     %rcx,%rax
    5ba6:	f2 48 0f 2a c8       	cvtsi2sd %rax,%xmm1
    5bab:	f2 0f 58 c9          	addsd  %xmm1,%xmm1
    5baf:	eb b4                	jmp    5b65 <__fixunssfti@@GCC_3.0+0x35>
    5bb1:	0f 1f 80 00 00 00 00 	nopl   0x0(%rax)
    5bb8:	f2 0f 5c c2          	subsd  %xmm2,%xmm0
    5bbc:	f2 48 0f 2c c0       	cvttsd2si %xmm0,%rax
    5bc1:	48 0f ba f8 3f       	btc    $0x3f,%rax
    5bc6:	c3                   	retq   
    5bc7:	66 0f 1f 84 00 00 00 	nopw   0x0(%rax,%rax,1)
    5bce:	00 00 

0000000000005bd0 <__fixunsdfti@@GCC_3.0>:
    5bd0:	f3 0f 1e fa          	endbr64 
    5bd4:	f2 0f 10 0d d4 f6 00 	movsd  0xf6d4(%rip),%xmm1        # 152b0 <__emutls_register_common@@GCC_4.3.0+0x12a0>
    5bdb:	00 
    5bdc:	f2 0f 10 15 c4 f6 00 	movsd  0xf6c4(%rip),%xmm2        # 152a8 <__emutls_register_common@@GCC_4.3.0+0x1298>
    5be3:	00 
    5be4:	f2 0f 59 c8          	mulsd  %xmm0,%xmm1
    5be8:	66 0f 2f ca          	comisd %xmm2,%xmm1
    5bec:	73 32                	jae    5c20 <__fixunsdfti@@GCC_3.0+0x50>
    5bee:	f2 48 0f 2c d1       	cvttsd2si %xmm1,%rdx
    5bf3:	48 85 d2             	test   %rdx,%rdx
    5bf6:	78 3b                	js     5c33 <__fixunsdfti@@GCC_3.0+0x63>
    5bf8:	66 0f ef c9          	pxor   %xmm1,%xmm1
    5bfc:	f2 48 0f 2a ca       	cvtsi2sd %rdx,%xmm1
    5c01:	f2 0f 59 0d af f6 00 	mulsd  0xf6af(%rip),%xmm1        # 152b8 <__emutls_register_common@@GCC_4.3.0+0x12a8>
    5c08:	00 
    5c09:	f2 0f 5c c1          	subsd  %xmm1,%xmm0
    5c0d:	66 0f 2f c2          	comisd %xmm2,%xmm0
    5c11:	73 45                	jae    5c58 <__fixunsdfti@@GCC_3.0+0x88>
    5c13:	f2 48 0f 2c c0       	cvttsd2si %xmm0,%rax
    5c18:	c3                   	retq   
    5c19:	0f 1f 80 00 00 00 00 	nopl   0x0(%rax)
    5c20:	f2 0f 5c ca          	subsd  %xmm2,%xmm1
    5c24:	f2 48 0f 2c d1       	cvttsd2si %xmm1,%rdx
    5c29:	48 0f ba fa 3f       	btc    $0x3f,%rdx
    5c2e:	48 85 d2             	test   %rdx,%rdx
    5c31:	79 c5                	jns    5bf8 <__fixunsdfti@@GCC_3.0+0x28>
    5c33:	48 89 d0             	mov    %rdx,%rax
    5c36:	48 89 d1             	mov    %rdx,%rcx
    5c39:	66 0f ef c9          	pxor   %xmm1,%xmm1
    5c3d:	48 d1 e8             	shr    %rax
    5c40:	83 e1 01             	and    $0x1,%ecx
    5c43:	48 09 c8             	or     %rcx,%rax
    5c46:	f2 48 0f 2a c8       	cvtsi2sd %rax,%xmm1
    5c4b:	f2 0f 58 c9          	addsd  %xmm1,%xmm1
    5c4f:	eb b0                	jmp    5c01 <__fixunsdfti@@GCC_3.0+0x31>
    5c51:	0f 1f 80 00 00 00 00 	nopl   0x0(%rax)
    5c58:	f2 0f 5c c2          	subsd  %xmm2,%xmm0
    5c5c:	f2 48 0f 2c c0       	cvttsd2si %xmm0,%rax
    5c61:	48 0f ba f8 3f       	btc    $0x3f,%rax
    5c66:	c3                   	retq   
    5c67:	66 0f 1f 84 00 00 00 	nopw   0x0(%rax,%rax,1)
    5c6e:	00 00 

0000000000005c70 <__fixunsxfti@@GCC_3.0>:
    5c70:	f3 0f 1e fa          	endbr64 
    5c74:	41 55                	push   %r13
    5c76:	31 c0                	xor    %eax,%eax
    5c78:	31 d2                	xor    %edx,%edx
    5c7a:	41 54                	push   %r12
    5c7c:	48 83 ec 18          	sub    $0x18,%rsp
    5c80:	db 6c 24 30          	fldt   0x30(%rsp)
    5c84:	d9 ee                	fldz   
    5c86:	df f1                	fcomip %st(1),%st
    5c88:	0f 87 a2 00 00 00    	ja     5d30 <__fixunsxfti@@GCC_3.0+0xc0>
    5c8e:	d9 c0                	fld    %st(0)
    5c90:	d8 0d 2a f6 00 00    	fmuls  0xf62a(%rip)        # 152c0 <__emutls_register_common@@GCC_4.3.0+0x12b0>
    5c96:	d9 05 08 f6 00 00    	flds   0xf608(%rip)        # 152a4 <__emutls_register_common@@GCC_4.3.0+0x1294>
    5c9c:	d9 c9                	fxch   %st(1)
    5c9e:	db f1                	fcomi  %st(1),%st
    5ca0:	0f 83 9a 00 00 00    	jae    5d40 <__fixunsxfti@@GCC_3.0+0xd0>
    5ca6:	dd d9                	fstp   %st(1)
    5ca8:	d9 7c 24 0e          	fnstcw 0xe(%rsp)
    5cac:	0f b7 44 24 0e       	movzwl 0xe(%rsp),%eax
    5cb1:	80 cc 0c             	or     $0xc,%ah
    5cb4:	66 89 44 24 0c       	mov    %ax,0xc(%rsp)
    5cb9:	d9 6c 24 0c          	fldcw  0xc(%rsp)
    5cbd:	df 3c 24             	fistpll (%rsp)
    5cc0:	d9 6c 24 0e          	fldcw  0xe(%rsp)
    5cc4:	48 8b 04 24          	mov    (%rsp),%rax
    5cc8:	db 7c 24 30          	fstpt  0x30(%rsp)
    5ccc:	31 ff                	xor    %edi,%edi
    5cce:	48 89 c6             	mov    %rax,%rsi
    5cd1:	49 89 c5             	mov    %rax,%r13
    5cd4:	45 31 e4             	xor    %r12d,%r12d
    5cd7:	e8 e4 d7 ff ff       	callq  34c0 <__floatuntixf@plt>
    5cdc:	db 6c 24 30          	fldt   0x30(%rsp)
    5ce0:	de e1                	fsubp  %st,%st(1)
    5ce2:	d9 ee                	fldz   
    5ce4:	df f1                	fcomip %st(1),%st
    5ce6:	0f 87 84 00 00 00    	ja     5d70 <__fixunsxfti@@GCC_3.0+0x100>
    5cec:	d9 05 b2 f5 00 00    	flds   0xf5b2(%rip)        # 152a4 <__emutls_register_common@@GCC_4.3.0+0x1294>
    5cf2:	d9 c9                	fxch   %st(1)
    5cf4:	db f1                	fcomi  %st(1),%st
    5cf6:	0f 83 c4 00 00 00    	jae    5dc0 <__fixunsxfti@@GCC_3.0+0x150>
    5cfc:	dd d9                	fstp   %st(1)
    5cfe:	d9 7c 24 0e          	fnstcw 0xe(%rsp)
    5d02:	0f b7 44 24 0e       	movzwl 0xe(%rsp),%eax
    5d07:	80 cc 0c             	or     $0xc,%ah
    5d0a:	66 89 44 24 0c       	mov    %ax,0xc(%rsp)
    5d0f:	d9 6c 24 0c          	fldcw  0xc(%rsp)
    5d13:	df 3c 24             	fistpll (%rsp)
    5d16:	d9 6c 24 0e          	fldcw  0xe(%rsp)
    5d1a:	48 8b 0c 24          	mov    (%rsp),%rcx
    5d1e:	48 89 c8             	mov    %rcx,%rax
    5d21:	31 d2                	xor    %edx,%edx
    5d23:	4c 01 e0             	add    %r12,%rax
    5d26:	4c 11 ea             	adc    %r13,%rdx
    5d29:	eb 07                	jmp    5d32 <__fixunsxfti@@GCC_3.0+0xc2>
    5d2b:	0f 1f 44 00 00       	nopl   0x0(%rax,%rax,1)
    5d30:	dd d8                	fstp   %st(0)
    5d32:	48 83 c4 18          	add    $0x18,%rsp
    5d36:	41 5c                	pop    %r12
    5d38:	41 5d                	pop    %r13
    5d3a:	c3                   	retq   
    5d3b:	0f 1f 44 00 00       	nopl   0x0(%rax,%rax,1)
    5d40:	d9 7c 24 0e          	fnstcw 0xe(%rsp)
    5d44:	de e1                	fsubp  %st,%st(1)
    5d46:	0f b7 44 24 0e       	movzwl 0xe(%rsp),%eax
    5d4b:	80 cc 0c             	or     $0xc,%ah
    5d4e:	66 89 44 24 0c       	mov    %ax,0xc(%rsp)
    5d53:	d9 6c 24 0c          	fldcw  0xc(%rsp)
    5d57:	df 3c 24             	fistpll (%rsp)
    5d5a:	d9 6c 24 0e          	fldcw  0xe(%rsp)
    5d5e:	48 8b 04 24          	mov    (%rsp),%rax
    5d62:	48 0f ba f8 3f       	btc    $0x3f,%rax
    5d67:	e9 5c ff ff ff       	jmpq   5cc8 <__fixunsxfti@@GCC_3.0+0x58>
    5d6c:	0f 1f 40 00          	nopl   0x0(%rax)
    5d70:	d9 e0                	fchs   
    5d72:	d9 05 2c f5 00 00    	flds   0xf52c(%rip)        # 152a4 <__emutls_register_common@@GCC_4.3.0+0x1294>
    5d78:	d9 c9                	fxch   %st(1)
    5d7a:	db f1                	fcomi  %st(1),%st
    5d7c:	73 72                	jae    5df0 <__fixunsxfti@@GCC_3.0+0x180>
    5d7e:	dd d9                	fstp   %st(1)
    5d80:	d9 7c 24 0e          	fnstcw 0xe(%rsp)
    5d84:	0f b7 44 24 0e       	movzwl 0xe(%rsp),%eax
    5d89:	80 cc 0c             	or     $0xc,%ah
    5d8c:	66 89 44 24 0c       	mov    %ax,0xc(%rsp)
    5d91:	d9 6c 24 0c          	fldcw  0xc(%rsp)
    5d95:	df 3c 24             	fistpll (%rsp)
    5d98:	d9 6c 24 0e          	fldcw  0xe(%rsp)
    5d9c:	48 8b 04 24          	mov    (%rsp),%rax
    5da0:	48 89 c6             	mov    %rax,%rsi
    5da3:	4c 89 e0             	mov    %r12,%rax
    5da6:	31 ff                	xor    %edi,%edi
    5da8:	4c 89 ea             	mov    %r13,%rdx
    5dab:	48 29 f0             	sub    %rsi,%rax
    5dae:	48 19 fa             	sbb    %rdi,%rdx
    5db1:	48 83 c4 18          	add    $0x18,%rsp
    5db5:	41 5c                	pop    %r12
    5db7:	41 5d                	pop    %r13
    5db9:	c3                   	retq   
    5dba:	66 0f 1f 44 00 00    	nopw   0x0(%rax,%rax,1)
    5dc0:	d9 7c 24 0e          	fnstcw 0xe(%rsp)
    5dc4:	de e1                	fsubp  %st,%st(1)
    5dc6:	0f b7 44 24 0e       	movzwl 0xe(%rsp),%eax
    5dcb:	80 cc 0c             	or     $0xc,%ah
    5dce:	66 89 44 24 0c       	mov    %ax,0xc(%rsp)
    5dd3:	d9 6c 24 0c          	fldcw  0xc(%rsp)
    5dd7:	df 3c 24             	fistpll (%rsp)
    5dda:	d9 6c 24 0e          	fldcw  0xe(%rsp)
    5dde:	48 8b 0c 24          	mov    (%rsp),%rcx
    5de2:	48 0f ba f9 3f       	btc    $0x3f,%rcx
    5de7:	e9 32 ff ff ff       	jmpq   5d1e <__fixunsxfti@@GCC_3.0+0xae>
    5dec:	0f 1f 40 00          	nopl   0x0(%rax)
    5df0:	d9 7c 24 0e          	fnstcw 0xe(%rsp)
    5df4:	de e1                	fsubp  %st,%st(1)
    5df6:	0f b7 44 24 0e       	movzwl 0xe(%rsp),%eax
    5dfb:	80 cc 0c             	or     $0xc,%ah
    5dfe:	66 89 44 24 0c       	mov    %ax,0xc(%rsp)
    5e03:	d9 6c 24 0c          	fldcw  0xc(%rsp)
    5e07:	df 3c 24             	fistpll (%rsp)
    5e0a:	d9 6c 24 0e          	fldcw  0xe(%rsp)
    5e0e:	48 8b 04 24          	mov    (%rsp),%rax
    5e12:	48 0f ba f8 3f       	btc    $0x3f,%rax
    5e17:	eb 87                	jmp    5da0 <__fixunsxfti@@GCC_3.0+0x130>
    5e19:	0f 1f 80 00 00 00 00 	nopl   0x0(%rax)

0000000000005e20 <__floattisf@@GCC_3.0>:
    5e20:	f3 0f 1e fa          	endbr64 
    5e24:	48 89 f8             	mov    %rdi,%rax
    5e27:	48 89 f9             	mov    %rdi,%rcx
    5e2a:	48 c1 ff 3f          	sar    $0x3f,%rdi
    5e2e:	48 89 f2             	mov    %rsi,%rdx
    5e31:	48 39 f7             	cmp    %rsi,%rdi
    5e34:	0f 84 ae 00 00 00    	je     5ee8 <__floattisf@@GCC_3.0+0xc8>
    5e3a:	49 89 c0             	mov    %rax,%r8
    5e3d:	48 85 f6             	test   %rsi,%rsi
    5e40:	78 2e                	js     5e70 <__floattisf@@GCC_3.0+0x50>
    5e42:	0f 85 e0 00 00 00    	jne    5f28 <__floattisf@@GCC_3.0+0x108>
    5e48:	48 0f ac f0 01       	shrd   $0x1,%rsi,%rax
    5e4d:	83 e1 01             	and    $0x1,%ecx
    5e50:	0f 85 a2 00 00 00    	jne    5ef8 <__floattisf@@GCC_3.0+0xd8>
    5e56:	66 0f ef c9          	pxor   %xmm1,%xmm1
    5e5a:	f3 0f 10 05 62 f4 00 	movss  0xf462(%rip),%xmm0        # 152c4 <__emutls_register_common@@GCC_4.3.0+0x12b4>
    5e61:	00 
    5e62:	f3 48 0f 2a c8       	cvtsi2ss %rax,%xmm1
    5e67:	f3 0f 59 c1          	mulss  %xmm1,%xmm0
    5e6b:	c3                   	retq   
    5e6c:	0f 1f 40 00          	nopl   0x0(%rax)
    5e70:	48 f7 de             	neg    %rsi
    5e73:	48 0f bd fe          	bsr    %rsi,%rdi
    5e77:	48 83 f7 3f          	xor    $0x3f,%rdi
    5e7b:	85 ff                	test   %edi,%edi
    5e7d:	0f 84 85 00 00 00    	je     5f08 <__floattisf@@GCC_3.0+0xe8>
    5e83:	48 63 f7             	movslq %edi,%rsi
    5e86:	bf 41 00 00 00       	mov    $0x41,%edi
    5e8b:	66 0f ef c9          	pxor   %xmm1,%xmm1
    5e8f:	f3 0f 10 05 31 f4 00 	movss  0xf431(%rip),%xmm0        # 152c8 <__emutls_register_common@@GCC_4.3.0+0x12b8>
    5e96:	00 
    5e97:	48 29 f7             	sub    %rsi,%rdi
    5e9a:	89 f9                	mov    %edi,%ecx
    5e9c:	48 0f ad d0          	shrd   %cl,%rdx,%rax
    5ea0:	48 d3 fa             	sar    %cl,%rdx
    5ea3:	40 f6 c7 40          	test   $0x40,%dil
    5ea7:	b9 40 00 00 00       	mov    $0x40,%ecx
    5eac:	48 0f 45 c2          	cmovne %rdx,%rax
    5eb0:	29 f9                	sub    %edi,%ecx
    5eb2:	49 d3 e0             	shl    %cl,%r8
    5eb5:	48 89 c2             	mov    %rax,%rdx
    5eb8:	48 83 ca 01          	or     $0x1,%rdx
    5ebc:	4d 85 c0             	test   %r8,%r8
    5ebf:	48 0f 45 c2          	cmovne %rdx,%rax
    5ec3:	f3 48 0f 2a c8       	cvtsi2ss %rax,%xmm1
    5ec8:	48 83 ff 40          	cmp    $0x40,%rdi
    5ecc:	74 99                	je     5e67 <__floattisf@@GCC_3.0+0x47>
    5ece:	48 83 ff 3f          	cmp    $0x3f,%rdi
    5ed2:	75 64                	jne    5f38 <__floattisf@@GCC_3.0+0x118>
    5ed4:	f3 0f 10 05 c8 f3 00 	movss  0xf3c8(%rip),%xmm0        # 152a4 <__emutls_register_common@@GCC_4.3.0+0x1294>
    5edb:	00 
    5edc:	f3 0f 59 c1          	mulss  %xmm1,%xmm0
    5ee0:	c3                   	retq   
    5ee1:	0f 1f 80 00 00 00 00 	nopl   0x0(%rax)
    5ee8:	66 0f ef c0          	pxor   %xmm0,%xmm0
    5eec:	f3 48 0f 2a c0       	cvtsi2ss %rax,%xmm0
    5ef1:	c3                   	retq   
    5ef2:	66 0f 1f 44 00 00    	nopw   0x0(%rax,%rax,1)
    5ef8:	48 83 c8 01          	or     $0x1,%rax
    5efc:	e9 55 ff ff ff       	jmpq   5e56 <__floattisf@@GCC_3.0+0x36>
    5f01:	0f 1f 80 00 00 00 00 	nopl   0x0(%rax)
    5f08:	31 c0                	xor    %eax,%eax
    5f0a:	48 85 c9             	test   %rcx,%rcx
    5f0d:	66 0f ef c0          	pxor   %xmm0,%xmm0
    5f11:	0f 95 c0             	setne  %al
    5f14:	48 09 c6             	or     %rax,%rsi
    5f17:	f3 48 0f 2a c6       	cvtsi2ss %rsi,%xmm0
    5f1c:	f3 0f 59 05 a4 f3 00 	mulss  0xf3a4(%rip),%xmm0        # 152c8 <__emutls_register_common@@GCC_4.3.0+0x12b8>
    5f23:	00 
    5f24:	c3                   	retq   
    5f25:	0f 1f 00             	nopl   (%rax)
    5f28:	48 0f bd f6          	bsr    %rsi,%rsi
    5f2c:	48 83 f6 3f          	xor    $0x3f,%rsi
    5f30:	48 63 f6             	movslq %esi,%rsi
    5f33:	e9 4e ff ff ff       	jmpq   5e86 <__floattisf@@GCC_3.0+0x66>
    5f38:	b8 01 00 00 00       	mov    $0x1,%eax
    5f3d:	89 f9                	mov    %edi,%ecx
    5f3f:	66 0f ef c0          	pxor   %xmm0,%xmm0
    5f43:	48 d3 e0             	shl    %cl,%rax
    5f46:	f3 48 0f 2a c0       	cvtsi2ss %rax,%xmm0
    5f4b:	e9 17 ff ff ff       	jmpq   5e67 <__floattisf@@GCC_3.0+0x47>

0000000000005f50 <__floattidf@@GCC_3.0>:
    5f50:	f3 0f 1e fa          	endbr64 
    5f54:	48 89 f8             	mov    %rdi,%rax
    5f57:	48 89 f9             	mov    %rdi,%rcx
    5f5a:	48 c1 ff 3f          	sar    $0x3f,%rdi
    5f5e:	48 89 f2             	mov    %rsi,%rdx
    5f61:	48 39 f7             	cmp    %rsi,%rdi
    5f64:	0f 84 ae 00 00 00    	je     6018 <__floattidf@@GCC_3.0+0xc8>
    5f6a:	49 89 c0             	mov    %rax,%r8
    5f6d:	48 85 f6             	test   %rsi,%rsi
    5f70:	78 2e                	js     5fa0 <__floattidf@@GCC_3.0+0x50>
    5f72:	0f 85 e0 00 00 00    	jne    6058 <__floattidf@@GCC_3.0+0x108>
    5f78:	48 0f ac f0 01       	shrd   $0x1,%rsi,%rax
    5f7d:	83 e1 01             	and    $0x1,%ecx
    5f80:	0f 85 a2 00 00 00    	jne    6028 <__floattidf@@GCC_3.0+0xd8>
    5f86:	66 0f ef c9          	pxor   %xmm1,%xmm1
    5f8a:	f2 0f 10 05 3e f3 00 	movsd  0xf33e(%rip),%xmm0        # 152d0 <__emutls_register_common@@GCC_4.3.0+0x12c0>
    5f91:	00 
    5f92:	f2 48 0f 2a c8       	cvtsi2sd %rax,%xmm1
    5f97:	f2 0f 59 c1          	mulsd  %xmm1,%xmm0
    5f9b:	c3                   	retq   
    5f9c:	0f 1f 40 00          	nopl   0x0(%rax)
    5fa0:	48 f7 de             	neg    %rsi
    5fa3:	48 0f bd fe          	bsr    %rsi,%rdi
    5fa7:	48 83 f7 3f          	xor    $0x3f,%rdi
    5fab:	85 ff                	test   %edi,%edi
    5fad:	0f 84 85 00 00 00    	je     6038 <__floattidf@@GCC_3.0+0xe8>
    5fb3:	48 63 f7             	movslq %edi,%rsi
    5fb6:	bf 41 00 00 00       	mov    $0x41,%edi
    5fbb:	66 0f ef c9          	pxor   %xmm1,%xmm1
    5fbf:	f2 0f 10 05 f1 f2 00 	movsd  0xf2f1(%rip),%xmm0        # 152b8 <__emutls_register_common@@GCC_4.3.0+0x12a8>
    5fc6:	00 
    5fc7:	48 29 f7             	sub    %rsi,%rdi
    5fca:	89 f9                	mov    %edi,%ecx
    5fcc:	48 0f ad d0          	shrd   %cl,%rdx,%rax
    5fd0:	48 d3 fa             	sar    %cl,%rdx
    5fd3:	40 f6 c7 40          	test   $0x40,%dil
    5fd7:	b9 40 00 00 00       	mov    $0x40,%ecx
    5fdc:	48 0f 45 c2          	cmovne %rdx,%rax
    5fe0:	29 f9                	sub    %edi,%ecx
    5fe2:	49 d3 e0             	shl    %cl,%r8
    5fe5:	48 89 c2             	mov    %rax,%rdx
    5fe8:	48 83 ca 01          	or     $0x1,%rdx
    5fec:	4d 85 c0             	test   %r8,%r8
    5fef:	48 0f 45 c2          	cmovne %rdx,%rax
    5ff3:	f2 48 0f 2a c8       	cvtsi2sd %rax,%xmm1
    5ff8:	48 83 ff 40          	cmp    $0x40,%rdi
    5ffc:	74 99                	je     5f97 <__floattidf@@GCC_3.0+0x47>
    5ffe:	48 83 ff 3f          	cmp    $0x3f,%rdi
    6002:	75 64                	jne    6068 <__floattidf@@GCC_3.0+0x118>
    6004:	f2 0f 10 05 9c f2 00 	movsd  0xf29c(%rip),%xmm0        # 152a8 <__emutls_register_common@@GCC_4.3.0+0x1298>
    600b:	00 
    600c:	f2 0f 59 c1          	mulsd  %xmm1,%xmm0
    6010:	c3                   	retq   
    6011:	0f 1f 80 00 00 00 00 	nopl   0x0(%rax)
    6018:	66 0f ef c0          	pxor   %xmm0,%xmm0
    601c:	f2 48 0f 2a c0       	cvtsi2sd %rax,%xmm0
    6021:	c3                   	retq   
    6022:	66 0f 1f 44 00 00    	nopw   0x0(%rax,%rax,1)
    6028:	48 83 c8 01          	or     $0x1,%rax
    602c:	e9 55 ff ff ff       	jmpq   5f86 <__floattidf@@GCC_3.0+0x36>
    6031:	0f 1f 80 00 00 00 00 	nopl   0x0(%rax)
    6038:	31 c0                	xor    %eax,%eax
    603a:	48 85 c9             	test   %rcx,%rcx
    603d:	66 0f ef c0          	pxor   %xmm0,%xmm0
    6041:	0f 95 c0             	setne  %al
    6044:	48 09 c6             	or     %rax,%rsi
    6047:	f2 48 0f 2a c6       	cvtsi2sd %rsi,%xmm0
    604c:	f2 0f 59 05 64 f2 00 	mulsd  0xf264(%rip),%xmm0        # 152b8 <__emutls_register_common@@GCC_4.3.0+0x12a8>
    6053:	00 
    6054:	c3                   	retq   
    6055:	0f 1f 00             	nopl   (%rax)
    6058:	48 0f bd f6          	bsr    %rsi,%rsi
    605c:	48 83 f6 3f          	xor    $0x3f,%rsi
    6060:	48 63 f6             	movslq %esi,%rsi
    6063:	e9 4e ff ff ff       	jmpq   5fb6 <__floattidf@@GCC_3.0+0x66>
    6068:	b8 01 00 00 00       	mov    $0x1,%eax
    606d:	89 f9                	mov    %edi,%ecx
    606f:	66 0f ef c0          	pxor   %xmm0,%xmm0
    6073:	48 d3 e0             	shl    %cl,%rax
    6076:	f2 48 0f 2a c0       	cvtsi2sd %rax,%xmm0
    607b:	e9 17 ff ff ff       	jmpq   5f97 <__floattidf@@GCC_3.0+0x47>

0000000000006080 <__floattixf@@GCC_3.0>:
    6080:	f3 0f 1e fa          	endbr64 
    6084:	48 89 74 24 f0       	mov    %rsi,-0x10(%rsp)
    6089:	df 6c 24 f0          	fildll -0x10(%rsp)
    608d:	d9 05 35 f2 00 00    	flds   0xf235(%rip)        # 152c8 <__emutls_register_common@@GCC_4.3.0+0x12b8>
    6093:	48 89 7c 24 f0       	mov    %rdi,-0x10(%rsp)
    6098:	dc c9                	fmul   %st,%st(1)
    609a:	df 6c 24 f0          	fildll -0x10(%rsp)
    609e:	48 85 ff             	test   %rdi,%rdi
    60a1:	79 0d                	jns    60b0 <__floattixf@@GCC_3.0+0x30>
    60a3:	de c1                	faddp  %st,%st(1)
    60a5:	eb 0b                	jmp    60b2 <__floattixf@@GCC_3.0+0x32>
    60a7:	66 0f 1f 84 00 00 00 	nopw   0x0(%rax,%rax,1)
    60ae:	00 00 
    60b0:	dd d9                	fstp   %st(1)
    60b2:	de c1                	faddp  %st,%st(1)
    60b4:	c3                   	retq   
    60b5:	66 2e 0f 1f 84 00 00 	nopw   %cs:0x0(%rax,%rax,1)
    60bc:	00 00 00 
    60bf:	90                   	nop

00000000000060c0 <__floatuntisf@@GCC_4.2.0>:
    60c0:	f3 0f 1e fa          	endbr64 
    60c4:	48 89 f8             	mov    %rdi,%rax
    60c7:	48 89 f2             	mov    %rsi,%rdx
    60ca:	49 89 f8             	mov    %rdi,%r8
    60cd:	48 85 f6             	test   %rsi,%rsi
    60d0:	0f 84 aa 00 00 00    	je     6180 <__floatuntisf@@GCC_4.2.0+0xc0>
    60d6:	48 0f bd f6          	bsr    %rsi,%rsi
    60da:	bf 40 00 00 00       	mov    $0x40,%edi
    60df:	48 83 f6 3f          	xor    $0x3f,%rsi
    60e3:	48 63 f6             	movslq %esi,%rsi
    60e6:	48 29 f7             	sub    %rsi,%rdi
    60e9:	89 f9                	mov    %edi,%ecx
    60eb:	48 0f ad d0          	shrd   %cl,%rdx,%rax
    60ef:	48 d3 ea             	shr    %cl,%rdx
    60f2:	40 f6 c7 40          	test   $0x40,%dil
    60f6:	b9 40 00 00 00       	mov    $0x40,%ecx
    60fb:	48 0f 45 c2          	cmovne %rdx,%rax
    60ff:	29 f9                	sub    %edi,%ecx
    6101:	49 d3 e0             	shl    %cl,%r8
    6104:	48 89 c2             	mov    %rax,%rdx
    6107:	48 83 ca 01          	or     $0x1,%rdx
    610b:	4d 85 c0             	test   %r8,%r8
    610e:	48 0f 45 c2          	cmovne %rdx,%rax
    6112:	48 85 c0             	test   %rax,%rax
    6115:	78 41                	js     6158 <__floatuntisf@@GCC_4.2.0+0x98>
    6117:	66 0f ef c9          	pxor   %xmm1,%xmm1
    611b:	f3 48 0f 2a c8       	cvtsi2ss %rax,%xmm1
    6120:	f3 0f 10 05 a0 f1 00 	movss  0xf1a0(%rip),%xmm0        # 152c8 <__emutls_register_common@@GCC_4.3.0+0x12b8>
    6127:	00 
    6128:	48 83 ff 40          	cmp    $0x40,%rdi
    612c:	74 21                	je     614f <__floatuntisf@@GCC_4.2.0+0x8f>
    612e:	f3 0f 10 05 6e f1 00 	movss  0xf16e(%rip),%xmm0        # 152a4 <__emutls_register_common@@GCC_4.3.0+0x1294>
    6135:	00 
    6136:	48 83 ff 3f          	cmp    $0x3f,%rdi
    613a:	74 13                	je     614f <__floatuntisf@@GCC_4.2.0+0x8f>
    613c:	b8 01 00 00 00       	mov    $0x1,%eax
    6141:	89 f9                	mov    %edi,%ecx
    6143:	66 0f ef c0          	pxor   %xmm0,%xmm0
    6147:	48 d3 e0             	shl    %cl,%rax
    614a:	f3 48 0f 2a c0       	cvtsi2ss %rax,%xmm0
    614f:	f3 0f 59 c1          	mulss  %xmm1,%xmm0
    6153:	c3                   	retq   
    6154:	0f 1f 40 00          	nopl   0x0(%rax)
    6158:	48 89 c2             	mov    %rax,%rdx
    615b:	83 e0 01             	and    $0x1,%eax
    615e:	66 0f ef c0          	pxor   %xmm0,%xmm0
    6162:	48 d1 ea             	shr    %rdx
    6165:	48 09 c2             	or     %rax,%rdx
    6168:	f3 48 0f 2a c2       	cvtsi2ss %rdx,%xmm0
    616d:	0f 28 c8             	movaps %xmm0,%xmm1
    6170:	f3 0f 58 c8          	addss  %xmm0,%xmm1
    6174:	eb aa                	jmp    6120 <__floatuntisf@@GCC_4.2.0+0x60>
    6176:	66 2e 0f 1f 84 00 00 	nopw   %cs:0x0(%rax,%rax,1)
    617d:	00 00 00 
    6180:	48 85 ff             	test   %rdi,%rdi
    6183:	78 0b                	js     6190 <__floatuntisf@@GCC_4.2.0+0xd0>
    6185:	66 0f ef c0          	pxor   %xmm0,%xmm0
    6189:	f3 48 0f 2a c7       	cvtsi2ss %rdi,%xmm0
    618e:	c3                   	retq   
    618f:	90                   	nop
    6190:	48 d1 e8             	shr    %rax
    6193:	41 83 e0 01          	and    $0x1,%r8d
    6197:	66 0f ef c0          	pxor   %xmm0,%xmm0
    619b:	4c 09 c0             	or     %r8,%rax
    619e:	f3 48 0f 2a c0       	cvtsi2ss %rax,%xmm0
    61a3:	f3 0f 58 c0          	addss  %xmm0,%xmm0
    61a7:	c3                   	retq   
    61a8:	0f 1f 84 00 00 00 00 	nopl   0x0(%rax,%rax,1)
    61af:	00 

00000000000061b0 <__floatuntidf@@GCC_4.2.0>:
    61b0:	f3 0f 1e fa          	endbr64 
    61b4:	48 89 f8             	mov    %rdi,%rax
    61b7:	48 89 f2             	mov    %rsi,%rdx
    61ba:	49 89 f8             	mov    %rdi,%r8
    61bd:	48 85 f6             	test   %rsi,%rsi
    61c0:	0f 84 aa 00 00 00    	je     6270 <__floatuntidf@@GCC_4.2.0+0xc0>
    61c6:	48 0f bd f6          	bsr    %rsi,%rsi
    61ca:	bf 40 00 00 00       	mov    $0x40,%edi
    61cf:	48 83 f6 3f          	xor    $0x3f,%rsi
    61d3:	48 63 f6             	movslq %esi,%rsi
    61d6:	48 29 f7             	sub    %rsi,%rdi
    61d9:	89 f9                	mov    %edi,%ecx
    61db:	48 0f ad d0          	shrd   %cl,%rdx,%rax
    61df:	48 d3 ea             	shr    %cl,%rdx
    61e2:	40 f6 c7 40          	test   $0x40,%dil
    61e6:	b9 40 00 00 00       	mov    $0x40,%ecx
    61eb:	48 0f 45 c2          	cmovne %rdx,%rax
    61ef:	29 f9                	sub    %edi,%ecx
    61f1:	49 d3 e0             	shl    %cl,%r8
    61f4:	48 89 c2             	mov    %rax,%rdx
    61f7:	48 83 ca 01          	or     $0x1,%rdx
    61fb:	4d 85 c0             	test   %r8,%r8
    61fe:	48 0f 45 c2          	cmovne %rdx,%rax
    6202:	48 85 c0             	test   %rax,%rax
    6205:	78 41                	js     6248 <__floatuntidf@@GCC_4.2.0+0x98>
    6207:	66 0f ef c9          	pxor   %xmm1,%xmm1
    620b:	f2 48 0f 2a c8       	cvtsi2sd %rax,%xmm1
    6210:	f2 0f 10 05 a0 f0 00 	movsd  0xf0a0(%rip),%xmm0        # 152b8 <__emutls_register_common@@GCC_4.3.0+0x12a8>
    6217:	00 
    6218:	48 83 ff 40          	cmp    $0x40,%rdi
    621c:	74 21                	je     623f <__floatuntidf@@GCC_4.2.0+0x8f>
    621e:	f2 0f 10 05 82 f0 00 	movsd  0xf082(%rip),%xmm0        # 152a8 <__emutls_register_common@@GCC_4.3.0+0x1298>
    6225:	00 
    6226:	48 83 ff 3f          	cmp    $0x3f,%rdi
    622a:	74 13                	je     623f <__floatuntidf@@GCC_4.2.0+0x8f>
    622c:	b8 01 00 00 00       	mov    $0x1,%eax
    6231:	89 f9                	mov    %edi,%ecx
    6233:	66 0f ef c0          	pxor   %xmm0,%xmm0
    6237:	48 d3 e0             	shl    %cl,%rax
    623a:	f2 48 0f 2a c0       	cvtsi2sd %rax,%xmm0
    623f:	f2 0f 59 c1          	mulsd  %xmm1,%xmm0
    6243:	c3                   	retq   
    6244:	0f 1f 40 00          	nopl   0x0(%rax)
    6248:	48 89 c2             	mov    %rax,%rdx
    624b:	83 e0 01             	and    $0x1,%eax
    624e:	66 0f ef c0          	pxor   %xmm0,%xmm0
    6252:	48 d1 ea             	shr    %rdx
    6255:	48 09 c2             	or     %rax,%rdx
    6258:	f2 48 0f 2a c2       	cvtsi2sd %rdx,%xmm0
    625d:	66 0f 28 c8          	movapd %xmm0,%xmm1
    6261:	f2 0f 58 c8          	addsd  %xmm0,%xmm1
    6265:	eb a9                	jmp    6210 <__floatuntidf@@GCC_4.2.0+0x60>
    6267:	66 0f 1f 84 00 00 00 	nopw   0x0(%rax,%rax,1)
    626e:	00 00 
    6270:	48 85 ff             	test   %rdi,%rdi
    6273:	78 0b                	js     6280 <__floatuntidf@@GCC_4.2.0+0xd0>
    6275:	66 0f ef c0          	pxor   %xmm0,%xmm0
    6279:	f2 48 0f 2a c7       	cvtsi2sd %rdi,%xmm0
    627e:	c3                   	retq   
    627f:	90                   	nop
    6280:	48 d1 e8             	shr    %rax
    6283:	41 83 e0 01          	and    $0x1,%r8d
    6287:	66 0f ef c0          	pxor   %xmm0,%xmm0
    628b:	4c 09 c0             	or     %r8,%rax
    628e:	f2 48 0f 2a c0       	cvtsi2sd %rax,%xmm0
    6293:	f2 0f 58 c0          	addsd  %xmm0,%xmm0
    6297:	c3                   	retq   
    6298:	0f 1f 84 00 00 00 00 	nopl   0x0(%rax,%rax,1)
    629f:	00 

00000000000062a0 <__floatuntixf@@GCC_4.2.0>:
    62a0:	f3 0f 1e fa          	endbr64 
    62a4:	48 89 74 24 f0       	mov    %rsi,-0x10(%rsp)
    62a9:	df 6c 24 f0          	fildll -0x10(%rsp)
    62ad:	48 85 f6             	test   %rsi,%rsi
    62b0:	79 06                	jns    62b8 <__floatuntixf@@GCC_4.2.0+0x18>
    62b2:	d8 05 10 f0 00 00    	fadds  0xf010(%rip)        # 152c8 <__emutls_register_common@@GCC_4.3.0+0x12b8>
    62b8:	d9 05 0a f0 00 00    	flds   0xf00a(%rip)        # 152c8 <__emutls_register_common@@GCC_4.3.0+0x12b8>
    62be:	d9 c9                	fxch   %st(1)
    62c0:	48 89 7c 24 f0       	mov    %rdi,-0x10(%rsp)
    62c5:	d8 0d fd ef 00 00    	fmuls  0xeffd(%rip)        # 152c8 <__emutls_register_common@@GCC_4.3.0+0x12b8>
    62cb:	df 6c 24 f0          	fildll -0x10(%rsp)
    62cf:	48 85 ff             	test   %rdi,%rdi
    62d2:	79 0c                	jns    62e0 <__floatuntixf@@GCC_4.2.0+0x40>
    62d4:	de c2                	faddp  %st,%st(2)
    62d6:	d9 c9                	fxch   %st(1)
    62d8:	eb 0a                	jmp    62e4 <__floatuntixf@@GCC_4.2.0+0x44>
    62da:	66 0f 1f 44 00 00    	nopw   0x0(%rax,%rax,1)
    62e0:	dd da                	fstp   %st(2)
    62e2:	d9 c9                	fxch   %st(1)
    62e4:	de c1                	faddp  %st,%st(1)
    62e6:	c3                   	retq   
    62e7:	66 0f 1f 84 00 00 00 	nopw   0x0(%rax,%rax,1)
    62ee:	00 00 

00000000000062f0 <__divti3@@GCC_3.0>:
    62f0:	f3 0f 1e fa          	endbr64 
    62f4:	41 54                	push   %r12
    62f6:	49 89 fb             	mov    %rdi,%r11
    62f9:	48 89 d0             	mov    %rdx,%rax
    62fc:	31 ff                	xor    %edi,%edi
    62fe:	53                   	push   %rbx
    62ff:	48 89 ca             	mov    %rcx,%rdx
    6302:	48 85 f6             	test   %rsi,%rsi
    6305:	79 17                	jns    631e <__divti3@@GCC_3.0+0x2e>
    6307:	49 89 f4             	mov    %rsi,%r12
    630a:	49 f7 db             	neg    %r11
    630d:	48 c7 c7 ff ff ff ff 	mov    $0xffffffffffffffff,%rdi
    6314:	49 83 d4 00          	adc    $0x0,%r12
    6318:	49 f7 dc             	neg    %r12
    631b:	4c 89 e6             	mov    %r12,%rsi
    631e:	49 89 d2             	mov    %rdx,%r10
    6321:	48 85 d2             	test   %rdx,%rdx
    6324:	79 10                	jns    6336 <__divti3@@GCC_3.0+0x46>
    6326:	48 f7 d8             	neg    %rax
    6329:	48 f7 d7             	not    %rdi
    632c:	48 83 d2 00          	adc    $0x0,%rdx
    6330:	48 f7 da             	neg    %rdx
    6333:	49 89 d2             	mov    %rdx,%r10
    6336:	49 89 c1             	mov    %rax,%r9
    6339:	4d 89 d8             	mov    %r11,%r8
    633c:	4d 85 d2             	test   %r10,%r10
    633f:	75 1f                	jne    6360 <__divti3@@GCC_3.0+0x70>
    6341:	48 39 f0             	cmp    %rsi,%rax
    6344:	76 6a                	jbe    63b0 <__divti3@@GCC_3.0+0xc0>
    6346:	48 89 f2             	mov    %rsi,%rdx
    6349:	4c 89 d8             	mov    %r11,%rax
    634c:	31 f6                	xor    %esi,%esi
    634e:	49 f7 f1             	div    %r9
    6351:	48 89 c1             	mov    %rax,%rcx
    6354:	eb 13                	jmp    6369 <__divti3@@GCC_3.0+0x79>
    6356:	66 2e 0f 1f 84 00 00 	nopw   %cs:0x0(%rax,%rax,1)
    635d:	00 00 00 
    6360:	49 39 f2             	cmp    %rsi,%r10
    6363:	76 23                	jbe    6388 <__divti3@@GCC_3.0+0x98>
    6365:	31 f6                	xor    %esi,%esi
    6367:	31 c9                	xor    %ecx,%ecx
    6369:	48 89 c8             	mov    %rcx,%rax
    636c:	48 89 f2             	mov    %rsi,%rdx
    636f:	48 85 ff             	test   %rdi,%rdi
    6372:	74 0a                	je     637e <__divti3@@GCC_3.0+0x8e>
    6374:	48 f7 d8             	neg    %rax
    6377:	48 83 d2 00          	adc    $0x0,%rdx
    637b:	48 f7 da             	neg    %rdx
    637e:	5b                   	pop    %rbx
    637f:	41 5c                	pop    %r12
    6381:	c3                   	retq   
    6382:	66 0f 1f 44 00 00    	nopw   0x0(%rax,%rax,1)
    6388:	49 0f bd c2          	bsr    %r10,%rax
    638c:	48 83 f0 3f          	xor    $0x3f,%rax
    6390:	41 89 c3             	mov    %eax,%r11d
    6393:	85 c0                	test   %eax,%eax
    6395:	75 49                	jne    63e0 <__divti3@@GCC_3.0+0xf0>
    6397:	49 39 f2             	cmp    %rsi,%r10
    639a:	72 09                	jb     63a5 <__divti3@@GCC_3.0+0xb5>
    639c:	31 f6                	xor    %esi,%esi
    639e:	31 c9                	xor    %ecx,%ecx
    63a0:	4d 39 c1             	cmp    %r8,%r9
    63a3:	77 c4                	ja     6369 <__divti3@@GCC_3.0+0x79>
    63a5:	31 f6                	xor    %esi,%esi
    63a7:	b9 01 00 00 00       	mov    $0x1,%ecx
    63ac:	eb bb                	jmp    6369 <__divti3@@GCC_3.0+0x79>
    63ae:	66 90                	xchg   %ax,%ax
    63b0:	48 85 c0             	test   %rax,%rax
    63b3:	75 0d                	jne    63c2 <__divti3@@GCC_3.0+0xd2>
    63b5:	b8 01 00 00 00       	mov    $0x1,%eax
    63ba:	31 d2                	xor    %edx,%edx
    63bc:	49 f7 f2             	div    %r10
    63bf:	49 89 c1             	mov    %rax,%r9
    63c2:	48 89 f0             	mov    %rsi,%rax
    63c5:	31 d2                	xor    %edx,%edx
    63c7:	49 f7 f1             	div    %r9
    63ca:	48 89 c6             	mov    %rax,%rsi
    63cd:	4c 89 c0             	mov    %r8,%rax
    63d0:	49 f7 f1             	div    %r9
    63d3:	48 89 c1             	mov    %rax,%rcx
    63d6:	eb 91                	jmp    6369 <__divti3@@GCC_3.0+0x79>
    63d8:	0f 1f 84 00 00 00 00 	nopl   0x0(%rax,%rax,1)
    63df:	00 
    63e0:	89 c1                	mov    %eax,%ecx
    63e2:	ba 40 00 00 00       	mov    $0x40,%edx
    63e7:	4c 89 cb             	mov    %r9,%rbx
    63ea:	49 d3 e2             	shl    %cl,%r10
    63ed:	48 63 c8             	movslq %eax,%rcx
    63f0:	48 29 ca             	sub    %rcx,%rdx
    63f3:	89 d1                	mov    %edx,%ecx
    63f5:	48 d3 eb             	shr    %cl,%rbx
    63f8:	89 c1                	mov    %eax,%ecx
    63fa:	49 09 da             	or     %rbx,%r10
    63fd:	49 d3 e1             	shl    %cl,%r9
    6400:	48 89 f3             	mov    %rsi,%rbx
    6403:	89 d1                	mov    %edx,%ecx
    6405:	48 d3 eb             	shr    %cl,%rbx
    6408:	89 c1                	mov    %eax,%ecx
    640a:	4c 89 c0             	mov    %r8,%rax
    640d:	48 d3 e6             	shl    %cl,%rsi
    6410:	89 d1                	mov    %edx,%ecx
    6412:	48 89 da             	mov    %rbx,%rdx
    6415:	48 d3 e8             	shr    %cl,%rax
    6418:	48 89 c1             	mov    %rax,%rcx
    641b:	48 09 f1             	or     %rsi,%rcx
    641e:	48 89 c8             	mov    %rcx,%rax
    6421:	49 f7 f2             	div    %r10
    6424:	48 89 d3             	mov    %rdx,%rbx
    6427:	48 89 c6             	mov    %rax,%rsi
    642a:	49 f7 e1             	mul    %r9
    642d:	48 39 d3             	cmp    %rdx,%rbx
    6430:	72 1e                	jb     6450 <__divti3@@GCC_3.0+0x160>
    6432:	44 89 d9             	mov    %r11d,%ecx
    6435:	49 d3 e0             	shl    %cl,%r8
    6438:	49 39 c0             	cmp    %rax,%r8
    643b:	73 05                	jae    6442 <__divti3@@GCC_3.0+0x152>
    643d:	48 39 d3             	cmp    %rdx,%rbx
    6440:	74 0e                	je     6450 <__divti3@@GCC_3.0+0x160>
    6442:	48 89 f1             	mov    %rsi,%rcx
    6445:	31 f6                	xor    %esi,%esi
    6447:	e9 1d ff ff ff       	jmpq   6369 <__divti3@@GCC_3.0+0x79>
    644c:	0f 1f 40 00          	nopl   0x0(%rax)
    6450:	48 8d 4e ff          	lea    -0x1(%rsi),%rcx
    6454:	31 f6                	xor    %esi,%esi
    6456:	e9 0e ff ff ff       	jmpq   6369 <__divti3@@GCC_3.0+0x79>
    645b:	0f 1f 44 00 00       	nopl   0x0(%rax,%rax,1)

0000000000006460 <__modti3@@GCC_3.0>:
    6460:	f3 0f 1e fa          	endbr64 
    6464:	41 54                	push   %r12
    6466:	49 89 fa             	mov    %rdi,%r10
    6469:	49 89 d0             	mov    %rdx,%r8
    646c:	49 89 c9             	mov    %rcx,%r9
    646f:	55                   	push   %rbp
    6470:	31 ed                	xor    %ebp,%ebp
    6472:	53                   	push   %rbx
    6473:	48 85 f6             	test   %rsi,%rsi
    6476:	79 17                	jns    648f <__modti3@@GCC_3.0+0x2f>
    6478:	49 89 f3             	mov    %rsi,%r11
    647b:	49 f7 da             	neg    %r10
    647e:	48 c7 c5 ff ff ff ff 	mov    $0xffffffffffffffff,%rbp
    6485:	49 83 d3 00          	adc    $0x0,%r11
    6489:	49 f7 db             	neg    %r11
    648c:	4c 89 de             	mov    %r11,%rsi
    648f:	4c 89 cb             	mov    %r9,%rbx
    6492:	4d 85 c9             	test   %r9,%r9
    6495:	79 0d                	jns    64a4 <__modti3@@GCC_3.0+0x44>
    6497:	49 f7 d8             	neg    %r8
    649a:	49 83 d1 00          	adc    $0x0,%r9
    649e:	49 f7 d9             	neg    %r9
    64a1:	4c 89 cb             	mov    %r9,%rbx
    64a4:	4c 89 d7             	mov    %r10,%rdi
    64a7:	48 85 db             	test   %rbx,%rbx
    64aa:	75 1c                	jne    64c8 <__modti3@@GCC_3.0+0x68>
    64ac:	49 39 f0             	cmp    %rsi,%r8
    64af:	76 6f                	jbe    6520 <__modti3@@GCC_3.0+0xc0>
    64b1:	48 89 f2             	mov    %rsi,%rdx
    64b4:	4c 89 d0             	mov    %r10,%rax
    64b7:	49 f7 f0             	div    %r8
    64ba:	48 89 d6             	mov    %rdx,%rsi
    64bd:	48 89 f0             	mov    %rsi,%rax
    64c0:	31 d2                	xor    %edx,%edx
    64c2:	eb 12                	jmp    64d6 <__modti3@@GCC_3.0+0x76>
    64c4:	0f 1f 40 00          	nopl   0x0(%rax)
    64c8:	4c 89 d1             	mov    %r10,%rcx
    64cb:	48 39 f3             	cmp    %rsi,%rbx
    64ce:	76 20                	jbe    64f0 <__modti3@@GCC_3.0+0x90>
    64d0:	4c 89 d0             	mov    %r10,%rax
    64d3:	48 89 f2             	mov    %rsi,%rdx
    64d6:	48 85 ed             	test   %rbp,%rbp
    64d9:	74 0a                	je     64e5 <__modti3@@GCC_3.0+0x85>
    64db:	48 f7 d8             	neg    %rax
    64de:	48 83 d2 00          	adc    $0x0,%rdx
    64e2:	48 f7 da             	neg    %rdx
    64e5:	5b                   	pop    %rbx
    64e6:	5d                   	pop    %rbp
    64e7:	41 5c                	pop    %r12
    64e9:	c3                   	retq   
    64ea:	66 0f 1f 44 00 00    	nopw   0x0(%rax,%rax,1)
    64f0:	48 0f bd d3          	bsr    %rbx,%rdx
    64f4:	48 83 f2 3f          	xor    $0x3f,%rdx
    64f8:	85 d2                	test   %edx,%edx
    64fa:	75 54                	jne    6550 <__modti3@@GCC_3.0+0xf0>
    64fc:	48 39 f3             	cmp    %rsi,%rbx
    64ff:	0f 82 e3 00 00 00    	jb     65e8 <__modti3@@GCC_3.0+0x188>
    6505:	4d 39 d0             	cmp    %r10,%r8
    6508:	0f 86 da 00 00 00    	jbe    65e8 <__modti3@@GCC_3.0+0x188>
    650e:	48 89 c8             	mov    %rcx,%rax
    6511:	48 89 f2             	mov    %rsi,%rdx
    6514:	eb c0                	jmp    64d6 <__modti3@@GCC_3.0+0x76>
    6516:	66 2e 0f 1f 84 00 00 	nopw   %cs:0x0(%rax,%rax,1)
    651d:	00 00 00 
    6520:	4d 85 c0             	test   %r8,%r8
    6523:	75 11                	jne    6536 <__modti3@@GCC_3.0+0xd6>
    6525:	41 b8 01 00 00 00    	mov    $0x1,%r8d
    652b:	31 d2                	xor    %edx,%edx
    652d:	4c 89 c0             	mov    %r8,%rax
    6530:	48 f7 f3             	div    %rbx
    6533:	49 89 c0             	mov    %rax,%r8
    6536:	48 89 f0             	mov    %rsi,%rax
    6539:	31 d2                	xor    %edx,%edx
    653b:	49 f7 f0             	div    %r8
    653e:	48 89 f8             	mov    %rdi,%rax
    6541:	49 f7 f0             	div    %r8
    6544:	48 89 d6             	mov    %rdx,%rsi
    6547:	e9 71 ff ff ff       	jmpq   64bd <__modti3@@GCC_3.0+0x5d>
    654c:	0f 1f 40 00          	nopl   0x0(%rax)
    6550:	48 63 c2             	movslq %edx,%rax
    6553:	41 ba 40 00 00 00    	mov    $0x40,%r10d
    6559:	89 d1                	mov    %edx,%ecx
    655b:	49 89 f3             	mov    %rsi,%r11
    655e:	49 29 c2             	sub    %rax,%r10
    6561:	48 d3 e3             	shl    %cl,%rbx
    6564:	4c 89 c0             	mov    %r8,%rax
    6567:	41 89 d1             	mov    %edx,%r9d
    656a:	44 89 d1             	mov    %r10d,%ecx
    656d:	48 d3 e8             	shr    %cl,%rax
    6570:	89 d1                	mov    %edx,%ecx
    6572:	49 d3 e0             	shl    %cl,%r8
    6575:	44 89 d1             	mov    %r10d,%ecx
    6578:	48 09 c3             	or     %rax,%rbx
    657b:	48 89 f8             	mov    %rdi,%rax
    657e:	49 d3 eb             	shr    %cl,%r11
    6581:	89 d1                	mov    %edx,%ecx
    6583:	48 d3 e6             	shl    %cl,%rsi
    6586:	44 89 d1             	mov    %r10d,%ecx
    6589:	48 d3 e8             	shr    %cl,%rax
    658c:	89 d1                	mov    %edx,%ecx
    658e:	4c 89 da             	mov    %r11,%rdx
    6591:	48 09 f0             	or     %rsi,%rax
    6594:	48 d3 e7             	shl    %cl,%rdi
    6597:	48 f7 f3             	div    %rbx
    659a:	48 89 d6             	mov    %rdx,%rsi
    659d:	49 f7 e0             	mul    %r8
    65a0:	49 89 c4             	mov    %rax,%r12
    65a3:	49 89 d3             	mov    %rdx,%r11
    65a6:	48 39 d6             	cmp    %rdx,%rsi
    65a9:	72 07                	jb     65b2 <__modti3@@GCC_3.0+0x152>
    65ab:	75 11                	jne    65be <__modti3@@GCC_3.0+0x15e>
    65ad:	48 39 c7             	cmp    %rax,%rdi
    65b0:	73 0c                	jae    65be <__modti3@@GCC_3.0+0x15e>
    65b2:	4c 29 c0             	sub    %r8,%rax
    65b5:	48 19 da             	sbb    %rbx,%rdx
    65b8:	49 89 d3             	mov    %rdx,%r11
    65bb:	49 89 c4             	mov    %rax,%r12
    65be:	4c 29 e7             	sub    %r12,%rdi
    65c1:	4c 19 de             	sbb    %r11,%rsi
    65c4:	44 89 d1             	mov    %r10d,%ecx
    65c7:	49 89 f0             	mov    %rsi,%r8
    65ca:	49 d3 e0             	shl    %cl,%r8
    65cd:	44 89 c9             	mov    %r9d,%ecx
    65d0:	48 d3 ef             	shr    %cl,%rdi
    65d3:	48 d3 ee             	shr    %cl,%rsi
    65d6:	49 09 f8             	or     %rdi,%r8
    65d9:	48 89 f2             	mov    %rsi,%rdx
    65dc:	4c 89 c0             	mov    %r8,%rax
    65df:	e9 f2 fe ff ff       	jmpq   64d6 <__modti3@@GCC_3.0+0x76>
    65e4:	0f 1f 40 00          	nopl   0x0(%rax)
    65e8:	48 89 f9             	mov    %rdi,%rcx
    65eb:	4c 29 c1             	sub    %r8,%rcx
    65ee:	48 19 de             	sbb    %rbx,%rsi
    65f1:	e9 18 ff ff ff       	jmpq   650e <__modti3@@GCC_3.0+0xae>
    65f6:	66 2e 0f 1f 84 00 00 	nopw   %cs:0x0(%rax,%rax,1)
    65fd:	00 00 00 

0000000000006600 <__divmodti4@@GCC_7.0.0>:
    6600:	f3 0f 1e fa          	endbr64 
    6604:	41 57                	push   %r15
    6606:	48 89 d0             	mov    %rdx,%rax
    6609:	49 89 fa             	mov    %rdi,%r10
    660c:	48 89 ca             	mov    %rcx,%rdx
    660f:	41 56                	push   %r14
    6611:	41 55                	push   %r13
    6613:	41 54                	push   %r12
    6615:	55                   	push   %rbp
    6616:	53                   	push   %rbx
    6617:	31 db                	xor    %ebx,%ebx
    6619:	48 85 f6             	test   %rsi,%rsi
    661c:	79 17                	jns    6635 <__divmodti4@@GCC_7.0.0+0x35>
    661e:	49 89 f3             	mov    %rsi,%r11
    6621:	49 f7 da             	neg    %r10
    6624:	48 c7 c3 ff ff ff ff 	mov    $0xffffffffffffffff,%rbx
    662b:	49 83 d3 00          	adc    $0x0,%r11
    662f:	49 f7 db             	neg    %r11
    6632:	4c 89 de             	mov    %r11,%rsi
    6635:	49 89 d1             	mov    %rdx,%r9
    6638:	48 89 dd             	mov    %rbx,%rbp
    663b:	48 85 d2             	test   %rdx,%rdx
    663e:	79 10                	jns    6650 <__divmodti4@@GCC_7.0.0+0x50>
    6640:	48 f7 d8             	neg    %rax
    6643:	48 f7 d5             	not    %rbp
    6646:	48 83 d2 00          	adc    $0x0,%rdx
    664a:	48 f7 da             	neg    %rdx
    664d:	49 89 d1             	mov    %rdx,%r9
    6650:	49 89 c4             	mov    %rax,%r12
    6653:	4c 89 d7             	mov    %r10,%rdi
    6656:	4d 85 c9             	test   %r9,%r9
    6659:	75 25                	jne    6680 <__divmodti4@@GCC_7.0.0+0x80>
    665b:	48 39 f0             	cmp    %rsi,%rax
    665e:	0f 86 9c 00 00 00    	jbe    6700 <__divmodti4@@GCC_7.0.0+0x100>
    6664:	48 89 f2             	mov    %rsi,%rdx
    6667:	4c 89 d0             	mov    %r10,%rax
    666a:	31 f6                	xor    %esi,%esi
    666c:	49 f7 f4             	div    %r12
    666f:	48 89 c7             	mov    %rax,%rdi
    6672:	49 89 d4             	mov    %rdx,%r12
    6675:	45 31 ed             	xor    %r13d,%r13d
    6678:	48 89 f9             	mov    %rdi,%rcx
    667b:	eb 15                	jmp    6692 <__divmodti4@@GCC_7.0.0+0x92>
    667d:	0f 1f 00             	nopl   (%rax)
    6680:	4c 89 d0             	mov    %r10,%rax
    6683:	49 39 f1             	cmp    %rsi,%r9
    6686:	76 48                	jbe    66d0 <__divmodti4@@GCC_7.0.0+0xd0>
    6688:	49 89 f5             	mov    %rsi,%r13
    668b:	4d 89 d4             	mov    %r10,%r12
    668e:	31 f6                	xor    %esi,%esi
    6690:	31 c9                	xor    %ecx,%ecx
    6692:	48 89 c8             	mov    %rcx,%rax
    6695:	48 89 f2             	mov    %rsi,%rdx
    6698:	48 85 ed             	test   %rbp,%rbp
    669b:	74 0a                	je     66a7 <__divmodti4@@GCC_7.0.0+0xa7>
    669d:	48 f7 d8             	neg    %rax
    66a0:	48 83 d2 00          	adc    $0x0,%rdx
    66a4:	48 f7 da             	neg    %rdx
    66a7:	48 85 db             	test   %rbx,%rbx
    66aa:	74 0a                	je     66b6 <__divmodti4@@GCC_7.0.0+0xb6>
    66ac:	49 f7 dc             	neg    %r12
    66af:	49 83 d5 00          	adc    $0x0,%r13
    66b3:	49 f7 dd             	neg    %r13
    66b6:	4d 89 20             	mov    %r12,(%r8)
    66b9:	4d 89 68 08          	mov    %r13,0x8(%r8)
    66bd:	5b                   	pop    %rbx
    66be:	5d                   	pop    %rbp
    66bf:	41 5c                	pop    %r12
    66c1:	41 5d                	pop    %r13
    66c3:	41 5e                	pop    %r14
    66c5:	41 5f                	pop    %r15
    66c7:	c3                   	retq   
    66c8:	0f 1f 84 00 00 00 00 	nopl   0x0(%rax,%rax,1)
    66cf:	00 
    66d0:	4d 0f bd d9          	bsr    %r9,%r11
    66d4:	49 83 f3 3f          	xor    $0x3f,%r11
    66d8:	45 85 db             	test   %r11d,%r11d
    66db:	75 53                	jne    6730 <__divmodti4@@GCC_7.0.0+0x130>
    66dd:	49 39 f1             	cmp    %rsi,%r9
    66e0:	0f 82 fa 00 00 00    	jb     67e0 <__divmodti4@@GCC_7.0.0+0x1e0>
    66e6:	31 c9                	xor    %ecx,%ecx
    66e8:	4d 39 d4             	cmp    %r10,%r12
    66eb:	0f 86 ef 00 00 00    	jbe    67e0 <__divmodti4@@GCC_7.0.0+0x1e0>
    66f1:	49 89 f5             	mov    %rsi,%r13
    66f4:	49 89 c4             	mov    %rax,%r12
    66f7:	31 f6                	xor    %esi,%esi
    66f9:	eb 97                	jmp    6692 <__divmodti4@@GCC_7.0.0+0x92>
    66fb:	0f 1f 44 00 00       	nopl   0x0(%rax,%rax,1)
    6700:	48 85 c0             	test   %rax,%rax
    6703:	75 0d                	jne    6712 <__divmodti4@@GCC_7.0.0+0x112>
    6705:	b8 01 00 00 00       	mov    $0x1,%eax
    670a:	31 d2                	xor    %edx,%edx
    670c:	49 f7 f1             	div    %r9
    670f:	49 89 c4             	mov    %rax,%r12
    6712:	48 89 f0             	mov    %rsi,%rax
    6715:	31 d2                	xor    %edx,%edx
    6717:	49 f7 f4             	div    %r12
    671a:	48 89 c6             	mov    %rax,%rsi
    671d:	48 89 f8             	mov    %rdi,%rax
    6720:	49 f7 f4             	div    %r12
    6723:	48 89 c7             	mov    %rax,%rdi
    6726:	e9 47 ff ff ff       	jmpq   6672 <__divmodti4@@GCC_7.0.0+0x72>
    672b:	0f 1f 44 00 00       	nopl   0x0(%rax,%rax,1)
    6730:	49 63 c3             	movslq %r11d,%rax
    6733:	41 bd 40 00 00 00    	mov    $0x40,%r13d
    6739:	44 89 d9             	mov    %r11d,%ecx
    673c:	48 89 f2             	mov    %rsi,%rdx
    673f:	49 29 c5             	sub    %rax,%r13
    6742:	49 d3 e1             	shl    %cl,%r9
    6745:	4c 89 e0             	mov    %r12,%rax
    6748:	45 89 da             	mov    %r11d,%r10d
    674b:	44 89 e9             	mov    %r13d,%ecx
    674e:	48 d3 e8             	shr    %cl,%rax
    6751:	44 89 d9             	mov    %r11d,%ecx
    6754:	49 d3 e4             	shl    %cl,%r12
    6757:	44 89 e9             	mov    %r13d,%ecx
    675a:	49 09 c1             	or     %rax,%r9
    675d:	48 89 f8             	mov    %rdi,%rax
    6760:	48 d3 ea             	shr    %cl,%rdx
    6763:	44 89 d9             	mov    %r11d,%ecx
    6766:	48 d3 e6             	shl    %cl,%rsi
    6769:	44 89 e9             	mov    %r13d,%ecx
    676c:	48 d3 e8             	shr    %cl,%rax
    676f:	44 89 d9             	mov    %r11d,%ecx
    6772:	48 09 c6             	or     %rax,%rsi
    6775:	48 d3 e7             	shl    %cl,%rdi
    6778:	48 89 f0             	mov    %rsi,%rax
    677b:	49 f7 f1             	div    %r9
    677e:	48 89 d1             	mov    %rdx,%rcx
    6781:	49 89 c3             	mov    %rax,%r11
    6784:	48 89 c6             	mov    %rax,%rsi
    6787:	49 f7 e4             	mul    %r12
    678a:	49 89 c7             	mov    %rax,%r15
    678d:	49 89 d6             	mov    %rdx,%r14
    6790:	48 39 d1             	cmp    %rdx,%rcx
    6793:	72 07                	jb     679c <__divmodti4@@GCC_7.0.0+0x19c>
    6795:	75 15                	jne    67ac <__divmodti4@@GCC_7.0.0+0x1ac>
    6797:	48 39 c7             	cmp    %rax,%rdi
    679a:	73 10                	jae    67ac <__divmodti4@@GCC_7.0.0+0x1ac>
    679c:	4c 29 e0             	sub    %r12,%rax
    679f:	4c 19 ca             	sbb    %r9,%rdx
    67a2:	49 8d 73 ff          	lea    -0x1(%r11),%rsi
    67a6:	49 89 d6             	mov    %rdx,%r14
    67a9:	49 89 c7             	mov    %rax,%r15
    67ac:	48 89 c8             	mov    %rcx,%rax
    67af:	44 89 e9             	mov    %r13d,%ecx
    67b2:	4c 29 ff             	sub    %r15,%rdi
    67b5:	4c 19 f0             	sbb    %r14,%rax
    67b8:	48 89 c2             	mov    %rax,%rdx
    67bb:	48 d3 e2             	shl    %cl,%rdx
    67be:	44 89 d1             	mov    %r10d,%ecx
    67c1:	48 d3 ef             	shr    %cl,%rdi
    67c4:	48 d3 e8             	shr    %cl,%rax
    67c7:	48 89 f1             	mov    %rsi,%rcx
    67ca:	31 f6                	xor    %esi,%esi
    67cc:	48 09 fa             	or     %rdi,%rdx
    67cf:	49 89 c5             	mov    %rax,%r13
    67d2:	49 89 d4             	mov    %rdx,%r12
    67d5:	e9 b8 fe ff ff       	jmpq   6692 <__divmodti4@@GCC_7.0.0+0x92>
    67da:	66 0f 1f 44 00 00    	nopw   0x0(%rax,%rax,1)
    67e0:	48 89 f8             	mov    %rdi,%rax
    67e3:	b9 01 00 00 00       	mov    $0x1,%ecx
    67e8:	4c 29 e0             	sub    %r12,%rax
    67eb:	4c 19 ce             	sbb    %r9,%rsi
    67ee:	e9 fe fe ff ff       	jmpq   66f1 <__divmodti4@@GCC_7.0.0+0xf1>
    67f3:	66 2e 0f 1f 84 00 00 	nopw   %cs:0x0(%rax,%rax,1)
    67fa:	00 00 00 
    67fd:	0f 1f 00             	nopl   (%rax)

0000000000006800 <__udivti3@@GCC_3.0>:
    6800:	f3 0f 1e fa          	endbr64 
    6804:	49 89 d0             	mov    %rdx,%r8
    6807:	48 89 ca             	mov    %rcx,%rdx
    680a:	48 85 c9             	test   %rcx,%rcx
    680d:	75 11                	jne    6820 <__udivti3@@GCC_3.0+0x20>
    680f:	49 39 f0             	cmp    %rsi,%r8
    6812:	76 44                	jbe    6858 <__udivti3@@GCC_3.0+0x58>
    6814:	48 89 f8             	mov    %rdi,%rax
    6817:	48 89 f2             	mov    %rsi,%rdx
    681a:	49 f7 f0             	div    %r8
    681d:	31 d2                	xor    %edx,%edx
    681f:	c3                   	retq   
    6820:	48 39 f1             	cmp    %rsi,%rcx
    6823:	76 0b                	jbe    6830 <__udivti3@@GCC_3.0+0x30>
    6825:	31 d2                	xor    %edx,%edx
    6827:	31 c0                	xor    %eax,%eax
    6829:	c3                   	retq   
    682a:	66 0f 1f 44 00 00    	nopw   0x0(%rax,%rax,1)
    6830:	48 0f bd c1          	bsr    %rcx,%rax
    6834:	48 83 f0 3f          	xor    $0x3f,%rax
    6838:	41 89 c2             	mov    %eax,%r10d
    683b:	85 c0                	test   %eax,%eax
    683d:	75 49                	jne    6888 <__udivti3@@GCC_3.0+0x88>
    683f:	48 39 f1             	cmp    %rsi,%rcx
    6842:	72 09                	jb     684d <__udivti3@@GCC_3.0+0x4d>
    6844:	31 d2                	xor    %edx,%edx
    6846:	31 c0                	xor    %eax,%eax
    6848:	49 39 f8             	cmp    %rdi,%r8
    684b:	77 d2                	ja     681f <__udivti3@@GCC_3.0+0x1f>
    684d:	31 d2                	xor    %edx,%edx
    684f:	b8 01 00 00 00       	mov    $0x1,%eax
    6854:	c3                   	retq   
    6855:	0f 1f 00             	nopl   (%rax)
    6858:	4c 89 c1             	mov    %r8,%rcx
    685b:	4d 85 c0             	test   %r8,%r8
    685e:	75 0d                	jne    686d <__udivti3@@GCC_3.0+0x6d>
    6860:	b8 01 00 00 00       	mov    $0x1,%eax
    6865:	31 d2                	xor    %edx,%edx
    6867:	49 f7 f0             	div    %r8
    686a:	48 89 c1             	mov    %rax,%rcx
    686d:	31 d2                	xor    %edx,%edx
    686f:	48 89 f0             	mov    %rsi,%rax
    6872:	48 f7 f1             	div    %rcx
    6875:	48 89 c6             	mov    %rax,%rsi
    6878:	48 89 f8             	mov    %rdi,%rax
    687b:	48 f7 f1             	div    %rcx
    687e:	48 89 f2             	mov    %rsi,%rdx
    6881:	c3                   	retq   
    6882:	66 0f 1f 44 00 00    	nopw   0x0(%rax,%rax,1)
    6888:	89 c1                	mov    %eax,%ecx
    688a:	53                   	push   %rbx
    688b:	bb 40 00 00 00       	mov    $0x40,%ebx
    6890:	4d 89 c3             	mov    %r8,%r11
    6893:	48 d3 e2             	shl    %cl,%rdx
    6896:	48 63 c8             	movslq %eax,%rcx
    6899:	49 89 f1             	mov    %rsi,%r9
    689c:	48 29 cb             	sub    %rcx,%rbx
    689f:	89 d9                	mov    %ebx,%ecx
    68a1:	49 d3 eb             	shr    %cl,%r11
    68a4:	89 c1                	mov    %eax,%ecx
    68a6:	49 d3 e0             	shl    %cl,%r8
    68a9:	89 d9                	mov    %ebx,%ecx
    68ab:	49 09 d3             	or     %rdx,%r11
    68ae:	49 d3 e9             	shr    %cl,%r9
    68b1:	89 c1                	mov    %eax,%ecx
    68b3:	48 89 f8             	mov    %rdi,%rax
    68b6:	48 d3 e6             	shl    %cl,%rsi
    68b9:	89 d9                	mov    %ebx,%ecx
    68bb:	4c 89 ca             	mov    %r9,%rdx
    68be:	48 d3 e8             	shr    %cl,%rax
    68c1:	48 09 f0             	or     %rsi,%rax
    68c4:	49 f7 f3             	div    %r11
    68c7:	49 89 d1             	mov    %rdx,%r9
    68ca:	48 89 c6             	mov    %rax,%rsi
    68cd:	49 f7 e0             	mul    %r8
    68d0:	49 39 d1             	cmp    %rdx,%r9
    68d3:	72 1b                	jb     68f0 <__udivti3@@GCC_3.0+0xf0>
    68d5:	44 89 d1             	mov    %r10d,%ecx
    68d8:	48 d3 e7             	shl    %cl,%rdi
    68db:	48 39 c7             	cmp    %rax,%rdi
    68de:	73 05                	jae    68e5 <__udivti3@@GCC_3.0+0xe5>
    68e0:	49 39 d1             	cmp    %rdx,%r9
    68e3:	74 0b                	je     68f0 <__udivti3@@GCC_3.0+0xf0>
    68e5:	48 89 f0             	mov    %rsi,%rax
    68e8:	31 d2                	xor    %edx,%edx
    68ea:	5b                   	pop    %rbx
    68eb:	c3                   	retq   
    68ec:	0f 1f 40 00          	nopl   0x0(%rax)
    68f0:	48 8d 46 ff          	lea    -0x1(%rsi),%rax
    68f4:	31 d2                	xor    %edx,%edx
    68f6:	5b                   	pop    %rbx
    68f7:	c3                   	retq   
    68f8:	0f 1f 84 00 00 00 00 	nopl   0x0(%rax,%rax,1)
    68ff:	00 

0000000000006900 <__umodti3@@GCC_3.0>:
    6900:	f3 0f 1e fa          	endbr64 
    6904:	49 89 c9             	mov    %rcx,%r9
    6907:	49 89 d0             	mov    %rdx,%r8
    690a:	48 89 d1             	mov    %rdx,%rcx
    690d:	48 89 f2             	mov    %rsi,%rdx
    6910:	4d 85 c9             	test   %r9,%r9
    6913:	75 1b                	jne    6930 <__umodti3@@GCC_3.0+0x30>
    6915:	49 39 f0             	cmp    %rsi,%r8
    6918:	76 46                	jbe    6960 <__umodti3@@GCC_3.0+0x60>
    691a:	48 89 f8             	mov    %rdi,%rax
    691d:	49 f7 f0             	div    %r8
    6920:	48 89 d0             	mov    %rdx,%rax
    6923:	31 d2                	xor    %edx,%edx
    6925:	c3                   	retq   
    6926:	66 2e 0f 1f 84 00 00 	nopw   %cs:0x0(%rax,%rax,1)
    692d:	00 00 00 
    6930:	48 89 f8             	mov    %rdi,%rax
    6933:	49 39 f1             	cmp    %rsi,%r9
    6936:	77 ed                	ja     6925 <__umodti3@@GCC_3.0+0x25>
    6938:	53                   	push   %rbx
    6939:	49 0f bd d9          	bsr    %r9,%rbx
    693d:	48 83 f3 3f          	xor    $0x3f,%rbx
    6941:	85 db                	test   %ebx,%ebx
    6943:	75 4b                	jne    6990 <__umodti3@@GCC_3.0+0x90>
    6945:	49 39 f1             	cmp    %rsi,%r9
    6948:	0f 82 d2 00 00 00    	jb     6a20 <__umodti3@@GCC_3.0+0x120>
    694e:	49 39 f8             	cmp    %rdi,%r8
    6951:	0f 86 c9 00 00 00    	jbe    6a20 <__umodti3@@GCC_3.0+0x120>
    6957:	5b                   	pop    %rbx
    6958:	c3                   	retq   
    6959:	0f 1f 80 00 00 00 00 	nopl   0x0(%rax)
    6960:	4d 85 c0             	test   %r8,%r8
    6963:	75 0d                	jne    6972 <__umodti3@@GCC_3.0+0x72>
    6965:	b8 01 00 00 00       	mov    $0x1,%eax
    696a:	31 d2                	xor    %edx,%edx
    696c:	49 f7 f0             	div    %r8
    696f:	48 89 c1             	mov    %rax,%rcx
    6972:	48 89 f0             	mov    %rsi,%rax
    6975:	31 d2                	xor    %edx,%edx
    6977:	48 f7 f1             	div    %rcx
    697a:	48 89 f8             	mov    %rdi,%rax
    697d:	48 f7 f1             	div    %rcx
    6980:	48 89 d0             	mov    %rdx,%rax
    6983:	31 d2                	xor    %edx,%edx
    6985:	eb 9e                	jmp    6925 <__umodti3@@GCC_3.0+0x25>
    6987:	66 0f 1f 84 00 00 00 	nopw   0x0(%rax,%rax,1)
    698e:	00 00 
    6990:	48 63 c3             	movslq %ebx,%rax
    6993:	41 bb 40 00 00 00    	mov    $0x40,%r11d
    6999:	89 d9                	mov    %ebx,%ecx
    699b:	41 89 da             	mov    %ebx,%r10d
    699e:	49 29 c3             	sub    %rax,%r11
    69a1:	49 d3 e1             	shl    %cl,%r9
    69a4:	4c 89 c0             	mov    %r8,%rax
    69a7:	44 89 d9             	mov    %r11d,%ecx
    69aa:	48 d3 e8             	shr    %cl,%rax
    69ad:	89 d9                	mov    %ebx,%ecx
    69af:	49 d3 e0             	shl    %cl,%r8
    69b2:	44 89 d9             	mov    %r11d,%ecx
    69b5:	49 09 c1             	or     %rax,%r9
    69b8:	48 89 f8             	mov    %rdi,%rax
    69bb:	48 d3 ea             	shr    %cl,%rdx
    69be:	89 d9                	mov    %ebx,%ecx
    69c0:	48 d3 e6             	shl    %cl,%rsi
    69c3:	44 89 d9             	mov    %r11d,%ecx
    69c6:	48 d3 e8             	shr    %cl,%rax
    69c9:	89 d9                	mov    %ebx,%ecx
    69cb:	48 09 f0             	or     %rsi,%rax
    69ce:	48 d3 e7             	shl    %cl,%rdi
    69d1:	49 f7 f1             	div    %r9
    69d4:	48 89 d6             	mov    %rdx,%rsi
    69d7:	49 f7 e0             	mul    %r8
    69da:	48 89 c3             	mov    %rax,%rbx
    69dd:	48 89 d1             	mov    %rdx,%rcx
    69e0:	48 39 d6             	cmp    %rdx,%rsi
    69e3:	72 07                	jb     69ec <__umodti3@@GCC_3.0+0xec>
    69e5:	75 11                	jne    69f8 <__umodti3@@GCC_3.0+0xf8>
    69e7:	48 39 c7             	cmp    %rax,%rdi
    69ea:	73 0c                	jae    69f8 <__umodti3@@GCC_3.0+0xf8>
    69ec:	4c 29 c0             	sub    %r8,%rax
    69ef:	4c 19 ca             	sbb    %r9,%rdx
    69f2:	48 89 d1             	mov    %rdx,%rcx
    69f5:	48 89 c3             	mov    %rax,%rbx
    69f8:	48 29 df             	sub    %rbx,%rdi
    69fb:	48 19 ce             	sbb    %rcx,%rsi
    69fe:	44 89 d9             	mov    %r11d,%ecx
    6a01:	48 89 f0             	mov    %rsi,%rax
    6a04:	48 d3 e0             	shl    %cl,%rax
    6a07:	44 89 d1             	mov    %r10d,%ecx
    6a0a:	48 d3 ef             	shr    %cl,%rdi
    6a0d:	48 d3 ee             	shr    %cl,%rsi
    6a10:	48 09 f8             	or     %rdi,%rax
    6a13:	48 89 f2             	mov    %rsi,%rdx
    6a16:	5b                   	pop    %rbx
    6a17:	c3                   	retq   
    6a18:	0f 1f 84 00 00 00 00 	nopl   0x0(%rax,%rax,1)
    6a1f:	00 
    6a20:	48 89 f2             	mov    %rsi,%rdx
    6a23:	48 89 f8             	mov    %rdi,%rax
    6a26:	4c 29 c0             	sub    %r8,%rax
    6a29:	4c 19 ca             	sbb    %r9,%rdx
    6a2c:	5b                   	pop    %rbx
    6a2d:	c3                   	retq   
    6a2e:	66 90                	xchg   %ax,%ax

0000000000006a30 <__udivmodti4@@GCC_3.0>:
    6a30:	f3 0f 1e fa          	endbr64 
    6a34:	49 89 fa             	mov    %rdi,%r10
    6a37:	48 89 cf             	mov    %rcx,%rdi
    6a3a:	49 89 d1             	mov    %rdx,%r9
    6a3d:	48 89 d1             	mov    %rdx,%rcx
    6a40:	4c 89 d0             	mov    %r10,%rax
    6a43:	48 89 f2             	mov    %rsi,%rdx
    6a46:	48 85 ff             	test   %rdi,%rdi
    6a49:	75 2d                	jne    6a78 <__udivmodti4@@GCC_3.0+0x48>
    6a4b:	49 39 f1             	cmp    %rsi,%r9
    6a4e:	0f 86 94 00 00 00    	jbe    6ae8 <__udivmodti4@@GCC_3.0+0xb8>
    6a54:	49 f7 f1             	div    %r9
    6a57:	45 31 c9             	xor    %r9d,%r9d
    6a5a:	49 89 c3             	mov    %rax,%r11
    6a5d:	4d 85 c0             	test   %r8,%r8
    6a60:	74 0b                	je     6a6d <__udivmodti4@@GCC_3.0+0x3d>
    6a62:	49 89 10             	mov    %rdx,(%r8)
    6a65:	49 c7 40 08 00 00 00 	movq   $0x0,0x8(%r8)
    6a6c:	00 
    6a6d:	4c 89 d8             	mov    %r11,%rax
    6a70:	4c 89 ca             	mov    %r9,%rdx
    6a73:	c3                   	retq   
    6a74:	0f 1f 40 00          	nopl   0x0(%rax)
    6a78:	48 39 f7             	cmp    %rsi,%rdi
    6a7b:	76 23                	jbe    6aa0 <__udivmodti4@@GCC_3.0+0x70>
    6a7d:	4d 85 c0             	test   %r8,%r8
    6a80:	0f 84 42 01 00 00    	je     6bc8 <__udivmodti4@@GCC_3.0+0x198>
    6a86:	45 31 c9             	xor    %r9d,%r9d
    6a89:	45 31 db             	xor    %r11d,%r11d
    6a8c:	4d 89 10             	mov    %r10,(%r8)
    6a8f:	4c 89 d8             	mov    %r11,%rax
    6a92:	4c 89 ca             	mov    %r9,%rdx
    6a95:	49 89 70 08          	mov    %rsi,0x8(%r8)
    6a99:	c3                   	retq   
    6a9a:	66 0f 1f 44 00 00    	nopw   0x0(%rax,%rax,1)
    6aa0:	41 55                	push   %r13
    6aa2:	41 54                	push   %r12
    6aa4:	55                   	push   %rbp
    6aa5:	53                   	push   %rbx
    6aa6:	48 0f bd df          	bsr    %rdi,%rbx
    6aaa:	48 83 f3 3f          	xor    $0x3f,%rbx
    6aae:	85 db                	test   %ebx,%ebx
    6ab0:	75 66                	jne    6b18 <__udivmodti4@@GCC_3.0+0xe8>
    6ab2:	48 39 f7             	cmp    %rsi,%rdi
    6ab5:	0f 82 1d 01 00 00    	jb     6bd8 <__udivmodti4@@GCC_3.0+0x1a8>
    6abb:	45 31 db             	xor    %r11d,%r11d
    6abe:	4d 39 d1             	cmp    %r10,%r9
    6ac1:	0f 86 11 01 00 00    	jbe    6bd8 <__udivmodti4@@GCC_3.0+0x1a8>
    6ac7:	45 31 c9             	xor    %r9d,%r9d
    6aca:	4d 85 c0             	test   %r8,%r8
    6acd:	74 07                	je     6ad6 <__udivmodti4@@GCC_3.0+0xa6>
    6acf:	49 89 00             	mov    %rax,(%r8)
    6ad2:	49 89 50 08          	mov    %rdx,0x8(%r8)
    6ad6:	4c 89 d8             	mov    %r11,%rax
    6ad9:	4c 89 ca             	mov    %r9,%rdx
    6adc:	5b                   	pop    %rbx
    6add:	5d                   	pop    %rbp
    6ade:	41 5c                	pop    %r12
    6ae0:	41 5d                	pop    %r13
    6ae2:	c3                   	retq   
    6ae3:	0f 1f 44 00 00       	nopl   0x0(%rax,%rax,1)
    6ae8:	4d 85 c9             	test   %r9,%r9
    6aeb:	75 0d                	jne    6afa <__udivmodti4@@GCC_3.0+0xca>
    6aed:	b8 01 00 00 00       	mov    $0x1,%eax
    6af2:	31 d2                	xor    %edx,%edx
    6af4:	49 f7 f1             	div    %r9
    6af7:	48 89 c1             	mov    %rax,%rcx
    6afa:	48 89 f0             	mov    %rsi,%rax
    6afd:	31 d2                	xor    %edx,%edx
    6aff:	48 f7 f1             	div    %rcx
    6b02:	48 89 c6             	mov    %rax,%rsi
    6b05:	4c 89 d0             	mov    %r10,%rax
    6b08:	49 89 f1             	mov    %rsi,%r9
    6b0b:	48 f7 f1             	div    %rcx
    6b0e:	e9 47 ff ff ff       	jmpq   6a5a <__udivmodti4@@GCC_3.0+0x2a>
    6b13:	0f 1f 44 00 00       	nopl   0x0(%rax,%rax,1)
    6b18:	48 63 c3             	movslq %ebx,%rax
    6b1b:	41 bc 40 00 00 00    	mov    $0x40,%r12d
    6b21:	89 d9                	mov    %ebx,%ecx
    6b23:	4d 89 d3             	mov    %r10,%r11
    6b26:	49 29 c4             	sub    %rax,%r12
    6b29:	48 d3 e7             	shl    %cl,%rdi
    6b2c:	4c 89 c8             	mov    %r9,%rax
    6b2f:	89 dd                	mov    %ebx,%ebp
    6b31:	44 89 e1             	mov    %r12d,%ecx
    6b34:	48 d3 e8             	shr    %cl,%rax
    6b37:	89 d9                	mov    %ebx,%ecx
    6b39:	49 d3 e1             	shl    %cl,%r9
    6b3c:	44 89 e1             	mov    %r12d,%ecx
    6b3f:	48 09 c7             	or     %rax,%rdi
    6b42:	48 d3 ea             	shr    %cl,%rdx
    6b45:	89 d9                	mov    %ebx,%ecx
    6b47:	48 d3 e6             	shl    %cl,%rsi
    6b4a:	44 89 e1             	mov    %r12d,%ecx
    6b4d:	49 d3 eb             	shr    %cl,%r11
    6b50:	89 d9                	mov    %ebx,%ecx
    6b52:	4c 09 de             	or     %r11,%rsi
    6b55:	49 d3 e2             	shl    %cl,%r10
    6b58:	48 89 f0             	mov    %rsi,%rax
    6b5b:	48 f7 f7             	div    %rdi
    6b5e:	48 89 d1             	mov    %rdx,%rcx
    6b61:	49 89 c3             	mov    %rax,%r11
    6b64:	48 89 c6             	mov    %rax,%rsi
    6b67:	49 f7 e1             	mul    %r9
    6b6a:	49 89 c5             	mov    %rax,%r13
    6b6d:	48 89 d3             	mov    %rdx,%rbx
    6b70:	48 39 d1             	cmp    %rdx,%rcx
    6b73:	72 07                	jb     6b7c <__udivmodti4@@GCC_3.0+0x14c>
    6b75:	75 15                	jne    6b8c <__udivmodti4@@GCC_3.0+0x15c>
    6b77:	49 39 c2             	cmp    %rax,%r10
    6b7a:	73 10                	jae    6b8c <__udivmodti4@@GCC_3.0+0x15c>
    6b7c:	4c 29 c8             	sub    %r9,%rax
    6b7f:	48 19 fa             	sbb    %rdi,%rdx
    6b82:	49 8d 73 ff          	lea    -0x1(%r11),%rsi
    6b86:	48 89 d3             	mov    %rdx,%rbx
    6b89:	49 89 c5             	mov    %rax,%r13
    6b8c:	49 89 f3             	mov    %rsi,%r11
    6b8f:	45 31 c9             	xor    %r9d,%r9d
    6b92:	4d 85 c0             	test   %r8,%r8
    6b95:	0f 84 3b ff ff ff    	je     6ad6 <__udivmodti4@@GCC_3.0+0xa6>
    6b9b:	48 89 ca             	mov    %rcx,%rdx
    6b9e:	44 89 e1             	mov    %r12d,%ecx
    6ba1:	4d 29 ea             	sub    %r13,%r10
    6ba4:	48 19 da             	sbb    %rbx,%rdx
    6ba7:	48 89 d0             	mov    %rdx,%rax
    6baa:	48 d3 e0             	shl    %cl,%rax
    6bad:	89 e9                	mov    %ebp,%ecx
    6baf:	49 d3 ea             	shr    %cl,%r10
    6bb2:	48 d3 ea             	shr    %cl,%rdx
    6bb5:	49 09 c2             	or     %rax,%r10
    6bb8:	49 89 50 08          	mov    %rdx,0x8(%r8)
    6bbc:	4d 89 10             	mov    %r10,(%r8)
    6bbf:	e9 12 ff ff ff       	jmpq   6ad6 <__udivmodti4@@GCC_3.0+0xa6>
    6bc4:	0f 1f 40 00          	nopl   0x0(%rax)
    6bc8:	45 31 c9             	xor    %r9d,%r9d
    6bcb:	45 31 db             	xor    %r11d,%r11d
    6bce:	e9 9a fe ff ff       	jmpq   6a6d <__udivmodti4@@GCC_3.0+0x3d>
    6bd3:	0f 1f 44 00 00       	nopl   0x0(%rax,%rax,1)
    6bd8:	48 89 f2             	mov    %rsi,%rdx
    6bdb:	4c 89 d0             	mov    %r10,%rax
    6bde:	41 bb 01 00 00 00    	mov    $0x1,%r11d
    6be4:	4c 29 c8             	sub    %r9,%rax
    6be7:	48 19 fa             	sbb    %rdi,%rdx
    6bea:	e9 d8 fe ff ff       	jmpq   6ac7 <__udivmodti4@@GCC_3.0+0x97>
    6bef:	90                   	nop
    6bf0:	f3 0f 1e fa          	endbr64 
    6bf4:	31 c0                	xor    %eax,%eax
    6bf6:	c3                   	retq   
    6bf7:	66 0f 1f 84 00 00 00 	nopw   0x0(%rax,%rax,1)
    6bfe:	00 00 
    6c00:	f3 0f 1e fa          	endbr64 
    6c04:	40 f6 c7 01          	test   $0x1,%dil
    6c08:	74 08                	je     6c12 <__udivmodti4@@GCC_3.0+0x1e2>
    6c0a:	66 0f ef c0          	pxor   %xmm0,%xmm0
    6c0e:	f3 0f 5e c0          	divss  %xmm0,%xmm0
    6c12:	40 f6 c7 02          	test   $0x2,%dil
    6c16:	74 0f                	je     6c27 <__udivmodti4@@GCC_3.0+0x1f7>
    6c18:	d9 74 24 e0          	fnstenv -0x20(%rsp)
    6c1c:	66 83 4c 24 e4 02    	orw    $0x2,-0x1c(%rsp)
    6c22:	d9 64 24 e0          	fldenv -0x20(%rsp)
    6c26:	9b                   	fwait
    6c27:	40 f6 c7 04          	test   $0x4,%dil
    6c2b:	74 10                	je     6c3d <__udivmodti4@@GCC_3.0+0x20d>
    6c2d:	f3 0f 10 05 cb e5 00 	movss  0xe5cb(%rip),%xmm0        # 15200 <__emutls_register_common@@GCC_4.3.0+0x11f0>
    6c34:	00 
    6c35:	f3 0f 5e 05 03 e9 00 	divss  0xe903(%rip),%xmm0        # 15540 <__emutls_register_common@@GCC_4.3.0+0x1530>
    6c3c:	00 
    6c3d:	40 f6 c7 08          	test   $0x8,%dil
    6c41:	74 0f                	je     6c52 <__udivmodti4@@GCC_3.0+0x222>
    6c43:	d9 74 24 e0          	fnstenv -0x20(%rsp)
    6c47:	66 83 4c 24 e4 08    	orw    $0x8,-0x1c(%rsp)
    6c4d:	d9 64 24 e0          	fldenv -0x20(%rsp)
    6c51:	9b                   	fwait
    6c52:	40 f6 c7 10          	test   $0x10,%dil
    6c56:	74 0f                	je     6c67 <__udivmodti4@@GCC_3.0+0x237>
    6c58:	d9 74 24 e0          	fnstenv -0x20(%rsp)
    6c5c:	66 83 4c 24 e4 10    	orw    $0x10,-0x1c(%rsp)
    6c62:	d9 64 24 e0          	fldenv -0x20(%rsp)
    6c66:	9b                   	fwait
    6c67:	83 e7 20             	and    $0x20,%edi
    6c6a:	74 10                	je     6c7c <__udivmodti4@@GCC_3.0+0x24c>
    6c6c:	f3 0f 10 05 8c e5 00 	movss  0xe58c(%rip),%xmm0        # 15200 <__emutls_register_common@@GCC_4.3.0+0x11f0>
    6c73:	00 
    6c74:	f3 0f 5e 05 c8 e8 00 	divss  0xe8c8(%rip),%xmm0        # 15544 <__emutls_register_common@@GCC_4.3.0+0x1534>
    6c7b:	00 
    6c7c:	c3                   	retq   
    6c7d:	0f 1f 00             	nopl   (%rax)

0000000000006c80 <__addtf3@@GCC_4.3.0>:
    6c80:	f3 0f 1e fa          	endbr64 
    6c84:	41 57                	push   %r15
    6c86:	41 56                	push   %r14
    6c88:	41 55                	push   %r13
    6c8a:	41 54                	push   %r12
    6c8c:	55                   	push   %rbp
    6c8d:	53                   	push   %rbx
    6c8e:	48 83 ec 38          	sub    $0x38,%rsp
    6c92:	0f 29 04 24          	movaps %xmm0,(%rsp)
    6c96:	0f 29 4c 24 10       	movaps %xmm1,0x10(%rsp)
    6c9b:	0f ae 5c 24 2c       	stmxcsr 0x2c(%rsp)
    6ca0:	48 8b 44 24 08       	mov    0x8(%rsp),%rax
    6ca5:	4c 8b 4c 24 18       	mov    0x18(%rsp),%r9
    6caa:	49 bc ff ff ff ff ff 	movabs $0xffffffffffff,%r12
    6cb1:	ff 00 00 
    6cb4:	48 8b 0c 24          	mov    (%rsp),%rcx
    6cb8:	4c 8b 54 24 10       	mov    0x10(%rsp),%r10
    6cbd:	48 89 c7             	mov    %rax,%rdi
    6cc0:	4c 89 cb             	mov    %r9,%rbx
    6cc3:	49 89 c3             	mov    %rax,%r11
    6cc6:	4d 89 cf             	mov    %r9,%r15
    6cc9:	48 c1 ef 30          	shr    $0x30,%rdi
    6ccd:	48 c1 eb 30          	shr    $0x30,%rbx
    6cd1:	4c 21 e0             	and    %r12,%rax
    6cd4:	4d 21 e1             	and    %r12,%r9
    6cd7:	89 fa                	mov    %edi,%edx
    6cd9:	89 dd                	mov    %ebx,%ebp
    6cdb:	48 89 ce             	mov    %rcx,%rsi
    6cde:	4d 89 d4             	mov    %r10,%r12
    6ce1:	66 81 e2 ff 7f       	and    $0x7fff,%dx
    6ce6:	66 81 e5 ff 7f       	and    $0x7fff,%bp
    6ceb:	49 c1 eb 3f          	shr    $0x3f,%r11
    6cef:	81 e7 ff 7f 00 00    	and    $0x7fff,%edi
    6cf5:	48 c1 ee 3d          	shr    $0x3d,%rsi
    6cf9:	49 c1 ec 3d          	shr    $0x3d,%r12
    6cfd:	0f b7 d2             	movzwl %dx,%edx
    6d00:	0f b7 ed             	movzwl %bp,%ebp
    6d03:	48 c1 e0 03          	shl    $0x3,%rax
    6d07:	49 c1 e1 03          	shl    $0x3,%r9
    6d0b:	45 89 d8             	mov    %r11d,%r8d
    6d0e:	45 0f b6 eb          	movzbl %r11b,%r13d
    6d12:	49 c1 ef 3f          	shr    $0x3f,%r15
    6d16:	48 09 f0             	or     %rsi,%rax
    6d19:	4d 09 e1             	or     %r12,%r9
    6d1c:	81 e3 ff 7f 00 00    	and    $0x7fff,%ebx
    6d22:	48 8d 34 cd 00 00 00 	lea    0x0(,%rcx,8),%rsi
    6d29:	00 
    6d2a:	4e 8d 24 d5 00 00 00 	lea    0x0(,%r10,8),%r12
    6d31:	00 
    6d32:	29 ea                	sub    %ebp,%edx
    6d34:	4d 39 fb             	cmp    %r15,%r11
    6d37:	0f 84 13 03 00 00    	je     7050 <__addtf3@@GCC_4.3.0+0x3d0>
    6d3d:	85 d2                	test   %edx,%edx
    6d3f:	0f 8e 5b 02 00 00    	jle    6fa0 <__addtf3@@GCC_4.3.0+0x320>
    6d45:	48 85 db             	test   %rbx,%rbx
    6d48:	0f 84 72 03 00 00    	je     70c0 <__addtf3@@GCC_4.3.0+0x440>
    6d4e:	49 0f ba e9 33       	bts    $0x33,%r9
    6d53:	31 ed                	xor    %ebp,%ebp
    6d55:	48 81 ff ff 7f 00 00 	cmp    $0x7fff,%rdi
    6d5c:	0f 84 0e 0b 00 00    	je     7870 <__addtf3@@GCC_4.3.0+0xbf0>
    6d62:	83 fa 74             	cmp    $0x74,%edx
    6d65:	0f 8f c5 06 00 00    	jg     7430 <__addtf3@@GCC_4.3.0+0x7b0>
    6d6b:	83 fa 3f             	cmp    $0x3f,%edx
    6d6e:	0f 8f d4 08 00 00    	jg     7648 <__addtf3@@GCC_4.3.0+0x9c8>
    6d74:	41 bb 40 00 00 00    	mov    $0x40,%r11d
    6d7a:	4d 89 ca             	mov    %r9,%r10
    6d7d:	4c 89 e3             	mov    %r12,%rbx
    6d80:	41 29 d3             	sub    %edx,%r11d
    6d83:	44 89 d9             	mov    %r11d,%ecx
    6d86:	49 d3 e2             	shl    %cl,%r10
    6d89:	89 d1                	mov    %edx,%ecx
    6d8b:	48 d3 eb             	shr    %cl,%rbx
    6d8e:	44 89 d9             	mov    %r11d,%ecx
    6d91:	49 d3 e4             	shl    %cl,%r12
    6d94:	49 09 da             	or     %rbx,%r10
    6d97:	31 c9                	xor    %ecx,%ecx
    6d99:	4d 85 e4             	test   %r12,%r12
    6d9c:	0f 95 c1             	setne  %cl
    6d9f:	49 09 ca             	or     %rcx,%r10
    6da2:	89 d1                	mov    %edx,%ecx
    6da4:	49 d3 e9             	shr    %cl,%r9
    6da7:	4c 29 d6             	sub    %r10,%rsi
    6daa:	4c 19 c8             	sbb    %r9,%rax
    6dad:	48 0f ba e0 33       	bt     $0x33,%rax
    6db2:	0f 83 73 04 00 00    	jae    722b <__addtf3@@GCC_4.3.0+0x5ab>
    6db8:	48 ba ff ff ff ff ff 	movabs $0x7ffffffffffff,%rdx
    6dbf:	ff 07 00 
    6dc2:	48 21 c2             	and    %rax,%rdx
    6dc5:	48 85 d2             	test   %rdx,%rdx
    6dc8:	0f 84 f2 04 00 00    	je     72c0 <__addtf3@@GCC_4.3.0+0x640>
    6dce:	48 0f bd ca          	bsr    %rdx,%rcx
    6dd2:	48 83 f1 3f          	xor    $0x3f,%rcx
    6dd6:	44 8d 49 f4          	lea    -0xc(%rcx),%r9d
    6dda:	44 89 c9             	mov    %r9d,%ecx
    6ddd:	48 89 f0             	mov    %rsi,%rax
    6de0:	48 d3 e2             	shl    %cl,%rdx
    6de3:	b9 40 00 00 00       	mov    $0x40,%ecx
    6de8:	44 29 c9             	sub    %r9d,%ecx
    6deb:	48 d3 e8             	shr    %cl,%rax
    6dee:	44 89 c9             	mov    %r9d,%ecx
    6df1:	48 d3 e6             	shl    %cl,%rsi
    6df4:	48 09 d0             	or     %rdx,%rax
    6df7:	48 89 f2             	mov    %rsi,%rdx
    6dfa:	49 63 c9             	movslq %r9d,%rcx
    6dfd:	48 39 f9             	cmp    %rdi,%rcx
    6e00:	0f 8c 1a 04 00 00    	jl     7220 <__addtf3@@GCC_4.3.0+0x5a0>
    6e06:	44 89 c9             	mov    %r9d,%ecx
    6e09:	29 f9                	sub    %edi,%ecx
    6e0b:	8d 79 01             	lea    0x1(%rcx),%edi
    6e0e:	83 ff 3f             	cmp    $0x3f,%edi
    6e11:	0f 8f f9 07 00 00    	jg     7610 <__addtf3@@GCC_4.3.0+0x990>
    6e17:	41 b9 40 00 00 00    	mov    $0x40,%r9d
    6e1d:	48 89 c6             	mov    %rax,%rsi
    6e20:	48 89 d3             	mov    %rdx,%rbx
    6e23:	41 29 f9             	sub    %edi,%r9d
    6e26:	44 89 c9             	mov    %r9d,%ecx
    6e29:	48 d3 e6             	shl    %cl,%rsi
    6e2c:	89 f9                	mov    %edi,%ecx
    6e2e:	48 d3 eb             	shr    %cl,%rbx
    6e31:	44 89 c9             	mov    %r9d,%ecx
    6e34:	48 d3 e2             	shl    %cl,%rdx
    6e37:	48 09 de             	or     %rbx,%rsi
    6e3a:	89 f9                	mov    %edi,%ecx
    6e3c:	48 85 d2             	test   %rdx,%rdx
    6e3f:	0f 95 c2             	setne  %dl
    6e42:	48 d3 e8             	shr    %cl,%rax
    6e45:	0f b6 d2             	movzbl %dl,%edx
    6e48:	48 09 d6             	or     %rdx,%rsi
    6e4b:	49 89 f3             	mov    %rsi,%r11
    6e4e:	49 09 c3             	or     %rax,%r11
    6e51:	0f 1f 80 00 00 00 00 	nopl   0x0(%rax)
    6e58:	4d 85 db             	test   %r11,%r11
    6e5b:	0f 84 ef 03 00 00    	je     7250 <__addtf3@@GCC_4.3.0+0x5d0>
    6e61:	49 89 f3             	mov    %rsi,%r11
    6e64:	41 83 e3 07          	and    $0x7,%r11d
    6e68:	48 89 f2             	mov    %rsi,%rdx
    6e6b:	48 8d 3c 36          	lea    (%rsi,%rsi,1),%rdi
    6e6f:	48 c1 ea 3f          	shr    $0x3f,%rdx
    6e73:	48 8d 14 42          	lea    (%rdx,%rax,2),%rdx
    6e77:	40 f6 c7 06          	test   $0x6,%dil
    6e7b:	74 2d                	je     6eaa <__addtf3@@GCC_4.3.0+0x22a>
    6e7d:	8b 4c 24 2c          	mov    0x2c(%rsp),%ecx
    6e81:	83 cd 20             	or     $0x20,%ebp
    6e84:	81 e1 00 60 00 00    	and    $0x6000,%ecx
    6e8a:	81 f9 00 20 00 00    	cmp    $0x2000,%ecx
    6e90:	0f 84 8a 0a 00 00    	je     7920 <__addtf3@@GCC_4.3.0+0xca0>
    6e96:	81 f9 00 40 00 00    	cmp    $0x4000,%ecx
    6e9c:	0f 84 5e 0a 00 00    	je     7900 <__addtf3@@GCC_4.3.0+0xc80>
    6ea2:	85 c9                	test   %ecx,%ecx
    6ea4:	0f 84 36 0a 00 00    	je     78e0 <__addtf3@@GCC_4.3.0+0xc60>
    6eaa:	48 c1 ea 34          	shr    $0x34,%rdx
    6eae:	31 ff                	xor    %edi,%edi
    6eb0:	48 83 f2 01          	xor    $0x1,%rdx
    6eb4:	83 e2 01             	and    $0x1,%edx
    6eb7:	4d 85 db             	test   %r11,%r11
    6eba:	0f 84 19 10 00 00    	je     7ed9 <__addtf3@@GCC_4.3.0+0x1259>
    6ec0:	8b 4c 24 2c          	mov    0x2c(%rsp),%ecx
    6ec4:	83 cd 20             	or     $0x20,%ebp
    6ec7:	81 e1 00 60 00 00    	and    $0x6000,%ecx
    6ecd:	81 f9 00 20 00 00    	cmp    $0x2000,%ecx
    6ed3:	0f 84 27 05 00 00    	je     7400 <__addtf3@@GCC_4.3.0+0x780>
    6ed9:	81 f9 00 40 00 00    	cmp    $0x4000,%ecx
    6edf:	0f 84 eb 04 00 00    	je     73d0 <__addtf3@@GCC_4.3.0+0x750>
    6ee5:	85 c9                	test   %ecx,%ecx
    6ee7:	0f 84 23 05 00 00    	je     7410 <__addtf3@@GCC_4.3.0+0x790>
    6eed:	48 b9 00 00 00 00 00 	movabs $0x8000000000000,%rcx
    6ef4:	00 08 00 
    6ef7:	48 21 c1             	and    %rax,%rcx
    6efa:	85 d2                	test   %edx,%edx
    6efc:	74 03                	je     6f01 <__addtf3@@GCC_4.3.0+0x281>
    6efe:	83 cd 10             	or     $0x10,%ebp
    6f01:	48 85 c9             	test   %rcx,%rcx
    6f04:	0f 84 ec 02 00 00    	je     71f6 <__addtf3@@GCC_4.3.0+0x576>
    6f0a:	48 8d 4f 01          	lea    0x1(%rdi),%rcx
    6f0e:	48 81 ff fe 7f 00 00 	cmp    $0x7ffe,%rdi
    6f15:	0f 84 55 03 00 00    	je     7270 <__addtf3@@GCC_4.3.0+0x5f0>
    6f1b:	49 89 c3             	mov    %rax,%r11
    6f1e:	48 c1 e0 0d          	shl    $0xd,%rax
    6f22:	89 cf                	mov    %ecx,%edi
    6f24:	48 c1 ee 03          	shr    $0x3,%rsi
    6f28:	49 c1 e3 3d          	shl    $0x3d,%r11
    6f2c:	66 81 e7 ff 7f       	and    $0x7fff,%di
    6f31:	48 c1 e8 10          	shr    $0x10,%rax
    6f35:	49 09 f3             	or     %rsi,%r11
    6f38:	48 89 c2             	mov    %rax,%rdx
    6f3b:	48 c7 44 24 08 00 00 	movq   $0x0,0x8(%rsp)
    6f42:	00 00 
    6f44:	48 8b 44 24 08       	mov    0x8(%rsp),%rax
    6f49:	41 c1 e0 0f          	shl    $0xf,%r8d
    6f4d:	48 b9 ff ff ff ff ff 	movabs $0xffffffffffff,%rcx
    6f54:	ff 00 00 
    6f57:	48 be 00 00 00 00 00 	movabs $0xffff000000000000,%rsi
    6f5e:	00 ff ff 
    6f61:	48 21 ca             	and    %rcx,%rdx
    6f64:	41 09 f8             	or     %edi,%r8d
    6f67:	4c 89 1c 24          	mov    %r11,(%rsp)
    6f6b:	48 21 f0             	and    %rsi,%rax
    6f6e:	49 c1 e0 30          	shl    $0x30,%r8
    6f72:	48 09 d0             	or     %rdx,%rax
    6f75:	48 21 c8             	and    %rcx,%rax
    6f78:	4c 09 c0             	or     %r8,%rax
    6f7b:	48 89 44 24 08       	mov    %rax,0x8(%rsp)
    6f80:	66 0f 6f 04 24       	movdqa (%rsp),%xmm0
    6f85:	85 ed                	test   %ebp,%ebp
    6f87:	0f 85 19 05 00 00    	jne    74a6 <__addtf3@@GCC_4.3.0+0x826>
    6f8d:	48 83 c4 38          	add    $0x38,%rsp
    6f91:	5b                   	pop    %rbx
    6f92:	5d                   	pop    %rbp
    6f93:	41 5c                	pop    %r12
    6f95:	41 5d                	pop    %r13
    6f97:	41 5e                	pop    %r14
    6f99:	41 5f                	pop    %r15
    6f9b:	c3                   	retq   
    6f9c:	0f 1f 40 00          	nopl   0x0(%rax)
    6fa0:	4d 89 fe             	mov    %r15,%r14
    6fa3:	0f 84 87 01 00 00    	je     7130 <__addtf3@@GCC_4.3.0+0x4b0>
    6fa9:	48 85 ff             	test   %rdi,%rdi
    6fac:	0f 85 9e 05 00 00    	jne    7550 <__addtf3@@GCC_4.3.0+0x8d0>
    6fb2:	48 89 c7             	mov    %rax,%rdi
    6fb5:	48 09 f7             	or     %rsi,%rdi
    6fb8:	0f 84 f2 07 00 00    	je     77b0 <__addtf3@@GCC_4.3.0+0xb30>
    6fbe:	83 f2 ff             	xor    $0xffffffff,%edx
    6fc1:	0f 84 d9 0a 00 00    	je     7aa0 <__addtf3@@GCC_4.3.0+0xe20>
    6fc7:	bd 02 00 00 00       	mov    $0x2,%ebp
    6fcc:	48 81 fb ff 7f 00 00 	cmp    $0x7fff,%rbx
    6fd3:	0f 85 8d 05 00 00    	jne    7566 <__addtf3@@GCC_4.3.0+0x8e6>
    6fd9:	4d 09 cc             	or     %r9,%r12
    6fdc:	0f 84 08 0e 00 00    	je     7dea <__addtf3@@GCC_4.3.0+0x116a>
    6fe2:	4c 89 c8             	mov    %r9,%rax
    6fe5:	4c 89 ce             	mov    %r9,%rsi
    6fe8:	bd 03 00 00 00       	mov    $0x3,%ebp
    6fed:	45 89 f8             	mov    %r15d,%r8d
    6ff0:	49 bb ff ff ff ff ff 	movabs $0x1fffffffffffffff,%r11
    6ff7:	ff ff 1f 
    6ffa:	48 c1 e0 3d          	shl    $0x3d,%rax
    6ffe:	4d 21 da             	and    %r11,%r10
    7001:	48 c1 ee 03          	shr    $0x3,%rsi
    7005:	4c 09 d0             	or     %r10,%rax
    7008:	49 89 c3             	mov    %rax,%r11
    700b:	48 b8 00 00 00 00 00 	movabs $0x4000000000000,%rax
    7012:	00 04 00 
    7015:	49 21 c1             	and    %rax,%r9
    7018:	49 83 f9 01          	cmp    $0x1,%r9
    701c:	83 d5 ff             	adc    $0xffffffff,%ebp
    701f:	90                   	nop
    7020:	4c 89 d8             	mov    %r11,%rax
    7023:	48 09 f0             	or     %rsi,%rax
    7026:	0f 84 9e 0e 00 00    	je     7eca <__addtf3@@GCC_4.3.0+0x124a>
    702c:	48 0f ba ee 2f       	bts    $0x2f,%rsi
    7031:	bf ff 7f 00 00       	mov    $0x7fff,%edi
    7036:	48 b8 ff ff ff ff ff 	movabs $0xffffffffffff,%rax
    703d:	ff 00 00 
    7040:	48 89 f2             	mov    %rsi,%rdx
    7043:	48 21 c2             	and    %rax,%rdx
    7046:	e9 f0 fe ff ff       	jmpq   6f3b <__addtf3@@GCC_4.3.0+0x2bb>
    704b:	0f 1f 44 00 00       	nopl   0x0(%rax,%rax,1)
    7050:	85 d2                	test   %edx,%edx
    7052:	0f 8e 90 02 00 00    	jle    72e8 <__addtf3@@GCC_4.3.0+0x668>
    7058:	48 85 db             	test   %rbx,%rbx
    705b:	0f 84 47 01 00 00    	je     71a8 <__addtf3@@GCC_4.3.0+0x528>
    7061:	49 0f ba e9 33       	bts    $0x33,%r9
    7066:	31 ed                	xor    %ebp,%ebp
    7068:	48 81 ff ff 7f 00 00 	cmp    $0x7fff,%rdi
    706f:	0f 84 03 09 00 00    	je     7978 <__addtf3@@GCC_4.3.0+0xcf8>
    7075:	83 fa 74             	cmp    $0x74,%edx
    7078:	0f 8f 32 05 00 00    	jg     75b0 <__addtf3@@GCC_4.3.0+0x930>
    707e:	83 fa 3f             	cmp    $0x3f,%edx
    7081:	0f 8e 91 06 00 00    	jle    7718 <__addtf3@@GCC_4.3.0+0xa98>
    7087:	8d 4a c0             	lea    -0x40(%rdx),%ecx
    708a:	4c 89 cb             	mov    %r9,%rbx
    708d:	48 d3 eb             	shr    %cl,%rbx
    7090:	83 fa 40             	cmp    $0x40,%edx
    7093:	74 0d                	je     70a2 <__addtf3@@GCC_4.3.0+0x422>
    7095:	b9 80 00 00 00       	mov    $0x80,%ecx
    709a:	29 d1                	sub    %edx,%ecx
    709c:	49 d3 e1             	shl    %cl,%r9
    709f:	4d 09 cc             	or     %r9,%r12
    70a2:	45 31 d2             	xor    %r10d,%r10d
    70a5:	4d 85 e4             	test   %r12,%r12
    70a8:	41 0f 95 c2          	setne  %r10b
    70ac:	45 31 c9             	xor    %r9d,%r9d
    70af:	49 09 da             	or     %rbx,%r10
    70b2:	e9 06 05 00 00       	jmpq   75bd <__addtf3@@GCC_4.3.0+0x93d>
    70b7:	66 0f 1f 84 00 00 00 	nopw   0x0(%rax,%rax,1)
    70be:	00 00 
    70c0:	4c 89 cb             	mov    %r9,%rbx
    70c3:	4c 09 e3             	or     %r12,%rbx
    70c6:	0f 84 7c 03 00 00    	je     7448 <__addtf3@@GCC_4.3.0+0x7c8>
    70cc:	83 ea 01             	sub    $0x1,%edx
    70cf:	0f 84 5b 07 00 00    	je     7830 <__addtf3@@GCC_4.3.0+0xbb0>
    70d5:	bd 02 00 00 00       	mov    $0x2,%ebp
    70da:	48 81 ff ff 7f 00 00 	cmp    $0x7fff,%rdi
    70e1:	0f 85 7b fc ff ff    	jne    6d62 <__addtf3@@GCC_4.3.0+0xe2>
    70e7:	48 09 c6             	or     %rax,%rsi
    70ea:	0f 84 93 03 00 00    	je     7483 <__addtf3@@GCC_4.3.0+0x803>
    70f0:	49 bb ff ff ff ff ff 	movabs $0x1fffffffffffffff,%r11
    70f7:	ff ff 1f 
    70fa:	48 89 c2             	mov    %rax,%rdx
    70fd:	48 89 c6             	mov    %rax,%rsi
    7100:	31 ed                	xor    %ebp,%ebp
    7102:	48 c1 e2 3d          	shl    $0x3d,%rdx
    7106:	4c 21 d9             	and    %r11,%rcx
    7109:	48 c1 ee 03          	shr    $0x3,%rsi
    710d:	48 09 ca             	or     %rcx,%rdx
    7110:	49 89 d3             	mov    %rdx,%r11
    7113:	48 ba 00 00 00 00 00 	movabs $0x4000000000000,%rdx
    711a:	00 04 00 
    711d:	48 85 d0             	test   %rdx,%rax
    7120:	40 0f 94 c5          	sete   %bpl
    7124:	83 c5 02             	add    $0x2,%ebp
    7127:	e9 f4 fe ff ff       	jmpq   7020 <__addtf3@@GCC_4.3.0+0x3a0>
    712c:	0f 1f 40 00          	nopl   0x0(%rax)
    7130:	4c 8d 5f 01          	lea    0x1(%rdi),%r11
    7134:	41 f7 c3 fe 7f 00 00 	test   $0x7ffe,%r11d
    713b:	0f 85 df 03 00 00    	jne    7520 <__addtf3@@GCC_4.3.0+0x8a0>
    7141:	48 89 c5             	mov    %rax,%rbp
    7144:	4d 89 cb             	mov    %r9,%r11
    7147:	48 09 f5             	or     %rsi,%rbp
    714a:	4d 09 e3             	or     %r12,%r11
    714d:	48 85 ff             	test   %rdi,%rdi
    7150:	0f 85 82 06 00 00    	jne    77d8 <__addtf3@@GCC_4.3.0+0xb58>
    7156:	48 85 ed             	test   %rbp,%rbp
    7159:	0f 84 e1 06 00 00    	je     7840 <__addtf3@@GCC_4.3.0+0xbc0>
    715f:	4d 85 db             	test   %r11,%r11
    7162:	0f 84 f8 06 00 00    	je     7860 <__addtf3@@GCC_4.3.0+0xbe0>
    7168:	48 89 c2             	mov    %rax,%rdx
    716b:	48 89 f1             	mov    %rsi,%rcx
    716e:	4c 29 e1             	sub    %r12,%rcx
    7171:	4c 19 ca             	sbb    %r9,%rdx
    7174:	48 0f ba e2 33       	bt     $0x33,%rdx
    7179:	0f 83 e5 0b 00 00    	jae    7d64 <__addtf3@@GCC_4.3.0+0x10e4>
    717f:	49 29 f4             	sub    %rsi,%r12
    7182:	49 19 c1             	sbb    %rax,%r9
    7185:	4d 89 cb             	mov    %r9,%r11
    7188:	45 89 f8             	mov    %r15d,%r8d
    718b:	4c 89 c8             	mov    %r9,%rax
    718e:	4c 89 e6             	mov    %r12,%rsi
    7191:	4d 09 e3             	or     %r12,%r11
    7194:	4d 89 fd             	mov    %r15,%r13
    7197:	bd 02 00 00 00       	mov    $0x2,%ebp
    719c:	e9 b7 fc ff ff       	jmpq   6e58 <__addtf3@@GCC_4.3.0+0x1d8>
    71a1:	0f 1f 80 00 00 00 00 	nopl   0x0(%rax)
    71a8:	4c 89 cb             	mov    %r9,%rbx
    71ab:	4c 09 e3             	or     %r12,%rbx
    71ae:	0f 84 94 02 00 00    	je     7448 <__addtf3@@GCC_4.3.0+0x7c8>
    71b4:	83 ea 01             	sub    $0x1,%edx
    71b7:	0f 84 63 06 00 00    	je     7820 <__addtf3@@GCC_4.3.0+0xba0>
    71bd:	bd 02 00 00 00       	mov    $0x2,%ebp
    71c2:	48 81 ff ff 7f 00 00 	cmp    $0x7fff,%rdi
    71c9:	0f 85 a6 fe ff ff    	jne    7075 <__addtf3@@GCC_4.3.0+0x3f5>
    71cf:	48 89 c3             	mov    %rax,%rbx
    71d2:	48 09 f3             	or     %rsi,%rbx
    71d5:	0f 84 a8 02 00 00    	je     7483 <__addtf3@@GCC_4.3.0+0x803>
    71db:	48 ba 00 00 00 00 00 	movabs $0x4000000000000,%rdx
    71e2:	00 04 00 
    71e5:	31 ed                	xor    %ebp,%ebp
    71e7:	48 85 d0             	test   %rdx,%rax
    71ea:	40 0f 94 c5          	sete   %bpl
    71ee:	83 c5 02             	add    $0x2,%ebp
    71f1:	bf ff 7f 00 00       	mov    $0x7fff,%edi
    71f6:	48 89 c2             	mov    %rax,%rdx
    71f9:	48 c1 ee 03          	shr    $0x3,%rsi
    71fd:	48 c1 e2 3d          	shl    $0x3d,%rdx
    7201:	48 c1 e8 03          	shr    $0x3,%rax
    7205:	48 09 d6             	or     %rdx,%rsi
    7208:	49 89 f3             	mov    %rsi,%r11
    720b:	48 89 c6             	mov    %rax,%rsi
    720e:	48 81 ff ff 7f 00 00 	cmp    $0x7fff,%rdi
    7215:	0f 84 05 fe ff ff    	je     7020 <__addtf3@@GCC_4.3.0+0x3a0>
    721b:	eb 37                	jmp    7254 <__addtf3@@GCC_4.3.0+0x5d4>
    721d:	0f 1f 00             	nopl   (%rax)
    7220:	48 29 cf             	sub    %rcx,%rdi
    7223:	48 0f ba f0 33       	btr    $0x33,%rax
    7228:	48 89 d6             	mov    %rdx,%rsi
    722b:	49 89 f3             	mov    %rsi,%r11
    722e:	49 09 c3             	or     %rax,%r11
    7231:	48 85 ff             	test   %rdi,%rdi
    7234:	0f 84 1e fc ff ff    	je     6e58 <__addtf3@@GCC_4.3.0+0x1d8>
    723a:	49 89 f3             	mov    %rsi,%r11
    723d:	31 d2                	xor    %edx,%edx
    723f:	41 83 e3 07          	and    $0x7,%r11d
    7243:	e9 6f fc ff ff       	jmpq   6eb7 <__addtf3@@GCC_4.3.0+0x237>
    7248:	0f 1f 84 00 00 00 00 	nopl   0x0(%rax,%rax,1)
    724f:	00 
    7250:	31 f6                	xor    %esi,%esi
    7252:	31 ff                	xor    %edi,%edi
    7254:	48 ba ff ff ff ff ff 	movabs $0xffffffffffff,%rdx
    725b:	ff 00 00 
    725e:	66 81 e7 ff 7f       	and    $0x7fff,%di
    7263:	48 21 f2             	and    %rsi,%rdx
    7266:	e9 d0 fc ff ff       	jmpq   6f3b <__addtf3@@GCC_4.3.0+0x2bb>
    726b:	0f 1f 44 00 00       	nopl   0x0(%rax,%rax,1)
    7270:	8b 4c 24 2c          	mov    0x2c(%rsp),%ecx
    7274:	81 e1 00 60 00 00    	and    $0x6000,%ecx
    727a:	0f 84 00 02 00 00    	je     7480 <__addtf3@@GCC_4.3.0+0x800>
    7280:	81 f9 00 40 00 00    	cmp    $0x4000,%ecx
    7286:	0f 84 c4 06 00 00    	je     7950 <__addtf3@@GCC_4.3.0+0xcd0>
    728c:	83 cd 28             	or     $0x28,%ebp
    728f:	81 f9 00 20 00 00    	cmp    $0x2000,%ecx
    7295:	75 09                	jne    72a0 <__addtf3@@GCC_4.3.0+0x620>
    7297:	4d 85 ed             	test   %r13,%r13
    729a:	0f 85 e3 01 00 00    	jne    7483 <__addtf3@@GCC_4.3.0+0x803>
    72a0:	48 be ff ff ff ff ff 	movabs $0x1fffffffffffffff,%rsi
    72a7:	ff ff 1f 
    72aa:	49 c7 c3 ff ff ff ff 	mov    $0xffffffffffffffff,%r11
    72b1:	bf fe 7f 00 00       	mov    $0x7ffe,%edi
    72b6:	eb 9c                	jmp    7254 <__addtf3@@GCC_4.3.0+0x5d4>
    72b8:	0f 1f 84 00 00 00 00 	nopl   0x0(%rax,%rax,1)
    72bf:	00 
    72c0:	48 0f bd ce          	bsr    %rsi,%rcx
    72c4:	48 83 f1 3f          	xor    $0x3f,%rcx
    72c8:	44 8d 49 34          	lea    0x34(%rcx),%r9d
    72cc:	41 83 f9 3f          	cmp    $0x3f,%r9d
    72d0:	0f 8e 04 fb ff ff    	jle    6dda <__addtf3@@GCC_4.3.0+0x15a>
    72d6:	83 e9 0c             	sub    $0xc,%ecx
    72d9:	48 89 f0             	mov    %rsi,%rax
    72dc:	48 d3 e0             	shl    %cl,%rax
    72df:	e9 16 fb ff ff       	jmpq   6dfa <__addtf3@@GCC_4.3.0+0x17a>
    72e4:	0f 1f 40 00          	nopl   0x0(%rax)
    72e8:	0f 84 da 01 00 00    	je     74c8 <__addtf3@@GCC_4.3.0+0x848>
    72ee:	48 85 ff             	test   %rdi,%rdi
    72f1:	0f 84 b1 03 00 00    	je     76a8 <__addtf3@@GCC_4.3.0+0xa28>
    72f7:	48 81 fb ff 7f 00 00 	cmp    $0x7fff,%rbx
    72fe:	0f 84 7e 0a 00 00    	je     7d82 <__addtf3@@GCC_4.3.0+0x1102>
    7304:	f7 da                	neg    %edx
    7306:	48 0f ba e8 33       	bts    $0x33,%rax
    730b:	31 ed                	xor    %ebp,%ebp
    730d:	83 fa 74             	cmp    $0x74,%edx
    7310:	0f 8f aa 06 00 00    	jg     79c0 <__addtf3@@GCC_4.3.0+0xd40>
    7316:	83 fa 3f             	cmp    $0x3f,%edx
    7319:	0f 8f 6f 08 00 00    	jg     7b8e <__addtf3@@GCC_4.3.0+0xf0e>
    731f:	41 ba 40 00 00 00    	mov    $0x40,%r10d
    7325:	48 89 c7             	mov    %rax,%rdi
    7328:	49 89 f7             	mov    %rsi,%r15
    732b:	41 29 d2             	sub    %edx,%r10d
    732e:	44 89 d1             	mov    %r10d,%ecx
    7331:	48 d3 e7             	shl    %cl,%rdi
    7334:	89 d1                	mov    %edx,%ecx
    7336:	49 d3 ef             	shr    %cl,%r15
    7339:	44 89 d1             	mov    %r10d,%ecx
    733c:	48 d3 e6             	shl    %cl,%rsi
    733f:	4c 09 ff             	or     %r15,%rdi
    7342:	31 c9                	xor    %ecx,%ecx
    7344:	48 85 f6             	test   %rsi,%rsi
    7347:	0f 95 c1             	setne  %cl
    734a:	48 09 cf             	or     %rcx,%rdi
    734d:	89 d1                	mov    %edx,%ecx
    734f:	48 d3 e8             	shr    %cl,%rax
    7352:	4c 89 e6             	mov    %r12,%rsi
    7355:	48 01 fe             	add    %rdi,%rsi
    7358:	49 11 c1             	adc    %rax,%r9
    735b:	48 89 df             	mov    %rbx,%rdi
    735e:	4c 89 c8             	mov    %r9,%rax
    7361:	e9 5d 02 00 00       	jmpq   75c3 <__addtf3@@GCC_4.3.0+0x943>
    7366:	66 2e 0f 1f 84 00 00 	nopw   %cs:0x0(%rax,%rax,1)
    736d:	00 00 00 
    7370:	8b 4c 24 2c          	mov    0x2c(%rsp),%ecx
    7374:	83 cd 28             	or     $0x28,%ebp
    7377:	89 c8                	mov    %ecx,%eax
    7379:	25 00 60 00 00       	and    $0x6000,%eax
    737e:	0f 84 ff 00 00 00    	je     7483 <__addtf3@@GCC_4.3.0+0x803>
    7384:	4d 85 db             	test   %r11,%r11
    7387:	75 0b                	jne    7394 <__addtf3@@GCC_4.3.0+0x714>
    7389:	3d 00 40 00 00       	cmp    $0x4000,%eax
    738e:	0f 84 26 0b 00 00    	je     7eba <__addtf3@@GCC_4.3.0+0x123a>
    7394:	3d 00 20 00 00       	cmp    $0x2000,%eax
    7399:	0f 94 c2             	sete   %dl
    739c:	44 20 da             	and    %r11b,%dl
    739f:	0f 85 1d 0b 00 00    	jne    7ec2 <__addtf3@@GCC_4.3.0+0x1242>
    73a5:	3d 00 20 00 00       	cmp    $0x2000,%eax
    73aa:	74 3a                	je     73e6 <__addtf3@@GCC_4.3.0+0x766>
    73ac:	3d 00 40 00 00       	cmp    $0x4000,%eax
    73b1:	0f 85 bd fe ff ff    	jne    7274 <__addtf3@@GCC_4.3.0+0x5f4>
    73b7:	48 c7 c0 ff ff ff ff 	mov    $0xffffffffffffffff,%rax
    73be:	48 c7 c6 ff ff ff ff 	mov    $0xffffffffffffffff,%rsi
    73c5:	bf fe 7f 00 00       	mov    $0x7ffe,%edi
    73ca:	31 d2                	xor    %edx,%edx
    73cc:	0f 1f 40 00          	nopl   0x0(%rax)
    73d0:	4d 85 ed             	test   %r13,%r13
    73d3:	0f 85 14 fb ff ff    	jne    6eed <__addtf3@@GCC_4.3.0+0x26d>
    73d9:	48 83 c6 08          	add    $0x8,%rsi
    73dd:	48 83 d0 00          	adc    $0x0,%rax
    73e1:	e9 07 fb ff ff       	jmpq   6eed <__addtf3@@GCC_4.3.0+0x26d>
    73e6:	48 c7 c0 ff ff ff ff 	mov    $0xffffffffffffffff,%rax
    73ed:	48 c7 c6 ff ff ff ff 	mov    $0xffffffffffffffff,%rsi
    73f4:	bf fe 7f 00 00       	mov    $0x7ffe,%edi
    73f9:	31 d2                	xor    %edx,%edx
    73fb:	0f 1f 44 00 00       	nopl   0x0(%rax,%rax,1)
    7400:	4d 85 ed             	test   %r13,%r13
    7403:	75 d4                	jne    73d9 <__addtf3@@GCC_4.3.0+0x759>
    7405:	e9 e3 fa ff ff       	jmpq   6eed <__addtf3@@GCC_4.3.0+0x26d>
    740a:	66 0f 1f 44 00 00    	nopw   0x0(%rax,%rax,1)
    7410:	48 89 f1             	mov    %rsi,%rcx
    7413:	83 e1 0f             	and    $0xf,%ecx
    7416:	48 83 f9 04          	cmp    $0x4,%rcx
    741a:	0f 84 cd fa ff ff    	je     6eed <__addtf3@@GCC_4.3.0+0x26d>
    7420:	48 83 c6 04          	add    $0x4,%rsi
    7424:	48 83 d0 00          	adc    $0x0,%rax
    7428:	e9 c0 fa ff ff       	jmpq   6eed <__addtf3@@GCC_4.3.0+0x26d>
    742d:	0f 1f 00             	nopl   (%rax)
    7430:	45 31 d2             	xor    %r10d,%r10d
    7433:	4d 09 e1             	or     %r12,%r9
    7436:	41 0f 95 c2          	setne  %r10b
    743a:	45 31 c9             	xor    %r9d,%r9d
    743d:	e9 65 f9 ff ff       	jmpq   6da7 <__addtf3@@GCC_4.3.0+0x127>
    7442:	66 0f 1f 44 00 00    	nopw   0x0(%rax,%rax,1)
    7448:	31 ed                	xor    %ebp,%ebp
    744a:	48 81 ff ff 7f 00 00 	cmp    $0x7fff,%rdi
    7451:	0f 85 d4 fd ff ff    	jne    722b <__addtf3@@GCC_4.3.0+0x5ab>
    7457:	48 89 c3             	mov    %rax,%rbx
    745a:	48 09 f3             	or     %rsi,%rbx
    745d:	0f 84 05 05 00 00    	je     7968 <__addtf3@@GCC_4.3.0+0xce8>
    7463:	48 89 c5             	mov    %rax,%rbp
    7466:	48 c1 ed 32          	shr    $0x32,%rbp
    746a:	48 83 f5 01          	xor    $0x1,%rbp
    746e:	83 e5 01             	and    $0x1,%ebp
    7471:	e9 7b fd ff ff       	jmpq   71f1 <__addtf3@@GCC_4.3.0+0x571>
    7476:	66 2e 0f 1f 84 00 00 	nopw   %cs:0x0(%rax,%rax,1)
    747d:	00 00 00 
    7480:	83 cd 28             	or     $0x28,%ebp
    7483:	49 c1 e0 3f          	shl    $0x3f,%r8
    7487:	48 c7 04 24 00 00 00 	movq   $0x0,(%rsp)
    748e:	00 
    748f:	48 b8 00 00 00 00 00 	movabs $0x7fff000000000000,%rax
    7496:	00 ff 7f 
    7499:	49 09 c0             	or     %rax,%r8
    749c:	4c 89 44 24 08       	mov    %r8,0x8(%rsp)
    74a1:	66 0f 6f 04 24       	movdqa (%rsp),%xmm0
    74a6:	89 ef                	mov    %ebp,%edi
    74a8:	0f 29 04 24          	movaps %xmm0,(%rsp)
    74ac:	e8 4f f7 ff ff       	callq  6c00 <__udivmodti4@@GCC_3.0+0x1d0>
    74b1:	66 0f 6f 04 24       	movdqa (%rsp),%xmm0
    74b6:	48 83 c4 38          	add    $0x38,%rsp
    74ba:	5b                   	pop    %rbx
    74bb:	5d                   	pop    %rbp
    74bc:	41 5c                	pop    %r12
    74be:	41 5d                	pop    %r13
    74c0:	41 5e                	pop    %r14
    74c2:	41 5f                	pop    %r15
    74c4:	c3                   	retq   
    74c5:	0f 1f 00             	nopl   (%rax)
    74c8:	48 8d 6f 01          	lea    0x1(%rdi),%rbp
    74cc:	f7 c5 fe 7f 00 00    	test   $0x7ffe,%ebp
    74d2:	0f 85 78 02 00 00    	jne    7750 <__addtf3@@GCC_4.3.0+0xad0>
    74d8:	48 89 c5             	mov    %rax,%rbp
    74db:	48 09 f5             	or     %rsi,%rbp
    74de:	48 85 ff             	test   %rdi,%rdi
    74e1:	0f 85 19 05 00 00    	jne    7a00 <__addtf3@@GCC_4.3.0+0xd80>
    74e7:	4d 89 cb             	mov    %r9,%r11
    74ea:	4d 09 e3             	or     %r12,%r11
    74ed:	48 85 ed             	test   %rbp,%rbp
    74f0:	0f 84 2a 06 00 00    	je     7b20 <__addtf3@@GCC_4.3.0+0xea0>
    74f6:	4d 85 db             	test   %r11,%r11
    74f9:	0f 84 61 03 00 00    	je     7860 <__addtf3@@GCC_4.3.0+0xbe0>
    74ff:	4c 01 e6             	add    %r12,%rsi
    7502:	4c 11 c8             	adc    %r9,%rax
    7505:	48 0f ba e0 33       	bt     $0x33,%rax
    750a:	0f 82 e2 08 00 00    	jb     7df2 <__addtf3@@GCC_4.3.0+0x1172>
    7510:	49 89 c3             	mov    %rax,%r11
    7513:	bd 02 00 00 00       	mov    $0x2,%ebp
    7518:	49 09 f3             	or     %rsi,%r11
    751b:	e9 38 f9 ff ff       	jmpq   6e58 <__addtf3@@GCC_4.3.0+0x1d8>
    7520:	48 89 c2             	mov    %rax,%rdx
    7523:	48 89 f1             	mov    %rsi,%rcx
    7526:	4c 29 e1             	sub    %r12,%rcx
    7529:	4c 19 ca             	sbb    %r9,%rdx
    752c:	48 0f ba e2 33       	bt     $0x33,%rdx
    7531:	0f 82 59 02 00 00    	jb     7790 <__addtf3@@GCC_4.3.0+0xb10>
    7537:	48 89 d0             	mov    %rdx,%rax
    753a:	48 09 c8             	or     %rcx,%rax
    753d:	0f 84 ed 03 00 00    	je     7930 <__addtf3@@GCC_4.3.0+0xcb0>
    7543:	48 89 ce             	mov    %rcx,%rsi
    7546:	31 ed                	xor    %ebp,%ebp
    7548:	e9 78 f8 ff ff       	jmpq   6dc5 <__addtf3@@GCC_4.3.0+0x145>
    754d:	0f 1f 00             	nopl   (%rax)
    7550:	48 81 fb ff 7f 00 00 	cmp    $0x7fff,%rbx
    7557:	0f 84 63 05 00 00    	je     7ac0 <__addtf3@@GCC_4.3.0+0xe40>
    755d:	f7 da                	neg    %edx
    755f:	48 0f ba e8 33       	bts    $0x33,%rax
    7564:	31 ed                	xor    %ebp,%ebp
    7566:	83 fa 74             	cmp    $0x74,%edx
    7569:	0f 8f 11 01 00 00    	jg     7680 <__addtf3@@GCC_4.3.0+0xa00>
    756f:	83 fa 3f             	cmp    $0x3f,%edx
    7572:	0f 8f 58 04 00 00    	jg     79d0 <__addtf3@@GCC_4.3.0+0xd50>
    7578:	41 b8 40 00 00 00    	mov    $0x40,%r8d
    757e:	48 89 c7             	mov    %rax,%rdi
    7581:	49 89 f2             	mov    %rsi,%r10
    7584:	41 29 d0             	sub    %edx,%r8d
    7587:	44 89 c1             	mov    %r8d,%ecx
    758a:	48 d3 e7             	shl    %cl,%rdi
    758d:	89 d1                	mov    %edx,%ecx
    758f:	49 d3 ea             	shr    %cl,%r10
    7592:	44 89 c1             	mov    %r8d,%ecx
    7595:	48 d3 e6             	shl    %cl,%rsi
    7598:	4c 09 d7             	or     %r10,%rdi
    759b:	31 c9                	xor    %ecx,%ecx
    759d:	48 85 f6             	test   %rsi,%rsi
    75a0:	0f 95 c1             	setne  %cl
    75a3:	48 09 cf             	or     %rcx,%rdi
    75a6:	89 d1                	mov    %edx,%ecx
    75a8:	48 d3 e8             	shr    %cl,%rax
    75ab:	e9 db 00 00 00       	jmpq   768b <__addtf3@@GCC_4.3.0+0xa0b>
    75b0:	45 31 d2             	xor    %r10d,%r10d
    75b3:	4d 09 e1             	or     %r12,%r9
    75b6:	41 0f 95 c2          	setne  %r10b
    75ba:	45 31 c9             	xor    %r9d,%r9d
    75bd:	4c 01 d6             	add    %r10,%rsi
    75c0:	4c 11 c8             	adc    %r9,%rax
    75c3:	48 0f ba e0 33       	bt     $0x33,%rax
    75c8:	0f 83 5d fc ff ff    	jae    722b <__addtf3@@GCC_4.3.0+0x5ab>
    75ce:	48 83 c7 01          	add    $0x1,%rdi
    75d2:	48 81 ff ff 7f 00 00 	cmp    $0x7fff,%rdi
    75d9:	0f 84 91 fd ff ff    	je     7370 <__addtf3@@GCC_4.3.0+0x6f0>
    75df:	49 89 f3             	mov    %rsi,%r11
    75e2:	83 e6 01             	and    $0x1,%esi
    75e5:	48 89 c2             	mov    %rax,%rdx
    75e8:	48 c1 e0 3f          	shl    $0x3f,%rax
    75ec:	49 d1 eb             	shr    %r11
    75ef:	48 0f ba f2 33       	btr    $0x33,%rdx
    75f4:	49 09 f3             	or     %rsi,%r11
    75f7:	4c 09 d8             	or     %r11,%rax
    75fa:	41 83 e3 07          	and    $0x7,%r11d
    75fe:	48 89 c6             	mov    %rax,%rsi
    7601:	48 89 d0             	mov    %rdx,%rax
    7604:	31 d2                	xor    %edx,%edx
    7606:	48 d1 e8             	shr    %rax
    7609:	e9 a9 f8 ff ff       	jmpq   6eb7 <__addtf3@@GCC_4.3.0+0x237>
    760e:	66 90                	xchg   %ax,%ax
    7610:	83 e9 3f             	sub    $0x3f,%ecx
    7613:	48 89 c6             	mov    %rax,%rsi
    7616:	48 d3 ee             	shr    %cl,%rsi
    7619:	83 ff 40             	cmp    $0x40,%edi
    761c:	74 0d                	je     762b <__addtf3@@GCC_4.3.0+0x9ab>
    761e:	b9 80 00 00 00       	mov    $0x80,%ecx
    7623:	29 f9                	sub    %edi,%ecx
    7625:	48 d3 e0             	shl    %cl,%rax
    7628:	48 09 c2             	or     %rax,%rdx
    762b:	45 31 db             	xor    %r11d,%r11d
    762e:	48 85 d2             	test   %rdx,%rdx
    7631:	41 0f 95 c3          	setne  %r11b
    7635:	31 c0                	xor    %eax,%eax
    7637:	49 09 f3             	or     %rsi,%r11
    763a:	4c 89 de             	mov    %r11,%rsi
    763d:	e9 16 f8 ff ff       	jmpq   6e58 <__addtf3@@GCC_4.3.0+0x1d8>
    7642:	66 0f 1f 44 00 00    	nopw   0x0(%rax,%rax,1)
    7648:	8d 4a c0             	lea    -0x40(%rdx),%ecx
    764b:	4d 89 cb             	mov    %r9,%r11
    764e:	49 d3 eb             	shr    %cl,%r11
    7651:	83 fa 40             	cmp    $0x40,%edx
    7654:	74 0d                	je     7663 <__addtf3@@GCC_4.3.0+0x9e3>
    7656:	b9 80 00 00 00       	mov    $0x80,%ecx
    765b:	29 d1                	sub    %edx,%ecx
    765d:	49 d3 e1             	shl    %cl,%r9
    7660:	4d 09 cc             	or     %r9,%r12
    7663:	45 31 d2             	xor    %r10d,%r10d
    7666:	4d 85 e4             	test   %r12,%r12
    7669:	41 0f 95 c2          	setne  %r10b
    766d:	45 31 c9             	xor    %r9d,%r9d
    7670:	4d 09 da             	or     %r11,%r10
    7673:	e9 2f f7 ff ff       	jmpq   6da7 <__addtf3@@GCC_4.3.0+0x127>
    7678:	0f 1f 84 00 00 00 00 	nopl   0x0(%rax,%rax,1)
    767f:	00 
    7680:	31 ff                	xor    %edi,%edi
    7682:	48 09 f0             	or     %rsi,%rax
    7685:	40 0f 95 c7          	setne  %dil
    7689:	31 c0                	xor    %eax,%eax
    768b:	4c 89 e6             	mov    %r12,%rsi
    768e:	45 89 f8             	mov    %r15d,%r8d
    7691:	4d 89 f5             	mov    %r14,%r13
    7694:	48 29 fe             	sub    %rdi,%rsi
    7697:	49 19 c1             	sbb    %rax,%r9
    769a:	48 89 df             	mov    %rbx,%rdi
    769d:	4c 89 c8             	mov    %r9,%rax
    76a0:	e9 08 f7 ff ff       	jmpq   6dad <__addtf3@@GCC_4.3.0+0x12d>
    76a5:	0f 1f 00             	nopl   (%rax)
    76a8:	48 89 c7             	mov    %rax,%rdi
    76ab:	48 09 f7             	or     %rsi,%rdi
    76ae:	0f 84 4c 04 00 00    	je     7b00 <__addtf3@@GCC_4.3.0+0xe80>
    76b4:	83 f2 ff             	xor    $0xffffffff,%edx
    76b7:	0f 84 53 05 00 00    	je     7c10 <__addtf3@@GCC_4.3.0+0xf90>
    76bd:	bd 02 00 00 00       	mov    $0x2,%ebp
    76c2:	48 81 fb ff 7f 00 00 	cmp    $0x7fff,%rbx
    76c9:	0f 85 3e fc ff ff    	jne    730d <__addtf3@@GCC_4.3.0+0x68d>
    76cf:	4d 09 cc             	or     %r9,%r12
    76d2:	0f 84 ab fd ff ff    	je     7483 <__addtf3@@GCC_4.3.0+0x803>
    76d8:	49 bb ff ff ff ff ff 	movabs $0x1fffffffffffffff,%r11
    76df:	ff ff 1f 
    76e2:	4c 89 c8             	mov    %r9,%rax
    76e5:	4c 89 ce             	mov    %r9,%rsi
    76e8:	31 ed                	xor    %ebp,%ebp
    76ea:	48 c1 e0 3d          	shl    $0x3d,%rax
    76ee:	4d 21 da             	and    %r11,%r10
    76f1:	48 c1 ee 03          	shr    $0x3,%rsi
    76f5:	4c 09 d0             	or     %r10,%rax
    76f8:	49 89 c3             	mov    %rax,%r11
    76fb:	48 b8 00 00 00 00 00 	movabs $0x4000000000000,%rax
    7702:	00 04 00 
    7705:	49 85 c1             	test   %rax,%r9
    7708:	40 0f 94 c5          	sete   %bpl
    770c:	83 c5 02             	add    $0x2,%ebp
    770f:	e9 0c f9 ff ff       	jmpq   7020 <__addtf3@@GCC_4.3.0+0x3a0>
    7714:	0f 1f 40 00          	nopl   0x0(%rax)
    7718:	bb 40 00 00 00       	mov    $0x40,%ebx
    771d:	4d 89 ca             	mov    %r9,%r10
    7720:	4d 89 e7             	mov    %r12,%r15
    7723:	29 d3                	sub    %edx,%ebx
    7725:	89 d9                	mov    %ebx,%ecx
    7727:	49 d3 e2             	shl    %cl,%r10
    772a:	89 d1                	mov    %edx,%ecx
    772c:	49 d3 ef             	shr    %cl,%r15
    772f:	89 d9                	mov    %ebx,%ecx
    7731:	49 d3 e4             	shl    %cl,%r12
    7734:	4d 09 fa             	or     %r15,%r10
    7737:	31 c9                	xor    %ecx,%ecx
    7739:	4d 85 e4             	test   %r12,%r12
    773c:	0f 95 c1             	setne  %cl
    773f:	49 09 ca             	or     %rcx,%r10
    7742:	89 d1                	mov    %edx,%ecx
    7744:	49 d3 e9             	shr    %cl,%r9
    7747:	e9 71 fe ff ff       	jmpq   75bd <__addtf3@@GCC_4.3.0+0x93d>
    774c:	0f 1f 40 00          	nopl   0x0(%rax)
    7750:	4c 01 e6             	add    %r12,%rsi
    7753:	4c 11 c8             	adc    %r9,%rax
    7756:	48 81 fd ff 7f 00 00 	cmp    $0x7fff,%rbp
    775d:	0f 84 59 04 00 00    	je     7bbc <__addtf3@@GCC_4.3.0+0xf3c>
    7763:	49 89 f3             	mov    %rsi,%r11
    7766:	83 e6 01             	and    $0x1,%esi
    7769:	48 89 ef             	mov    %rbp,%rdi
    776c:	31 ed                	xor    %ebp,%ebp
    776e:	49 d1 eb             	shr    %r11
    7771:	49 09 f3             	or     %rsi,%r11
    7774:	48 89 c6             	mov    %rax,%rsi
    7777:	48 d1 e8             	shr    %rax
    777a:	48 c1 e6 3f          	shl    $0x3f,%rsi
    777e:	4c 09 de             	or     %r11,%rsi
    7781:	41 83 e3 07          	and    $0x7,%r11d
    7785:	e9 2d f7 ff ff       	jmpq   6eb7 <__addtf3@@GCC_4.3.0+0x237>
    778a:	66 0f 1f 44 00 00    	nopw   0x0(%rax,%rax,1)
    7790:	4c 89 ca             	mov    %r9,%rdx
    7793:	45 89 f8             	mov    %r15d,%r8d
    7796:	4d 89 fd             	mov    %r15,%r13
    7799:	31 ed                	xor    %ebp,%ebp
    779b:	49 29 f4             	sub    %rsi,%r12
    779e:	48 19 c2             	sbb    %rax,%rdx
    77a1:	4c 89 e6             	mov    %r12,%rsi
    77a4:	e9 1c f6 ff ff       	jmpq   6dc5 <__addtf3@@GCC_4.3.0+0x145>
    77a9:	0f 1f 80 00 00 00 00 	nopl   0x0(%rax)
    77b0:	48 81 fb ff 7f 00 00 	cmp    $0x7fff,%rbx
    77b7:	0f 84 6c 04 00 00    	je     7c29 <__addtf3@@GCC_4.3.0+0xfa9>
    77bd:	45 89 f8             	mov    %r15d,%r8d
    77c0:	4c 89 c8             	mov    %r9,%rax
    77c3:	4c 89 e6             	mov    %r12,%rsi
    77c6:	48 89 df             	mov    %rbx,%rdi
    77c9:	4d 89 fd             	mov    %r15,%r13
    77cc:	31 ed                	xor    %ebp,%ebp
    77ce:	e9 58 fa ff ff       	jmpq   722b <__addtf3@@GCC_4.3.0+0x5ab>
    77d3:	0f 1f 44 00 00       	nopl   0x0(%rax,%rax,1)
    77d8:	48 81 ff ff 7f 00 00 	cmp    $0x7fff,%rdi
    77df:	0f 84 54 03 00 00    	je     7b39 <__addtf3@@GCC_4.3.0+0xeb9>
    77e5:	48 81 fb ff 7f 00 00 	cmp    $0x7fff,%rbx
    77ec:	0f 84 6c 04 00 00    	je     7c5e <__addtf3@@GCC_4.3.0+0xfde>
    77f2:	48 85 ed             	test   %rbp,%rbp
    77f5:	0f 85 62 03 00 00    	jne    7b5d <__addtf3@@GCC_4.3.0+0xedd>
    77fb:	4d 85 db             	test   %r11,%r11
    77fe:	0f 85 bb 05 00 00    	jne    7dbf <__addtf3@@GCC_4.3.0+0x113f>
    7804:	48 be 00 00 00 00 00 	movabs $0x800000000000,%rsi
    780b:	80 00 00 
    780e:	41 b8 01 00 00 00    	mov    $0x1,%r8d
    7814:	bd 01 00 00 00       	mov    $0x1,%ebp
    7819:	e9 0e f8 ff ff       	jmpq   702c <__addtf3@@GCC_4.3.0+0x3ac>
    781e:	66 90                	xchg   %ax,%ax
    7820:	bd 02 00 00 00       	mov    $0x2,%ebp
    7825:	4c 01 e6             	add    %r12,%rsi
    7828:	4c 11 c8             	adc    %r9,%rax
    782b:	e9 93 fd ff ff       	jmpq   75c3 <__addtf3@@GCC_4.3.0+0x943>
    7830:	bd 02 00 00 00       	mov    $0x2,%ebp
    7835:	4c 29 e6             	sub    %r12,%rsi
    7838:	4c 19 c8             	sbb    %r9,%rax
    783b:	e9 6d f5 ff ff       	jmpq   6dad <__addtf3@@GCC_4.3.0+0x12d>
    7840:	4d 85 db             	test   %r11,%r11
    7843:	0f 84 e7 00 00 00    	je     7930 <__addtf3@@GCC_4.3.0+0xcb0>
    7849:	45 89 f8             	mov    %r15d,%r8d
    784c:	45 31 db             	xor    %r11d,%r11d
    784f:	4c 89 c8             	mov    %r9,%rax
    7852:	4c 89 e6             	mov    %r12,%rsi
    7855:	4d 89 fd             	mov    %r15,%r13
    7858:	0f 1f 84 00 00 00 00 	nopl   0x0(%rax,%rax,1)
    785f:	00 
    7860:	bd 02 00 00 00       	mov    $0x2,%ebp
    7865:	e9 fe f5 ff ff       	jmpq   6e68 <__addtf3@@GCC_4.3.0+0x1e8>
    786a:	66 0f 1f 44 00 00    	nopw   0x0(%rax,%rax,1)
    7870:	48 09 c6             	or     %rax,%rsi
    7873:	74 3b                	je     78b0 <__addtf3@@GCC_4.3.0+0xc30>
    7875:	49 bb ff ff ff ff ff 	movabs $0x1fffffffffffffff,%r11
    787c:	ff ff 1f 
    787f:	48 89 c5             	mov    %rax,%rbp
    7882:	4c 21 d9             	and    %r11,%rcx
    7885:	48 c1 ed 32          	shr    $0x32,%rbp
    7889:	49 89 c3             	mov    %rax,%r11
    788c:	49 c1 e3 3d          	shl    $0x3d,%r11
    7890:	48 83 f5 01          	xor    $0x1,%rbp
    7894:	48 c1 e8 03          	shr    $0x3,%rax
    7898:	83 e5 01             	and    $0x1,%ebp
    789b:	49 09 cb             	or     %rcx,%r11
    789e:	48 89 c6             	mov    %rax,%rsi
    78a1:	e9 7a f7 ff ff       	jmpq   7020 <__addtf3@@GCC_4.3.0+0x3a0>
    78a6:	45 89 f8             	mov    %r15d,%r8d
    78a9:	0f 1f 80 00 00 00 00 	nopl   0x0(%rax)
    78b0:	49 c1 e0 3f          	shl    $0x3f,%r8
    78b4:	48 c7 04 24 00 00 00 	movq   $0x0,(%rsp)
    78bb:	00 
    78bc:	48 b8 00 00 00 00 00 	movabs $0x7fff000000000000,%rax
    78c3:	00 ff 7f 
    78c6:	49 09 c0             	or     %rax,%r8
    78c9:	4c 89 44 24 08       	mov    %r8,0x8(%rsp)
    78ce:	66 0f 6f 04 24       	movdqa (%rsp),%xmm0
    78d3:	e9 b5 f6 ff ff       	jmpq   6f8d <__addtf3@@GCC_4.3.0+0x30d>
    78d8:	0f 1f 84 00 00 00 00 	nopl   0x0(%rax,%rax,1)
    78df:	00 
    78e0:	48 89 f9             	mov    %rdi,%rcx
    78e3:	83 e1 0f             	and    $0xf,%ecx
    78e6:	48 83 f9 04          	cmp    $0x4,%rcx
    78ea:	0f 84 ba f5 ff ff    	je     6eaa <__addtf3@@GCC_4.3.0+0x22a>
    78f0:	48 83 c7 04          	add    $0x4,%rdi
    78f4:	48 83 d2 00          	adc    $0x0,%rdx
    78f8:	e9 ad f5 ff ff       	jmpq   6eaa <__addtf3@@GCC_4.3.0+0x22a>
    78fd:	0f 1f 00             	nopl   (%rax)
    7900:	4d 85 ed             	test   %r13,%r13
    7903:	0f 85 a1 f5 ff ff    	jne    6eaa <__addtf3@@GCC_4.3.0+0x22a>
    7909:	48 83 c7 08          	add    $0x8,%rdi
    790d:	48 83 d2 00          	adc    $0x0,%rdx
    7911:	e9 94 f5 ff ff       	jmpq   6eaa <__addtf3@@GCC_4.3.0+0x22a>
    7916:	66 2e 0f 1f 84 00 00 	nopw   %cs:0x0(%rax,%rax,1)
    791d:	00 00 00 
    7920:	4d 85 ed             	test   %r13,%r13
    7923:	0f 84 81 f5 ff ff    	je     6eaa <__addtf3@@GCC_4.3.0+0x22a>
    7929:	eb de                	jmp    7909 <__addtf3@@GCC_4.3.0+0xc89>
    792b:	0f 1f 44 00 00       	nopl   0x0(%rax,%rax,1)
    7930:	8b 44 24 2c          	mov    0x2c(%rsp),%eax
    7934:	25 00 60 00 00       	and    $0x6000,%eax
    7939:	3d 00 20 00 00       	cmp    $0x2000,%eax
    793e:	41 0f 94 c0          	sete   %r8b
    7942:	31 ed                	xor    %ebp,%ebp
    7944:	31 f6                	xor    %esi,%esi
    7946:	45 31 db             	xor    %r11d,%r11d
    7949:	31 ff                	xor    %edi,%edi
    794b:	e9 04 f9 ff ff       	jmpq   7254 <__addtf3@@GCC_4.3.0+0x5d4>
    7950:	4d 85 ed             	test   %r13,%r13
    7953:	0f 84 27 fb ff ff    	je     7480 <__addtf3@@GCC_4.3.0+0x800>
    7959:	83 cd 28             	or     $0x28,%ebp
    795c:	e9 3f f9 ff ff       	jmpq   72a0 <__addtf3@@GCC_4.3.0+0x620>
    7961:	45 89 f8             	mov    %r15d,%r8d
    7964:	0f 1f 40 00          	nopl   0x0(%rax)
    7968:	31 f6                	xor    %esi,%esi
    796a:	45 31 db             	xor    %r11d,%r11d
    796d:	31 ed                	xor    %ebp,%ebp
    796f:	e9 ac f6 ff ff       	jmpq   7020 <__addtf3@@GCC_4.3.0+0x3a0>
    7974:	0f 1f 40 00          	nopl   0x0(%rax)
    7978:	48 89 c3             	mov    %rax,%rbx
    797b:	48 09 f3             	or     %rsi,%rbx
    797e:	0f 84 2c ff ff ff    	je     78b0 <__addtf3@@GCC_4.3.0+0xc30>
    7984:	48 0f ba e0 32       	bt     $0x32,%rax
    7989:	0f 82 62 f8 ff ff    	jb     71f1 <__addtf3@@GCC_4.3.0+0x571>
    798f:	49 bb ff ff ff ff ff 	movabs $0x1fffffffffffffff,%r11
    7996:	ff ff 1f 
    7999:	bd 01 00 00 00       	mov    $0x1,%ebp
    799e:	4c 21 d9             	and    %r11,%rcx
    79a1:	49 89 c3             	mov    %rax,%r11
    79a4:	48 c1 e8 03          	shr    $0x3,%rax
    79a8:	49 c1 e3 3d          	shl    $0x3d,%r11
    79ac:	48 89 c6             	mov    %rax,%rsi
    79af:	49 09 cb             	or     %rcx,%r11
    79b2:	e9 69 f6 ff ff       	jmpq   7020 <__addtf3@@GCC_4.3.0+0x3a0>
    79b7:	66 0f 1f 84 00 00 00 	nopw   0x0(%rax,%rax,1)
    79be:	00 00 
    79c0:	31 ff                	xor    %edi,%edi
    79c2:	48 09 f0             	or     %rsi,%rax
    79c5:	40 0f 95 c7          	setne  %dil
    79c9:	31 c0                	xor    %eax,%eax
    79cb:	e9 82 f9 ff ff       	jmpq   7352 <__addtf3@@GCC_4.3.0+0x6d2>
    79d0:	8d 4a c0             	lea    -0x40(%rdx),%ecx
    79d3:	49 89 c0             	mov    %rax,%r8
    79d6:	49 d3 e8             	shr    %cl,%r8
    79d9:	83 fa 40             	cmp    $0x40,%edx
    79dc:	74 0d                	je     79eb <__addtf3@@GCC_4.3.0+0xd6b>
    79de:	b9 80 00 00 00       	mov    $0x80,%ecx
    79e3:	29 d1                	sub    %edx,%ecx
    79e5:	48 d3 e0             	shl    %cl,%rax
    79e8:	48 09 c6             	or     %rax,%rsi
    79eb:	31 ff                	xor    %edi,%edi
    79ed:	48 85 f6             	test   %rsi,%rsi
    79f0:	40 0f 95 c7          	setne  %dil
    79f4:	31 c0                	xor    %eax,%eax
    79f6:	4c 09 c7             	or     %r8,%rdi
    79f9:	e9 8d fc ff ff       	jmpq   768b <__addtf3@@GCC_4.3.0+0xa0b>
    79fe:	66 90                	xchg   %ax,%ax
    7a00:	48 81 ff ff 7f 00 00 	cmp    $0x7fff,%rdi
    7a07:	0f 84 e4 02 00 00    	je     7cf1 <__addtf3@@GCC_4.3.0+0x1071>
    7a0d:	48 81 fb ff 7f 00 00 	cmp    $0x7fff,%rbx
    7a14:	0f 84 22 04 00 00    	je     7e3c <__addtf3@@GCC_4.3.0+0x11bc>
    7a1a:	48 85 ed             	test   %rbp,%rbp
    7a1d:	0f 84 19 03 00 00    	je     7d3c <__addtf3@@GCC_4.3.0+0x10bc>
    7a23:	4d 09 cc             	or     %r9,%r12
    7a26:	0f 84 22 04 00 00    	je     7e4e <__addtf3@@GCC_4.3.0+0x11ce>
    7a2c:	48 bf ff ff ff ff ff 	movabs $0x1fffffffffffffff,%rdi
    7a33:	ff ff 1f 
    7a36:	48 89 c6             	mov    %rax,%rsi
    7a39:	48 c1 e8 03          	shr    $0x3,%rax
    7a3d:	48 c1 e6 3d          	shl    $0x3d,%rsi
    7a41:	48 21 f9             	and    %rdi,%rcx
    7a44:	48 09 f1             	or     %rsi,%rcx
    7a47:	4c 89 ce             	mov    %r9,%rsi
    7a4a:	48 c1 ee 03          	shr    $0x3,%rsi
    7a4e:	48 39 f0             	cmp    %rsi,%rax
    7a51:	77 20                	ja     7a73 <__addtf3@@GCC_4.3.0+0xdf3>
    7a53:	4c 21 d7             	and    %r10,%rdi
    7a56:	49 c1 e1 3d          	shl    $0x3d,%r9
    7a5a:	4c 09 cf             	or     %r9,%rdi
    7a5d:	48 39 f0             	cmp    %rsi,%rax
    7a60:	75 08                	jne    7a6a <__addtf3@@GCC_4.3.0+0xdea>
    7a62:	48 89 f0             	mov    %rsi,%rax
    7a65:	48 39 f9             	cmp    %rdi,%rcx
    7a68:	73 09                	jae    7a73 <__addtf3@@GCC_4.3.0+0xdf3>
    7a6a:	45 89 f8             	mov    %r15d,%r8d
    7a6d:	48 89 f0             	mov    %rsi,%rax
    7a70:	48 89 f9             	mov    %rdi,%rcx
    7a73:	48 be ff ff ff ff ff 	movabs $0x1fffffffffffffff,%rsi
    7a7a:	ff ff 1f 
    7a7d:	49 89 cb             	mov    %rcx,%r11
    7a80:	89 d5                	mov    %edx,%ebp
    7a82:	49 c1 eb 3d          	shr    $0x3d,%r11
    7a86:	48 21 f1             	and    %rsi,%rcx
    7a89:	48 89 c6             	mov    %rax,%rsi
    7a8c:	49 c1 e3 3d          	shl    $0x3d,%r11
    7a90:	49 09 cb             	or     %rcx,%r11
    7a93:	e9 88 f5 ff ff       	jmpq   7020 <__addtf3@@GCC_4.3.0+0x3a0>
    7a98:	0f 1f 84 00 00 00 00 	nopl   0x0(%rax,%rax,1)
    7a9f:	00 
    7aa0:	49 29 f4             	sub    %rsi,%r12
    7aa3:	49 19 c1             	sbb    %rax,%r9
    7aa6:	45 89 f8             	mov    %r15d,%r8d
    7aa9:	4c 89 c8             	mov    %r9,%rax
    7aac:	4c 89 e6             	mov    %r12,%rsi
    7aaf:	48 89 df             	mov    %rbx,%rdi
    7ab2:	4d 89 fd             	mov    %r15,%r13
    7ab5:	bd 02 00 00 00       	mov    $0x2,%ebp
    7aba:	e9 ee f2 ff ff       	jmpq   6dad <__addtf3@@GCC_4.3.0+0x12d>
    7abf:	90                   	nop
    7ac0:	4d 09 cc             	or     %r9,%r12
    7ac3:	0f 84 dd fd ff ff    	je     78a6 <__addtf3@@GCC_4.3.0+0xc26>
    7ac9:	49 bb ff ff ff ff ff 	movabs $0x1fffffffffffffff,%r11
    7ad0:	ff ff 1f 
    7ad3:	4c 89 cd             	mov    %r9,%rbp
    7ad6:	4c 89 ce             	mov    %r9,%rsi
    7ad9:	45 89 f8             	mov    %r15d,%r8d
    7adc:	48 c1 ed 32          	shr    $0x32,%rbp
    7ae0:	4d 21 da             	and    %r11,%r10
    7ae3:	4d 89 cb             	mov    %r9,%r11
    7ae6:	48 c1 ee 03          	shr    $0x3,%rsi
    7aea:	48 83 f5 01          	xor    $0x1,%rbp
    7aee:	49 c1 e3 3d          	shl    $0x3d,%r11
    7af2:	83 e5 01             	and    $0x1,%ebp
    7af5:	4d 09 d3             	or     %r10,%r11
    7af8:	e9 23 f5 ff ff       	jmpq   7020 <__addtf3@@GCC_4.3.0+0x3a0>
    7afd:	0f 1f 00             	nopl   (%rax)
    7b00:	4c 89 c8             	mov    %r9,%rax
    7b03:	48 81 fb ff 7f 00 00 	cmp    $0x7fff,%rbx
    7b0a:	0f 84 0a 03 00 00    	je     7e1a <__addtf3@@GCC_4.3.0+0x119a>
    7b10:	4c 89 e6             	mov    %r12,%rsi
    7b13:	48 89 df             	mov    %rbx,%rdi
    7b16:	31 ed                	xor    %ebp,%ebp
    7b18:	e9 0e f7 ff ff       	jmpq   722b <__addtf3@@GCC_4.3.0+0x5ab>
    7b1d:	0f 1f 00             	nopl   (%rax)
    7b20:	31 f6                	xor    %esi,%esi
    7b22:	4d 85 db             	test   %r11,%r11
    7b25:	0f 84 29 f7 ff ff    	je     7254 <__addtf3@@GCC_4.3.0+0x5d4>
    7b2b:	45 31 db             	xor    %r11d,%r11d
    7b2e:	4c 89 c8             	mov    %r9,%rax
    7b31:	4c 89 e6             	mov    %r12,%rsi
    7b34:	e9 27 fd ff ff       	jmpq   7860 <__addtf3@@GCC_4.3.0+0xbe0>
    7b39:	48 85 ed             	test   %rbp,%rbp
    7b3c:	0f 84 0f 01 00 00    	je     7c51 <__addtf3@@GCC_4.3.0+0xfd1>
    7b42:	48 89 c2             	mov    %rax,%rdx
    7b45:	48 c1 ea 32          	shr    $0x32,%rdx
    7b49:	48 83 f2 01          	xor    $0x1,%rdx
    7b4d:	83 e2 01             	and    $0x1,%edx
    7b50:	48 81 fb ff 7f 00 00 	cmp    $0x7fff,%rbx
    7b57:	0f 84 01 01 00 00    	je     7c5e <__addtf3@@GCC_4.3.0+0xfde>
    7b5d:	48 89 c7             	mov    %rax,%rdi
    7b60:	48 c1 e8 03          	shr    $0x3,%rax
    7b64:	48 c1 e7 3d          	shl    $0x3d,%rdi
    7b68:	48 89 c6             	mov    %rax,%rsi
    7b6b:	4d 85 db             	test   %r11,%r11
    7b6e:	0f 85 1f 01 00 00    	jne    7c93 <__addtf3@@GCC_4.3.0+0x1013>
    7b74:	49 bb ff ff ff ff ff 	movabs $0x1fffffffffffffff,%r11
    7b7b:	ff ff 1f 
    7b7e:	89 d5                	mov    %edx,%ebp
    7b80:	4c 21 d9             	and    %r11,%rcx
    7b83:	48 09 f9             	or     %rdi,%rcx
    7b86:	49 89 cb             	mov    %rcx,%r11
    7b89:	e9 92 f4 ff ff       	jmpq   7020 <__addtf3@@GCC_4.3.0+0x3a0>
    7b8e:	8d 4a c0             	lea    -0x40(%rdx),%ecx
    7b91:	49 89 c2             	mov    %rax,%r10
    7b94:	49 d3 ea             	shr    %cl,%r10
    7b97:	83 fa 40             	cmp    $0x40,%edx
    7b9a:	74 0d                	je     7ba9 <__addtf3@@GCC_4.3.0+0xf29>
    7b9c:	b9 80 00 00 00       	mov    $0x80,%ecx
    7ba1:	29 d1                	sub    %edx,%ecx
    7ba3:	48 d3 e0             	shl    %cl,%rax
    7ba6:	48 09 c6             	or     %rax,%rsi
    7ba9:	31 ff                	xor    %edi,%edi
    7bab:	48 85 f6             	test   %rsi,%rsi
    7bae:	40 0f 95 c7          	setne  %dil
    7bb2:	31 c0                	xor    %eax,%eax
    7bb4:	4c 09 d7             	or     %r10,%rdi
    7bb7:	e9 96 f7 ff ff       	jmpq   7352 <__addtf3@@GCC_4.3.0+0x6d2>
    7bbc:	8b 4c 24 2c          	mov    0x2c(%rsp),%ecx
    7bc0:	89 c8                	mov    %ecx,%eax
    7bc2:	25 00 60 00 00       	and    $0x6000,%eax
    7bc7:	0f 84 43 02 00 00    	je     7e10 <__addtf3@@GCC_4.3.0+0x1190>
    7bcd:	41 83 f3 01          	xor    $0x1,%r11d
    7bd1:	3d 00 40 00 00       	cmp    $0x4000,%eax
    7bd6:	0f 94 c2             	sete   %dl
    7bd9:	41 84 d3             	test   %dl,%r11b
    7bdc:	0f 85 2b 02 00 00    	jne    7e0d <__addtf3@@GCC_4.3.0+0x118d>
    7be2:	bd 28 00 00 00       	mov    $0x28,%ebp
    7be7:	3d 00 20 00 00       	cmp    $0x2000,%eax
    7bec:	0f 85 ba f7 ff ff    	jne    73ac <__addtf3@@GCC_4.3.0+0x72c>
    7bf2:	45 31 c0             	xor    %r8d,%r8d
    7bf5:	4d 85 ed             	test   %r13,%r13
    7bf8:	0f 84 76 f6 ff ff    	je     7274 <__addtf3@@GCC_4.3.0+0x5f4>
    7bfe:	41 b8 01 00 00 00    	mov    $0x1,%r8d
    7c04:	e9 7a f8 ff ff       	jmpq   7483 <__addtf3@@GCC_4.3.0+0x803>
    7c09:	0f 1f 80 00 00 00 00 	nopl   0x0(%rax)
    7c10:	49 01 f4             	add    %rsi,%r12
    7c13:	49 11 c1             	adc    %rax,%r9
    7c16:	48 89 df             	mov    %rbx,%rdi
    7c19:	4c 89 c8             	mov    %r9,%rax
    7c1c:	4c 89 e6             	mov    %r12,%rsi
    7c1f:	bd 02 00 00 00       	mov    $0x2,%ebp
    7c24:	e9 9a f9 ff ff       	jmpq   75c3 <__addtf3@@GCC_4.3.0+0x943>
    7c29:	4c 89 c8             	mov    %r9,%rax
    7c2c:	4c 09 e0             	or     %r12,%rax
    7c2f:	0f 84 2c fd ff ff    	je     7961 <__addtf3@@GCC_4.3.0+0xce1>
    7c35:	4c 89 cd             	mov    %r9,%rbp
    7c38:	45 89 f8             	mov    %r15d,%r8d
    7c3b:	4c 89 c8             	mov    %r9,%rax
    7c3e:	4c 89 e6             	mov    %r12,%rsi
    7c41:	48 c1 ed 32          	shr    $0x32,%rbp
    7c45:	48 83 f5 01          	xor    $0x1,%rbp
    7c49:	83 e5 01             	and    $0x1,%ebp
    7c4c:	e9 a0 f5 ff ff       	jmpq   71f1 <__addtf3@@GCC_4.3.0+0x571>
    7c51:	48 81 fb ff 7f 00 00 	cmp    $0x7fff,%rbx
    7c58:	0f 85 9d fb ff ff    	jne    77fb <__addtf3@@GCC_4.3.0+0xb7b>
    7c5e:	4d 85 db             	test   %r11,%r11
    7c61:	0f 84 0c 02 00 00    	je     7e73 <__addtf3@@GCC_4.3.0+0x11f3>
    7c67:	48 be 00 00 00 00 00 	movabs $0x4000000000000,%rsi
    7c6e:	00 04 00 
    7c71:	49 85 f1             	test   %rsi,%r9
    7c74:	be 01 00 00 00       	mov    $0x1,%esi
    7c79:	0f 44 d6             	cmove  %esi,%edx
    7c7c:	48 85 ed             	test   %rbp,%rbp
    7c7f:	0f 84 3a 01 00 00    	je     7dbf <__addtf3@@GCC_4.3.0+0x113f>
    7c85:	48 89 c7             	mov    %rax,%rdi
    7c88:	48 c1 e8 03          	shr    $0x3,%rax
    7c8c:	48 c1 e7 3d          	shl    $0x3d,%rdi
    7c90:	48 89 c6             	mov    %rax,%rsi
    7c93:	48 b8 ff ff ff ff ff 	movabs $0x1fffffffffffffff,%rax
    7c9a:	ff ff 1f 
    7c9d:	48 21 c1             	and    %rax,%rcx
    7ca0:	48 09 f9             	or     %rdi,%rcx
    7ca3:	4c 89 cf             	mov    %r9,%rdi
    7ca6:	48 c1 ef 03          	shr    $0x3,%rdi
    7caa:	48 39 f7             	cmp    %rsi,%rdi
    7cad:	72 20                	jb     7ccf <__addtf3@@GCC_4.3.0+0x104f>
    7caf:	4c 21 d0             	and    %r10,%rax
    7cb2:	49 c1 e1 3d          	shl    $0x3d,%r9
    7cb6:	4c 09 c8             	or     %r9,%rax
    7cb9:	48 39 c1             	cmp    %rax,%rcx
    7cbc:	72 08                	jb     7cc6 <__addtf3@@GCC_4.3.0+0x1046>
    7cbe:	48 39 f7             	cmp    %rsi,%rdi
    7cc1:	48 89 fe             	mov    %rdi,%rsi
    7cc4:	74 09                	je     7ccf <__addtf3@@GCC_4.3.0+0x104f>
    7cc6:	45 89 f8             	mov    %r15d,%r8d
    7cc9:	48 89 fe             	mov    %rdi,%rsi
    7ccc:	48 89 c1             	mov    %rax,%rcx
    7ccf:	48 b8 ff ff ff ff ff 	movabs $0x1fffffffffffffff,%rax
    7cd6:	ff ff 1f 
    7cd9:	49 89 cb             	mov    %rcx,%r11
    7cdc:	89 d5                	mov    %edx,%ebp
    7cde:	49 c1 eb 3d          	shr    $0x3d,%r11
    7ce2:	48 21 c1             	and    %rax,%rcx
    7ce5:	49 c1 e3 3d          	shl    $0x3d,%r11
    7ce9:	49 09 cb             	or     %rcx,%r11
    7cec:	e9 2f f3 ff ff       	jmpq   7020 <__addtf3@@GCC_4.3.0+0x3a0>
    7cf1:	48 85 ed             	test   %rbp,%rbp
    7cf4:	0f 84 a5 01 00 00    	je     7e9f <__addtf3@@GCC_4.3.0+0x121f>
    7cfa:	48 89 c2             	mov    %rax,%rdx
    7cfd:	48 c1 ea 32          	shr    $0x32,%rdx
    7d01:	48 83 f2 01          	xor    $0x1,%rdx
    7d05:	83 e2 01             	and    $0x1,%edx
    7d08:	48 81 fb ff 7f 00 00 	cmp    $0x7fff,%rbx
    7d0f:	0f 85 0e fd ff ff    	jne    7a23 <__addtf3@@GCC_4.3.0+0xda3>
    7d15:	4d 09 cc             	or     %r9,%r12
    7d18:	0f 84 30 01 00 00    	je     7e4e <__addtf3@@GCC_4.3.0+0x11ce>
    7d1e:	48 be 00 00 00 00 00 	movabs $0x4000000000000,%rsi
    7d25:	00 04 00 
    7d28:	49 85 f1             	test   %rsi,%r9
    7d2b:	be 01 00 00 00       	mov    $0x1,%esi
    7d30:	0f 44 d6             	cmove  %esi,%edx
    7d33:	48 85 ed             	test   %rbp,%rbp
    7d36:	0f 85 f0 fc ff ff    	jne    7a2c <__addtf3@@GCC_4.3.0+0xdac>
    7d3c:	49 bb ff ff ff ff ff 	movabs $0x1fffffffffffffff,%r11
    7d43:	ff ff 1f 
    7d46:	4c 89 c8             	mov    %r9,%rax
    7d49:	4c 89 ce             	mov    %r9,%rsi
    7d4c:	48 c1 e0 3d          	shl    $0x3d,%rax
    7d50:	4d 21 da             	and    %r11,%r10
    7d53:	48 c1 ee 03          	shr    $0x3,%rsi
    7d57:	89 d5                	mov    %edx,%ebp
    7d59:	4c 09 d0             	or     %r10,%rax
    7d5c:	49 89 c3             	mov    %rax,%r11
    7d5f:	e9 bc f2 ff ff       	jmpq   7020 <__addtf3@@GCC_4.3.0+0x3a0>
    7d64:	49 89 d3             	mov    %rdx,%r11
    7d67:	49 09 cb             	or     %rcx,%r11
    7d6a:	0f 84 11 01 00 00    	je     7e81 <__addtf3@@GCC_4.3.0+0x1201>
    7d70:	49 89 cb             	mov    %rcx,%r11
    7d73:	48 89 d0             	mov    %rdx,%rax
    7d76:	48 89 ce             	mov    %rcx,%rsi
    7d79:	41 83 e3 07          	and    $0x7,%r11d
    7d7d:	e9 de fa ff ff       	jmpq   7860 <__addtf3@@GCC_4.3.0+0xbe0>
    7d82:	4d 09 cc             	or     %r9,%r12
    7d85:	0f 84 25 fb ff ff    	je     78b0 <__addtf3@@GCC_4.3.0+0xc30>
    7d8b:	49 bb ff ff ff ff ff 	movabs $0x1fffffffffffffff,%r11
    7d92:	ff ff 1f 
    7d95:	4c 89 cd             	mov    %r9,%rbp
    7d98:	4c 89 c8             	mov    %r9,%rax
    7d9b:	4c 89 ce             	mov    %r9,%rsi
    7d9e:	48 c1 ed 32          	shr    $0x32,%rbp
    7da2:	4d 21 da             	and    %r11,%r10
    7da5:	48 c1 e0 3d          	shl    $0x3d,%rax
    7da9:	48 83 f5 01          	xor    $0x1,%rbp
    7dad:	4c 09 d0             	or     %r10,%rax
    7db0:	48 c1 ee 03          	shr    $0x3,%rsi
    7db4:	83 e5 01             	and    $0x1,%ebp
    7db7:	49 89 c3             	mov    %rax,%r11
    7dba:	e9 61 f2 ff ff       	jmpq   7020 <__addtf3@@GCC_4.3.0+0x3a0>
    7dbf:	4c 89 c8             	mov    %r9,%rax
    7dc2:	4c 89 ce             	mov    %r9,%rsi
    7dc5:	45 89 f8             	mov    %r15d,%r8d
    7dc8:	89 d5                	mov    %edx,%ebp
    7dca:	49 bb ff ff ff ff ff 	movabs $0x1fffffffffffffff,%r11
    7dd1:	ff ff 1f 
    7dd4:	48 c1 e0 3d          	shl    $0x3d,%rax
    7dd8:	4d 21 da             	and    %r11,%r10
    7ddb:	48 c1 ee 03          	shr    $0x3,%rsi
    7ddf:	4c 09 d0             	or     %r10,%rax
    7de2:	49 89 c3             	mov    %rax,%r11
    7de5:	e9 36 f2 ff ff       	jmpq   7020 <__addtf3@@GCC_4.3.0+0x3a0>
    7dea:	45 89 f8             	mov    %r15d,%r8d
    7ded:	e9 91 f6 ff ff       	jmpq   7483 <__addtf3@@GCC_4.3.0+0x803>
    7df2:	49 89 f3             	mov    %rsi,%r11
    7df5:	48 0f ba f0 33       	btr    $0x33,%rax
    7dfa:	bf 01 00 00 00       	mov    $0x1,%edi
    7dff:	bd 02 00 00 00       	mov    $0x2,%ebp
    7e04:	41 83 e3 07          	and    $0x7,%r11d
    7e08:	e9 aa f0 ff ff       	jmpq   6eb7 <__addtf3@@GCC_4.3.0+0x237>
    7e0d:	45 31 c0             	xor    %r8d,%r8d
    7e10:	bd 28 00 00 00       	mov    $0x28,%ebp
    7e15:	e9 69 f6 ff ff       	jmpq   7483 <__addtf3@@GCC_4.3.0+0x803>
    7e1a:	4c 09 e0             	or     %r12,%rax
    7e1d:	0f 84 45 fb ff ff    	je     7968 <__addtf3@@GCC_4.3.0+0xce8>
    7e23:	4c 89 cd             	mov    %r9,%rbp
    7e26:	4c 89 c8             	mov    %r9,%rax
    7e29:	4c 89 e6             	mov    %r12,%rsi
    7e2c:	48 c1 ed 32          	shr    $0x32,%rbp
    7e30:	48 83 f5 01          	xor    $0x1,%rbp
    7e34:	83 e5 01             	and    $0x1,%ebp
    7e37:	e9 b5 f3 ff ff       	jmpq   71f1 <__addtf3@@GCC_4.3.0+0x571>
    7e3c:	4d 09 cc             	or     %r9,%r12
    7e3f:	0f 85 d9 fe ff ff    	jne    7d1e <__addtf3@@GCC_4.3.0+0x109e>
    7e45:	48 85 ed             	test   %rbp,%rbp
    7e48:	0f 84 ee fe ff ff    	je     7d3c <__addtf3@@GCC_4.3.0+0x10bc>
    7e4e:	49 bb ff ff ff ff ff 	movabs $0x1fffffffffffffff,%r11
    7e55:	ff ff 1f 
    7e58:	89 d5                	mov    %edx,%ebp
    7e5a:	4c 21 d9             	and    %r11,%rcx
    7e5d:	49 89 c3             	mov    %rax,%r11
    7e60:	48 c1 e8 03          	shr    $0x3,%rax
    7e64:	49 c1 e3 3d          	shl    $0x3d,%r11
    7e68:	48 89 c6             	mov    %rax,%rsi
    7e6b:	49 09 cb             	or     %rcx,%r11
    7e6e:	e9 ad f1 ff ff       	jmpq   7020 <__addtf3@@GCC_4.3.0+0x3a0>
    7e73:	48 85 ed             	test   %rbp,%rbp
    7e76:	0f 84 88 f9 ff ff    	je     7804 <__addtf3@@GCC_4.3.0+0xb84>
    7e7c:	e9 dc fc ff ff       	jmpq   7b5d <__addtf3@@GCC_4.3.0+0xedd>
    7e81:	8b 44 24 2c          	mov    0x2c(%rsp),%eax
    7e85:	bd 02 00 00 00       	mov    $0x2,%ebp
    7e8a:	25 00 60 00 00       	and    $0x6000,%eax
    7e8f:	3d 00 20 00 00       	cmp    $0x2000,%eax
    7e94:	41 0f 94 c0          	sete   %r8b
    7e98:	31 f6                	xor    %esi,%esi
    7e9a:	e9 b5 f3 ff ff       	jmpq   7254 <__addtf3@@GCC_4.3.0+0x5d4>
    7e9f:	48 81 fb ff 7f 00 00 	cmp    $0x7fff,%rbx
    7ea6:	0f 85 90 fe ff ff    	jne    7d3c <__addtf3@@GCC_4.3.0+0x10bc>
    7eac:	4d 09 cc             	or     %r9,%r12
    7eaf:	0f 85 69 fe ff ff    	jne    7d1e <__addtf3@@GCC_4.3.0+0x109e>
    7eb5:	e9 82 fe ff ff       	jmpq   7d3c <__addtf3@@GCC_4.3.0+0x10bc>
    7eba:	45 31 c0             	xor    %r8d,%r8d
    7ebd:	e9 c1 f5 ff ff       	jmpq   7483 <__addtf3@@GCC_4.3.0+0x803>
    7ec2:	41 89 d0             	mov    %edx,%r8d
    7ec5:	e9 b9 f5 ff ff       	jmpq   7483 <__addtf3@@GCC_4.3.0+0x803>
    7eca:	45 31 db             	xor    %r11d,%r11d
    7ecd:	bf ff 7f 00 00       	mov    $0x7fff,%edi
    7ed2:	31 d2                	xor    %edx,%edx
    7ed4:	e9 62 f0 ff ff       	jmpq   6f3b <__addtf3@@GCC_4.3.0+0x2bb>
    7ed9:	b9 01 00 00 00       	mov    $0x1,%ecx
    7ede:	48 c1 e1 33          	shl    $0x33,%rcx
    7ee2:	48 21 c1             	and    %rax,%rcx
    7ee5:	85 d2                	test   %edx,%edx
    7ee7:	0f 84 14 f0 ff ff    	je     6f01 <__addtf3@@GCC_4.3.0+0x281>
    7eed:	40 f6 c5 20          	test   $0x20,%bpl
    7ef1:	0f 85 07 f0 ff ff    	jne    6efe <__addtf3@@GCC_4.3.0+0x27e>
    7ef7:	f6 44 24 2d 08       	testb  $0x8,0x2d(%rsp)
    7efc:	0f 85 ff ef ff ff    	jne    6f01 <__addtf3@@GCC_4.3.0+0x281>
    7f02:	e9 f7 ef ff ff       	jmpq   6efe <__addtf3@@GCC_4.3.0+0x27e>
    7f07:	66 0f 1f 84 00 00 00 	nopw   0x0(%rax,%rax,1)
    7f0e:	00 00 

0000000000007f10 <__divtf3@@GCC_4.3.0>:
    7f10:	f3 0f 1e fa          	endbr64 
    7f14:	41 57                	push   %r15
    7f16:	41 56                	push   %r14
    7f18:	41 55                	push   %r13
    7f1a:	41 54                	push   %r12
    7f1c:	55                   	push   %rbp
    7f1d:	53                   	push   %rbx
    7f1e:	48 83 ec 38          	sub    $0x38,%rsp
    7f22:	0f 29 04 24          	movaps %xmm0,(%rsp)
    7f26:	0f 29 4c 24 10       	movaps %xmm1,0x10(%rsp)
    7f2b:	0f ae 5c 24 2c       	stmxcsr 0x2c(%rsp)
    7f30:	48 8b 54 24 08       	mov    0x8(%rsp),%rdx
    7f35:	48 8b 34 24          	mov    (%rsp),%rsi
    7f39:	48 b8 ff ff ff ff ff 	movabs $0xffffffffffff,%rax
    7f40:	ff 00 00 
    7f43:	49 89 d0             	mov    %rdx,%r8
    7f46:	48 21 d0             	and    %rdx,%rax
    7f49:	48 c1 ea 3f          	shr    $0x3f,%rdx
    7f4d:	49 c1 e8 30          	shr    $0x30,%r8
    7f51:	89 d7                	mov    %edx,%edi
    7f53:	44 0f b6 f2          	movzbl %dl,%r14d
    7f57:	66 41 81 e0 ff 7f    	and    $0x7fff,%r8w
    7f5d:	0f 84 cd 01 00 00    	je     8130 <__divtf3@@GCC_4.3.0+0x220>
    7f63:	66 41 81 f8 ff 7f    	cmp    $0x7fff,%r8w
    7f69:	0f 84 29 02 00 00    	je     8198 <__divtf3@@GCC_4.3.0+0x288>
    7f6f:	49 89 f3             	mov    %rsi,%r11
    7f72:	48 c1 e0 03          	shl    $0x3,%rax
    7f76:	45 0f b7 c0          	movzwl %r8w,%r8d
    7f7a:	45 31 e4             	xor    %r12d,%r12d
    7f7d:	49 c1 eb 3d          	shr    $0x3d,%r11
    7f81:	48 c1 e6 03          	shl    $0x3,%rsi
    7f85:	45 31 ff             	xor    %r15d,%r15d
    7f88:	31 ed                	xor    %ebp,%ebp
    7f8a:	49 09 c3             	or     %rax,%r11
    7f8d:	49 81 e8 ff 3f 00 00 	sub    $0x3fff,%r8
    7f94:	49 0f ba eb 33       	bts    $0x33,%r11
    7f99:	48 8b 4c 24 18       	mov    0x18(%rsp),%rcx
    7f9e:	4c 8b 4c 24 10       	mov    0x10(%rsp),%r9
    7fa3:	49 ba ff ff ff ff ff 	movabs $0xffffffffffff,%r10
    7faa:	ff 00 00 
    7fad:	48 89 c8             	mov    %rcx,%rax
    7fb0:	49 89 cd             	mov    %rcx,%r13
    7fb3:	49 21 ca             	and    %rcx,%r10
    7fb6:	49 c1 ed 3f          	shr    $0x3f,%r13
    7fba:	48 c1 e8 30          	shr    $0x30,%rax
    7fbe:	4c 89 d3             	mov    %r10,%rbx
    7fc1:	4c 89 2c 24          	mov    %r13,(%rsp)
    7fc5:	66 25 ff 7f          	and    $0x7fff,%ax
    7fc9:	0f 84 01 01 00 00    	je     80d0 <__divtf3@@GCC_4.3.0+0x1c0>
    7fcf:	66 3d ff 7f          	cmp    $0x7fff,%ax
    7fd3:	0f 84 bf 00 00 00    	je     8098 <__divtf3@@GCC_4.3.0+0x188>
    7fd9:	4d 89 ca             	mov    %r9,%r10
    7fdc:	48 c1 e3 03          	shl    $0x3,%rbx
    7fe0:	0f b7 c0             	movzwl %ax,%eax
    7fe3:	49 c1 ea 3d          	shr    $0x3d,%r10
    7fe7:	48 2d ff 3f 00 00    	sub    $0x3fff,%rax
    7fed:	49 09 da             	or     %rbx,%r10
    7ff0:	49 29 c0             	sub    %rax,%r8
    7ff3:	4a 8d 1c cd 00 00 00 	lea    0x0(,%r9,8),%rbx
    7ffa:	00 
    7ffb:	49 0f ba ea 33       	bts    $0x33,%r10
    8000:	89 d7                	mov    %edx,%edi
    8002:	48 8d 15 3f d5 00 00 	lea    0xd53f(%rip),%rdx        # 15548 <__emutls_register_common@@GCC_4.3.0+0x1538>
    8009:	4a 63 04 a2          	movslq (%rdx,%r12,4),%rax
    800d:	44 31 ef             	xor    %r13d,%edi
    8010:	40 0f b6 cf          	movzbl %dil,%ecx
    8014:	48 01 d0             	add    %rdx,%rax
    8017:	3e ff e0             	notrack jmpq *%rax
    801a:	66 0f 1f 44 00 00    	nopw   0x0(%rax,%rax,1)
    8020:	49 83 ff 01          	cmp    $0x1,%r15
    8024:	0f 85 96 03 00 00    	jne    83c0 <__divtf3@@GCC_4.3.0+0x4b0>
    802a:	44 89 f7             	mov    %r14d,%edi
    802d:	83 e7 01             	and    $0x1,%edi
    8030:	31 c0                	xor    %eax,%eax
    8032:	31 c9                	xor    %ecx,%ecx
    8034:	31 f6                	xor    %esi,%esi
    8036:	48 c7 44 24 08 00 00 	movq   $0x0,0x8(%rsp)
    803d:	00 00 
    803f:	48 8b 54 24 08       	mov    0x8(%rsp),%rdx
    8044:	c1 e7 0f             	shl    $0xf,%edi
    8047:	49 b8 00 00 00 00 00 	movabs $0xffff000000000000,%r8
    804e:	00 ff ff 
    8051:	48 89 34 24          	mov    %rsi,(%rsp)
    8055:	09 f8                	or     %edi,%eax
    8057:	48 be ff ff ff ff ff 	movabs $0xffffffffffff,%rsi
    805e:	ff 00 00 
    8061:	48 21 f1             	and    %rsi,%rcx
    8064:	4c 21 c2             	and    %r8,%rdx
    8067:	48 c1 e0 30          	shl    $0x30,%rax
    806b:	48 09 ca             	or     %rcx,%rdx
    806e:	48 21 f2             	and    %rsi,%rdx
    8071:	48 09 c2             	or     %rax,%rdx
    8074:	48 89 54 24 08       	mov    %rdx,0x8(%rsp)
    8079:	66 0f 6f 04 24       	movdqa (%rsp),%xmm0
    807e:	85 ed                	test   %ebp,%ebp
    8080:	0f 85 bf 02 00 00    	jne    8345 <__divtf3@@GCC_4.3.0+0x435>
    8086:	48 83 c4 38          	add    $0x38,%rsp
    808a:	5b                   	pop    %rbx
    808b:	5d                   	pop    %rbp
    808c:	41 5c                	pop    %r12
    808e:	41 5d                	pop    %r13
    8090:	41 5e                	pop    %r14
    8092:	41 5f                	pop    %r15
    8094:	c3                   	retq   
    8095:	0f 1f 00             	nopl   (%rax)
    8098:	49 81 e8 ff 7f 00 00 	sub    $0x7fff,%r8
    809f:	4d 09 ca             	or     %r9,%r10
    80a2:	0f 85 78 01 00 00    	jne    8220 <__divtf3@@GCC_4.3.0+0x310>
    80a8:	49 83 cc 02          	or     $0x2,%r12
    80ac:	44 31 ea             	xor    %r13d,%edx
    80af:	49 83 ec 03          	sub    $0x3,%r12
    80b3:	49 83 fc 0c          	cmp    $0xc,%r12
    80b7:	0f 87 53 02 00 00    	ja     8310 <__divtf3@@GCC_4.3.0+0x400>
    80bd:	4c 8d 0d b8 d4 00 00 	lea    0xd4b8(%rip),%r9        # 1557c <__emutls_register_common@@GCC_4.3.0+0x156c>
    80c4:	4b 63 0c a1          	movslq (%r9,%r12,4),%rcx
    80c8:	4c 01 c9             	add    %r9,%rcx
    80cb:	3e ff e1             	notrack jmpq *%rcx
    80ce:	66 90                	xchg   %ax,%ax
    80d0:	4c 89 d0             	mov    %r10,%rax
    80d3:	4c 09 c8             	or     %r9,%rax
    80d6:	0f 84 24 01 00 00    	je     8200 <__divtf3@@GCC_4.3.0+0x2f0>
    80dc:	4d 85 d2             	test   %r10,%r10
    80df:	0f 84 ab 04 00 00    	je     8590 <__divtf3@@GCC_4.3.0+0x680>
    80e5:	49 0f bd fa          	bsr    %r10,%rdi
    80e9:	48 83 f7 3f          	xor    $0x3f,%rdi
    80ed:	48 63 c7             	movslq %edi,%rax
    80f0:	83 ef 0f             	sub    $0xf,%edi
    80f3:	48 89 44 24 10       	mov    %rax,0x10(%rsp)
    80f8:	48 63 ff             	movslq %edi,%rdi
    80fb:	8d 47 03             	lea    0x3(%rdi),%eax
    80fe:	4c 89 cb             	mov    %r9,%rbx
    8101:	89 c1                	mov    %eax,%ecx
    8103:	49 d3 e2             	shl    %cl,%r10
    8106:	b9 3d 00 00 00       	mov    $0x3d,%ecx
    810b:	29 f9                	sub    %edi,%ecx
    810d:	48 d3 eb             	shr    %cl,%rbx
    8110:	89 c1                	mov    %eax,%ecx
    8112:	49 09 da             	or     %rbx,%r10
    8115:	4c 89 cb             	mov    %r9,%rbx
    8118:	48 d3 e3             	shl    %cl,%rbx
    811b:	48 8b 44 24 10       	mov    0x10(%rsp),%rax
    8120:	83 cd 02             	or     $0x2,%ebp
    8123:	4e 8d 84 00 ef 3f 00 	lea    0x3fef(%rax,%r8,1),%r8
    812a:	00 
    812b:	e9 d0 fe ff ff       	jmpq   8000 <__divtf3@@GCC_4.3.0+0xf0>
    8130:	49 89 c3             	mov    %rax,%r11
    8133:	49 09 f3             	or     %rsi,%r11
    8136:	0f 84 ac 00 00 00    	je     81e8 <__divtf3@@GCC_4.3.0+0x2d8>
    813c:	48 85 c0             	test   %rax,%rax
    813f:	0f 84 7b 04 00 00    	je     85c0 <__divtf3@@GCC_4.3.0+0x6b0>
    8145:	48 0f bd c8          	bsr    %rax,%rcx
    8149:	48 83 f1 3f          	xor    $0x3f,%rcx
    814d:	4c 63 c9             	movslq %ecx,%r9
    8150:	83 e9 0f             	sub    $0xf,%ecx
    8153:	4c 63 c1             	movslq %ecx,%r8
    8156:	45 8d 50 03          	lea    0x3(%r8),%r10d
    815a:	49 89 f3             	mov    %rsi,%r11
    815d:	44 89 d1             	mov    %r10d,%ecx
    8160:	48 d3 e0             	shl    %cl,%rax
    8163:	b9 3d 00 00 00       	mov    $0x3d,%ecx
    8168:	44 29 c1             	sub    %r8d,%ecx
    816b:	49 d3 eb             	shr    %cl,%r11
    816e:	44 89 d1             	mov    %r10d,%ecx
    8171:	49 09 c3             	or     %rax,%r11
    8174:	48 d3 e6             	shl    %cl,%rsi
    8177:	49 c7 c0 11 c0 ff ff 	mov    $0xffffffffffffc011,%r8
    817e:	45 31 e4             	xor    %r12d,%r12d
    8181:	45 31 ff             	xor    %r15d,%r15d
    8184:	bd 02 00 00 00       	mov    $0x2,%ebp
    8189:	4d 29 c8             	sub    %r9,%r8
    818c:	e9 08 fe ff ff       	jmpq   7f99 <__divtf3@@GCC_4.3.0+0x89>
    8191:	0f 1f 80 00 00 00 00 	nopl   0x0(%rax)
    8198:	49 89 c3             	mov    %rax,%r11
    819b:	49 09 f3             	or     %rsi,%r11
    819e:	75 20                	jne    81c0 <__divtf3@@GCC_4.3.0+0x2b0>
    81a0:	31 f6                	xor    %esi,%esi
    81a2:	41 bc 08 00 00 00    	mov    $0x8,%r12d
    81a8:	41 b8 ff 7f 00 00    	mov    $0x7fff,%r8d
    81ae:	31 ed                	xor    %ebp,%ebp
    81b0:	41 bf 02 00 00 00    	mov    $0x2,%r15d
    81b6:	e9 de fd ff ff       	jmpq   7f99 <__divtf3@@GCC_4.3.0+0x89>
    81bb:	0f 1f 44 00 00       	nopl   0x0(%rax,%rax,1)
    81c0:	48 89 c5             	mov    %rax,%rbp
    81c3:	49 89 c3             	mov    %rax,%r11
    81c6:	41 bc 0c 00 00 00    	mov    $0xc,%r12d
    81cc:	41 b8 ff 7f 00 00    	mov    $0x7fff,%r8d
    81d2:	48 c1 ed 2f          	shr    $0x2f,%rbp
    81d6:	41 bf 03 00 00 00    	mov    $0x3,%r15d
    81dc:	83 f5 01             	xor    $0x1,%ebp
    81df:	e9 b5 fd ff ff       	jmpq   7f99 <__divtf3@@GCC_4.3.0+0x89>
    81e4:	0f 1f 40 00          	nopl   0x0(%rax)
    81e8:	31 f6                	xor    %esi,%esi
    81ea:	41 bc 04 00 00 00    	mov    $0x4,%r12d
    81f0:	45 31 c0             	xor    %r8d,%r8d
    81f3:	31 ed                	xor    %ebp,%ebp
    81f5:	41 bf 01 00 00 00    	mov    $0x1,%r15d
    81fb:	e9 99 fd ff ff       	jmpq   7f99 <__divtf3@@GCC_4.3.0+0x89>
    8200:	89 d7                	mov    %edx,%edi
    8202:	49 83 cc 01          	or     $0x1,%r12
    8206:	48 8d 15 a3 d3 00 00 	lea    0xd3a3(%rip),%rdx        # 155b0 <__emutls_register_common@@GCC_4.3.0+0x15a0>
    820d:	4a 63 04 a2          	movslq (%rdx,%r12,4),%rax
    8211:	44 31 ef             	xor    %r13d,%edi
    8214:	48 01 d0             	add    %rdx,%rax
    8217:	3e ff e0             	notrack jmpq *%rax
    821a:	66 0f 1f 44 00 00    	nopw   0x0(%rax,%rax,1)
    8220:	49 ba 00 00 00 00 00 	movabs $0x800000000000,%r10
    8227:	80 00 00 
    822a:	89 e9                	mov    %ebp,%ecx
    822c:	49 83 cc 03          	or     $0x3,%r12
    8230:	83 c9 01             	or     $0x1,%ecx
    8233:	4c 85 d3             	test   %r10,%rbx
    8236:	0f 44 e9             	cmove  %ecx,%ebp
    8239:	49 83 ec 04          	sub    $0x4,%r12
    823d:	44 31 ea             	xor    %r13d,%edx
    8240:	49 83 fc 0b          	cmp    $0xb,%r12
    8244:	0f 87 9d 01 00 00    	ja     83e7 <__divtf3@@GCC_4.3.0+0x4d7>
    824a:	48 8d 0d 97 d3 00 00 	lea    0xd397(%rip),%rcx        # 155e8 <__emutls_register_common@@GCC_4.3.0+0x15d8>
    8251:	4e 63 14 a1          	movslq (%rcx,%r12,4),%r10
    8255:	4c 01 d1             	add    %r10,%rcx
    8258:	3e ff e1             	notrack jmpq *%rcx
    825b:	0f 1f 44 00 00       	nopl   0x0(%rax,%rax,1)
    8260:	4c 8b 34 24          	mov    (%rsp),%r14
    8264:	4d 89 d3             	mov    %r10,%r11
    8267:	48 89 de             	mov    %rbx,%rsi
    826a:	49 8d 80 ff 3f 00 00 	lea    0x3fff(%r8),%rax
    8271:	48 85 c0             	test   %rax,%rax
    8274:	0f 8e d6 02 00 00    	jle    8550 <__divtf3@@GCC_4.3.0+0x640>
    827a:	40 f6 c6 07          	test   $0x7,%sil
    827e:	0f 85 6c 03 00 00    	jne    85f0 <__divtf3@@GCC_4.3.0+0x6e0>
    8284:	44 89 f7             	mov    %r14d,%edi
    8287:	83 e7 01             	and    $0x1,%edi
    828a:	49 0f ba e3 34       	bt     $0x34,%r11
    828f:	73 0c                	jae    829d <__divtf3@@GCC_4.3.0+0x38d>
    8291:	49 0f ba f3 34       	btr    $0x34,%r11
    8296:	49 8d 80 00 40 00 00 	lea    0x4000(%r8),%rax
    829d:	48 3d fe 7f 00 00    	cmp    $0x7ffe,%rax
    82a3:	0f 8f 97 03 00 00    	jg     8640 <__divtf3@@GCC_4.3.0+0x730>
    82a9:	4c 89 da             	mov    %r11,%rdx
    82ac:	4c 89 d9             	mov    %r11,%rcx
    82af:	48 c1 ee 03          	shr    $0x3,%rsi
    82b3:	66 25 ff 7f          	and    $0x7fff,%ax
    82b7:	48 c1 e2 3d          	shl    $0x3d,%rdx
    82bb:	48 c1 e1 0d          	shl    $0xd,%rcx
    82bf:	48 09 d6             	or     %rdx,%rsi
    82c2:	48 c1 e9 10          	shr    $0x10,%rcx
    82c6:	e9 6b fd ff ff       	jmpq   8036 <__divtf3@@GCC_4.3.0+0x126>
    82cb:	0f 1f 44 00 00       	nopl   0x0(%rax,%rax,1)
    82d0:	83 cd 01             	or     $0x1,%ebp
    82d3:	bf 01 00 00 00       	mov    $0x1,%edi
    82d8:	31 f6                	xor    %esi,%esi
    82da:	48 b9 00 00 00 00 00 	movabs $0x800000000000,%rcx
    82e1:	80 00 00 
    82e4:	b8 ff 7f 00 00       	mov    $0x7fff,%eax
    82e9:	e9 48 fd ff ff       	jmpq   8036 <__divtf3@@GCC_4.3.0+0x126>
    82ee:	66 90                	xchg   %ax,%ax
    82f0:	b8 ff 7f 00 00       	mov    $0x7fff,%eax
    82f5:	31 c9                	xor    %ecx,%ecx
    82f7:	31 f6                	xor    %esi,%esi
    82f9:	e9 38 fd ff ff       	jmpq   8036 <__divtf3@@GCC_4.3.0+0x126>
    82fe:	66 90                	xchg   %ax,%ax
    8300:	4c 8b 34 24          	mov    (%rsp),%r14
    8304:	e9 21 fd ff ff       	jmpq   802a <__divtf3@@GCC_4.3.0+0x11a>
    8309:	0f 1f 80 00 00 00 00 	nopl   0x0(%rax)
    8310:	89 d7                	mov    %edx,%edi
    8312:	e9 19 fd ff ff       	jmpq   8030 <__divtf3@@GCC_4.3.0+0x120>
    8317:	40 0f b6 cf          	movzbl %dil,%ecx
    831b:	0f 1f 44 00 00       	nopl   0x0(%rax,%rax,1)
    8320:	83 cd 04             	or     $0x4,%ebp
    8323:	b8 ff 7f 00 00       	mov    $0x7fff,%eax
    8328:	48 c1 e1 3f          	shl    $0x3f,%rcx
    832c:	48 c1 e0 30          	shl    $0x30,%rax
    8330:	48 c7 04 24 00 00 00 	movq   $0x0,(%rsp)
    8337:	00 
    8338:	48 09 c1             	or     %rax,%rcx
    833b:	48 89 4c 24 08       	mov    %rcx,0x8(%rsp)
    8340:	66 0f 6f 04 24       	movdqa (%rsp),%xmm0
    8345:	89 ef                	mov    %ebp,%edi
    8347:	0f 29 04 24          	movaps %xmm0,(%rsp)
    834b:	e8 b0 e8 ff ff       	callq  6c00 <__udivmodti4@@GCC_3.0+0x1d0>
    8350:	66 0f 6f 04 24       	movdqa (%rsp),%xmm0
    8355:	48 83 c4 38          	add    $0x38,%rsp
    8359:	5b                   	pop    %rbx
    835a:	5d                   	pop    %rbp
    835b:	41 5c                	pop    %r12
    835d:	41 5d                	pop    %r13
    835f:	41 5e                	pop    %r14
    8361:	41 5f                	pop    %r15
    8363:	c3                   	retq   
    8364:	0f 1f 40 00          	nopl   0x0(%rax)
    8368:	31 db                	xor    %ebx,%ebx
    836a:	45 31 c9             	xor    %r9d,%r9d
    836d:	49 39 db             	cmp    %rbx,%r11
    8370:	0f 87 7a 03 00 00    	ja     86f0 <__divtf3@@GCC_4.3.0+0x7e0>
    8376:	48 b8 ff ff ff ff ff 	movabs $0xffffffffffff,%rax
    837d:	ff 00 00 
    8380:	48 89 d9             	mov    %rbx,%rcx
    8383:	48 0f ba e9 2f       	bts    $0x2f,%rcx
    8388:	48 21 c1             	and    %rax,%rcx
    838b:	49 39 db             	cmp    %rbx,%r11
    838e:	75 09                	jne    8399 <__divtf3@@GCC_4.3.0+0x489>
    8390:	4c 39 ce             	cmp    %r9,%rsi
    8393:	0f 87 4b ff ff ff    	ja     82e4 <__divtf3@@GCC_4.3.0+0x3d4>
    8399:	44 89 ef             	mov    %r13d,%edi
    839c:	4c 89 ce             	mov    %r9,%rsi
    839f:	e9 40 ff ff ff       	jmpq   82e4 <__divtf3@@GCC_4.3.0+0x3d4>
    83a4:	4d 39 d3             	cmp    %r10,%r11
    83a7:	77 67                	ja     8410 <__divtf3@@GCC_4.3.0+0x500>
    83a9:	75 05                	jne    83b0 <__divtf3@@GCC_4.3.0+0x4a0>
    83ab:	48 39 de             	cmp    %rbx,%rsi
    83ae:	73 60                	jae    8410 <__divtf3@@GCC_4.3.0+0x500>
    83b0:	49 89 f1             	mov    %rsi,%r9
    83b3:	49 83 e8 01          	sub    $0x1,%r8
    83b7:	4d 89 dc             	mov    %r11,%r12
    83ba:	31 f6                	xor    %esi,%esi
    83bc:	eb 6c                	jmp    842a <__divtf3@@GCC_4.3.0+0x51a>
    83be:	66 90                	xchg   %ax,%ax
    83c0:	4d 85 ff             	test   %r15,%r15
    83c3:	0f 84 a1 fe ff ff    	je     826a <__divtf3@@GCC_4.3.0+0x35a>
    83c9:	49 83 ff 02          	cmp    $0x2,%r15
    83cd:	0f 84 3d 03 00 00    	je     8710 <__divtf3@@GCC_4.3.0+0x800>
    83d3:	49 83 ff 03          	cmp    $0x3,%r15
    83d7:	0f 85 8d fe ff ff    	jne    826a <__divtf3@@GCC_4.3.0+0x35a>
    83dd:	4c 89 34 24          	mov    %r14,(%rsp)
    83e1:	4c 89 db             	mov    %r11,%rbx
    83e4:	49 89 f1             	mov    %rsi,%r9
    83e7:	0f b6 3c 24          	movzbl (%rsp),%edi
    83eb:	48 0f ba eb 2f       	bts    $0x2f,%rbx
    83f0:	4c 89 ce             	mov    %r9,%rsi
    83f3:	48 b8 ff ff ff ff ff 	movabs $0xffffffffffff,%rax
    83fa:	ff 00 00 
    83fd:	48 89 d9             	mov    %rbx,%rcx
    8400:	48 21 c1             	and    %rax,%rcx
    8403:	83 e7 01             	and    $0x1,%edi
    8406:	e9 d9 fe ff ff       	jmpq   82e4 <__divtf3@@GCC_4.3.0+0x3d4>
    840b:	0f 1f 44 00 00       	nopl   0x0(%rax,%rax,1)
    8410:	48 89 f0             	mov    %rsi,%rax
    8413:	4d 89 d9             	mov    %r11,%r9
    8416:	4d 89 dc             	mov    %r11,%r12
    8419:	48 c1 e6 3f          	shl    $0x3f,%rsi
    841d:	49 c1 e1 3f          	shl    $0x3f,%r9
    8421:	48 d1 e8             	shr    %rax
    8424:	49 d1 ec             	shr    %r12
    8427:	49 09 c1             	or     %rax,%r9
    842a:	48 89 d8             	mov    %rbx,%rax
    842d:	49 c1 e2 0c          	shl    $0xc,%r10
    8431:	4c 89 e2             	mov    %r12,%rdx
    8434:	48 c1 e8 34          	shr    $0x34,%rax
    8438:	48 c1 e3 0c          	shl    $0xc,%rbx
    843c:	49 09 c2             	or     %rax,%r10
    843f:	4c 89 c8             	mov    %r9,%rax
    8442:	49 f7 f2             	div    %r10
    8445:	49 89 d5             	mov    %rdx,%r13
    8448:	49 89 c1             	mov    %rax,%r9
    844b:	49 89 d4             	mov    %rdx,%r12
    844e:	48 f7 e3             	mul    %rbx
    8451:	49 39 d5             	cmp    %rdx,%r13
    8454:	72 12                	jb     8468 <__divtf3@@GCC_4.3.0+0x558>
    8456:	75 05                	jne    845d <__divtf3@@GCC_4.3.0+0x54d>
    8458:	48 39 c6             	cmp    %rax,%rsi
    845b:	72 0b                	jb     8468 <__divtf3@@GCC_4.3.0+0x558>
    845d:	4d 89 cb             	mov    %r9,%r11
    8460:	eb 41                	jmp    84a3 <__divtf3@@GCC_4.3.0+0x593>
    8462:	66 0f 1f 44 00 00    	nopw   0x0(%rax,%rax,1)
    8468:	4d 89 d6             	mov    %r10,%r14
    846b:	49 89 df             	mov    %rbx,%r15
    846e:	4d 8d 59 ff          	lea    -0x1(%r9),%r11
    8472:	49 01 f7             	add    %rsi,%r15
    8475:	4d 11 ee             	adc    %r13,%r14
    8478:	4d 89 f4             	mov    %r14,%r12
    847b:	4c 89 fe             	mov    %r15,%rsi
    847e:	4d 39 f2             	cmp    %r14,%r10
    8481:	72 07                	jb     848a <__divtf3@@GCC_4.3.0+0x57a>
    8483:	75 1e                	jne    84a3 <__divtf3@@GCC_4.3.0+0x593>
    8485:	4c 39 fb             	cmp    %r15,%rbx
    8488:	77 19                	ja     84a3 <__divtf3@@GCC_4.3.0+0x593>
    848a:	4c 39 f2             	cmp    %r14,%rdx
    848d:	0f 86 4d 03 00 00    	jbe    87e0 <__divtf3@@GCC_4.3.0+0x8d0>
    8493:	4d 8d 59 fe          	lea    -0x2(%r9),%r11
    8497:	4d 89 d4             	mov    %r10,%r12
    849a:	48 89 de             	mov    %rbx,%rsi
    849d:	4c 01 fe             	add    %r15,%rsi
    84a0:	4d 11 f4             	adc    %r14,%r12
    84a3:	48 29 c6             	sub    %rax,%rsi
    84a6:	49 19 d4             	sbb    %rdx,%r12
    84a9:	4d 39 e2             	cmp    %r12,%r10
    84ac:	0f 84 3e 04 00 00    	je     88f0 <__divtf3@@GCC_4.3.0+0x9e0>
    84b2:	48 89 f0             	mov    %rsi,%rax
    84b5:	4c 89 e2             	mov    %r12,%rdx
    84b8:	49 f7 f2             	div    %r10
    84bb:	48 89 d7             	mov    %rdx,%rdi
    84be:	49 89 c1             	mov    %rax,%r9
    84c1:	48 89 c6             	mov    %rax,%rsi
    84c4:	49 89 d4             	mov    %rdx,%r12
    84c7:	48 f7 e3             	mul    %rbx
    84ca:	48 39 d7             	cmp    %rdx,%rdi
    84cd:	72 31                	jb     8500 <__divtf3@@GCC_4.3.0+0x5f0>
    84cf:	48 85 c0             	test   %rax,%rax
    84d2:	41 0f 95 c5          	setne  %r13b
    84d6:	48 39 d7             	cmp    %rdx,%rdi
    84d9:	75 16                	jne    84f1 <__divtf3@@GCC_4.3.0+0x5e1>
    84db:	45 84 ed             	test   %r13b,%r13b
    84de:	75 20                	jne    8500 <__divtf3@@GCC_4.3.0+0x5f0>
    84e0:	49 39 d4             	cmp    %rdx,%r12
    84e3:	75 0c                	jne    84f1 <__divtf3@@GCC_4.3.0+0x5e1>
    84e5:	49 89 ce             	mov    %rcx,%r14
    84e8:	45 84 ed             	test   %r13b,%r13b
    84eb:	0f 84 79 fd ff ff    	je     826a <__divtf3@@GCC_4.3.0+0x35a>
    84f1:	48 83 ce 01          	or     $0x1,%rsi
    84f5:	49 89 ce             	mov    %rcx,%r14
    84f8:	e9 6d fd ff ff       	jmpq   826a <__divtf3@@GCC_4.3.0+0x35a>
    84fd:	0f 1f 00             	nopl   (%rax)
    8500:	4d 89 d5             	mov    %r10,%r13
    8503:	49 89 de             	mov    %rbx,%r14
    8506:	49 8d 71 ff          	lea    -0x1(%r9),%rsi
    850a:	49 83 c6 00          	add    $0x0,%r14
    850e:	49 11 fd             	adc    %rdi,%r13
    8511:	4d 89 ec             	mov    %r13,%r12
    8514:	4d 39 ea             	cmp    %r13,%r10
    8517:	0f 83 db 02 00 00    	jae    87f8 <__divtf3@@GCC_4.3.0+0x8e8>
    851d:	4c 39 ea             	cmp    %r13,%rdx
    8520:	77 0f                	ja     8531 <__divtf3@@GCC_4.3.0+0x621>
    8522:	0f 85 db 02 00 00    	jne    8803 <__divtf3@@GCC_4.3.0+0x8f3>
    8528:	4c 39 f0             	cmp    %r14,%rax
    852b:	0f 86 d2 02 00 00    	jbe    8803 <__divtf3@@GCC_4.3.0+0x8f3>
    8531:	4c 01 f3             	add    %r14,%rbx
    8534:	4d 11 ea             	adc    %r13,%r10
    8537:	48 39 d8             	cmp    %rbx,%rax
    853a:	49 8d 71 fe          	lea    -0x2(%r9),%rsi
    853e:	4d 89 d4             	mov    %r10,%r12
    8541:	41 0f 95 c5          	setne  %r13b
    8545:	eb 99                	jmp    84e0 <__divtf3@@GCC_4.3.0+0x5d0>
    8547:	66 0f 1f 84 00 00 00 	nopw   0x0(%rax,%rax,1)
    854e:	00 00 
    8550:	44 89 f7             	mov    %r14d,%edi
    8553:	83 e7 01             	and    $0x1,%edi
    8556:	48 85 c0             	test   %rax,%rax
    8559:	0f 84 d1 01 00 00    	je     8730 <__divtf3@@GCC_4.3.0+0x820>
    855f:	ba 01 00 00 00       	mov    $0x1,%edx
    8564:	48 29 c2             	sub    %rax,%rdx
    8567:	48 83 fa 74          	cmp    $0x74,%rdx
    856b:	0f 8e 07 03 00 00    	jle    8878 <__divtf3@@GCC_4.3.0+0x968>
    8571:	31 c9                	xor    %ecx,%ecx
    8573:	4c 09 de             	or     %r11,%rsi
    8576:	0f 85 a5 03 00 00    	jne    8921 <__divtf3@@GCC_4.3.0+0xa11>
    857c:	83 cd 10             	or     $0x10,%ebp
    857f:	45 31 c0             	xor    %r8d,%r8d
    8582:	e9 07 01 00 00       	jmpq   868e <__divtf3@@GCC_4.3.0+0x77e>
    8587:	66 0f 1f 84 00 00 00 	nopw   0x0(%rax,%rax,1)
    858e:	00 00 
    8590:	49 0f bd c9          	bsr    %r9,%rcx
    8594:	48 83 f1 3f          	xor    $0x3f,%rcx
    8598:	8d 41 40             	lea    0x40(%rcx),%eax
    859b:	48 98                	cltq   
    859d:	48 89 44 24 10       	mov    %rax,0x10(%rsp)
    85a2:	8d 41 31             	lea    0x31(%rcx),%eax
    85a5:	48 63 f8             	movslq %eax,%rdi
    85a8:	83 f8 3c             	cmp    $0x3c,%eax
    85ab:	0f 8e 4a fb ff ff    	jle    80fb <__divtf3@@GCC_4.3.0+0x1eb>
    85b1:	83 e9 0c             	sub    $0xc,%ecx
    85b4:	49 d3 e1             	shl    %cl,%r9
    85b7:	4d 89 ca             	mov    %r9,%r10
    85ba:	e9 5c fb ff ff       	jmpq   811b <__divtf3@@GCC_4.3.0+0x20b>
    85bf:	90                   	nop
    85c0:	48 0f bd ce          	bsr    %rsi,%rcx
    85c4:	48 83 f1 3f          	xor    $0x3f,%rcx
    85c8:	44 8d 49 40          	lea    0x40(%rcx),%r9d
    85cc:	44 8d 51 31          	lea    0x31(%rcx),%r10d
    85d0:	4d 63 c9             	movslq %r9d,%r9
    85d3:	4d 63 c2             	movslq %r10d,%r8
    85d6:	41 83 fa 3c          	cmp    $0x3c,%r10d
    85da:	0f 8e 76 fb ff ff    	jle    8156 <__divtf3@@GCC_4.3.0+0x246>
    85e0:	83 e9 0c             	sub    $0xc,%ecx
    85e3:	48 d3 e6             	shl    %cl,%rsi
    85e6:	49 89 f3             	mov    %rsi,%r11
    85e9:	31 f6                	xor    %esi,%esi
    85eb:	e9 87 fb ff ff       	jmpq   8177 <__divtf3@@GCC_4.3.0+0x267>
    85f0:	8b 54 24 2c          	mov    0x2c(%rsp),%edx
    85f4:	83 cd 20             	or     $0x20,%ebp
    85f7:	81 e2 00 60 00 00    	and    $0x6000,%edx
    85fd:	81 fa 00 20 00 00    	cmp    $0x2000,%edx
    8603:	0f 84 bf 03 00 00    	je     89c8 <__divtf3@@GCC_4.3.0+0xab8>
    8609:	81 fa 00 40 00 00    	cmp    $0x4000,%edx
    860f:	0f 84 0b 02 00 00    	je     8820 <__divtf3@@GCC_4.3.0+0x910>
    8615:	44 89 f7             	mov    %r14d,%edi
    8618:	83 e7 01             	and    $0x1,%edi
    861b:	85 d2                	test   %edx,%edx
    861d:	0f 85 67 fc ff ff    	jne    828a <__divtf3@@GCC_4.3.0+0x37a>
    8623:	48 89 f2             	mov    %rsi,%rdx
    8626:	83 e2 0f             	and    $0xf,%edx
    8629:	48 83 fa 04          	cmp    $0x4,%rdx
    862d:	0f 84 57 fc ff ff    	je     828a <__divtf3@@GCC_4.3.0+0x37a>
    8633:	48 83 c6 04          	add    $0x4,%rsi
    8637:	49 83 d3 00          	adc    $0x0,%r11
    863b:	e9 4a fc ff ff       	jmpq   828a <__divtf3@@GCC_4.3.0+0x37a>
    8640:	8b 44 24 2c          	mov    0x2c(%rsp),%eax
    8644:	25 00 60 00 00       	and    $0x6000,%eax
    8649:	3d 00 20 00 00       	cmp    $0x2000,%eax
    864e:	0f 84 94 03 00 00    	je     89e8 <__divtf3@@GCC_4.3.0+0xad8>
    8654:	3d 00 40 00 00       	cmp    $0x4000,%eax
    8659:	0f 84 e1 01 00 00    	je     8840 <__divtf3@@GCC_4.3.0+0x930>
    865f:	83 f8 01             	cmp    $0x1,%eax
    8662:	41 b8 ff 7f 00 00    	mov    $0x7fff,%r8d
    8668:	ba 00 00 00 00       	mov    $0x0,%edx
    866d:	48 b9 ff ff ff ff ff 	movabs $0xffffffffffff,%rcx
    8674:	ff 00 00 
    8677:	66 41 83 d0 ff       	adc    $0xffff,%r8w
    867c:	85 c0                	test   %eax,%eax
    867e:	48 0f 44 ca          	cmove  %rdx,%rcx
    8682:	83 f8 01             	cmp    $0x1,%eax
    8685:	48 19 f6             	sbb    %rsi,%rsi
    8688:	48 f7 d6             	not    %rsi
    868b:	83 cd 28             	or     $0x28,%ebp
    868e:	48 c7 44 24 08 00 00 	movq   $0x0,0x8(%rsp)
    8695:	00 00 
    8697:	48 8b 54 24 08       	mov    0x8(%rsp),%rdx
    869c:	c1 e7 0f             	shl    $0xf,%edi
    869f:	48 b8 ff ff ff ff ff 	movabs $0xffffffffffff,%rax
    86a6:	ff 00 00 
    86a9:	48 89 34 24          	mov    %rsi,(%rsp)
    86ad:	48 21 c1             	and    %rax,%rcx
    86b0:	44 09 c7             	or     %r8d,%edi
    86b3:	48 be 00 00 00 00 00 	movabs $0xffff000000000000,%rsi
    86ba:	00 ff ff 
    86bd:	48 21 f2             	and    %rsi,%rdx
    86c0:	48 c1 e7 30          	shl    $0x30,%rdi
    86c4:	48 09 d1             	or     %rdx,%rcx
    86c7:	48 21 c1             	and    %rax,%rcx
    86ca:	48 09 f9             	or     %rdi,%rcx
    86cd:	89 ef                	mov    %ebp,%edi
    86cf:	48 89 4c 24 08       	mov    %rcx,0x8(%rsp)
    86d4:	66 0f 6f 04 24       	movdqa (%rsp),%xmm0
    86d9:	0f 29 04 24          	movaps %xmm0,(%rsp)
    86dd:	e8 1e e5 ff ff       	callq  6c00 <__udivmodti4@@GCC_3.0+0x1d0>
    86e2:	66 0f 6f 04 24       	movdqa (%rsp),%xmm0
    86e7:	e9 69 fc ff ff       	jmpq   8355 <__divtf3@@GCC_4.3.0+0x445>
    86ec:	0f 1f 40 00          	nopl   0x0(%rax)
    86f0:	48 b8 ff ff ff ff ff 	movabs $0xffffffffffff,%rax
    86f7:	ff 00 00 
    86fa:	4c 89 d9             	mov    %r11,%rcx
    86fd:	48 0f ba e9 2f       	bts    $0x2f,%rcx
    8702:	48 21 c1             	and    %rax,%rcx
    8705:	e9 da fb ff ff       	jmpq   82e4 <__divtf3@@GCC_4.3.0+0x3d4>
    870a:	66 0f 1f 44 00 00    	nopw   0x0(%rax,%rax,1)
    8710:	4c 89 34 24          	mov    %r14,(%rsp)
    8714:	0f b6 3c 24          	movzbl (%rsp),%edi
    8718:	b8 ff 7f 00 00       	mov    $0x7fff,%eax
    871d:	31 c9                	xor    %ecx,%ecx
    871f:	31 f6                	xor    %esi,%esi
    8721:	83 e7 01             	and    $0x1,%edi
    8724:	e9 0d f9 ff ff       	jmpq   8036 <__divtf3@@GCC_4.3.0+0x126>
    8729:	0f 1f 80 00 00 00 00 	nopl   0x0(%rax)
    8730:	4d 89 d8             	mov    %r11,%r8
    8733:	40 f6 c6 07          	test   $0x7,%sil
    8737:	0f 85 3b 02 00 00    	jne    8978 <__divtf3@@GCC_4.3.0+0xa68>
    873d:	49 c1 eb 34          	shr    $0x34,%r11
    8741:	ba 01 00 00 00       	mov    $0x1,%edx
    8746:	49 83 f3 01          	xor    $0x1,%r11
    874a:	41 83 e3 01          	and    $0x1,%r11d
    874e:	b8 40 00 00 00       	mov    $0x40,%eax
    8753:	4d 89 c1             	mov    %r8,%r9
    8756:	48 89 f3             	mov    %rsi,%rbx
    8759:	29 d0                	sub    %edx,%eax
    875b:	89 c1                	mov    %eax,%ecx
    875d:	49 d3 e1             	shl    %cl,%r9
    8760:	89 d1                	mov    %edx,%ecx
    8762:	48 d3 eb             	shr    %cl,%rbx
    8765:	89 c1                	mov    %eax,%ecx
    8767:	4c 89 c0             	mov    %r8,%rax
    876a:	48 d3 e6             	shl    %cl,%rsi
    876d:	49 09 d9             	or     %rbx,%r9
    8770:	89 d1                	mov    %edx,%ecx
    8772:	48 85 f6             	test   %rsi,%rsi
    8775:	40 0f 95 c6          	setne  %sil
    8779:	48 d3 e8             	shr    %cl,%rax
    877c:	40 0f b6 f6          	movzbl %sil,%esi
    8780:	4c 09 ce             	or     %r9,%rsi
    8783:	40 f6 c6 07          	test   $0x7,%sil
    8787:	74 2d                	je     87b6 <__divtf3@@GCC_4.3.0+0x8a6>
    8789:	8b 54 24 2c          	mov    0x2c(%rsp),%edx
    878d:	83 cd 20             	or     $0x20,%ebp
    8790:	81 e2 00 60 00 00    	and    $0x6000,%edx
    8796:	81 fa 00 20 00 00    	cmp    $0x2000,%edx
    879c:	0f 84 75 03 00 00    	je     8b17 <__divtf3@@GCC_4.3.0+0xc07>
    87a2:	81 fa 00 40 00 00    	cmp    $0x4000,%edx
    87a8:	0f 84 53 03 00 00    	je     8b01 <__divtf3@@GCC_4.3.0+0xbf1>
    87ae:	85 d2                	test   %edx,%edx
    87b0:	0f 84 2e 03 00 00    	je     8ae4 <__divtf3@@GCC_4.3.0+0xbd4>
    87b6:	48 0f ba e0 33       	bt     $0x33,%rax
    87bb:	0f 83 9f 02 00 00    	jae    8a60 <__divtf3@@GCC_4.3.0+0xb50>
    87c1:	83 cd 20             	or     $0x20,%ebp
    87c4:	45 85 db             	test   %r11d,%r11d
    87c7:	0f 85 83 02 00 00    	jne    8a50 <__divtf3@@GCC_4.3.0+0xb40>
    87cd:	b8 01 00 00 00       	mov    $0x1,%eax
    87d2:	40 0f b6 cf          	movzbl %dil,%ecx
    87d6:	e9 4d fb ff ff       	jmpq   8328 <__divtf3@@GCC_4.3.0+0x418>
    87db:	0f 1f 44 00 00       	nopl   0x0(%rax,%rax,1)
    87e0:	0f 85 bd fc ff ff    	jne    84a3 <__divtf3@@GCC_4.3.0+0x593>
    87e6:	4c 39 f8             	cmp    %r15,%rax
    87e9:	0f 87 a4 fc ff ff    	ja     8493 <__divtf3@@GCC_4.3.0+0x583>
    87ef:	e9 af fc ff ff       	jmpq   84a3 <__divtf3@@GCC_4.3.0+0x593>
    87f4:	0f 1f 40 00          	nopl   0x0(%rax)
    87f8:	75 09                	jne    8803 <__divtf3@@GCC_4.3.0+0x8f3>
    87fa:	4c 39 f3             	cmp    %r14,%rbx
    87fd:	0f 86 1a fd ff ff    	jbe    851d <__divtf3@@GCC_4.3.0+0x60d>
    8803:	4c 39 f0             	cmp    %r14,%rax
    8806:	41 0f 95 c5          	setne  %r13b
    880a:	e9 d1 fc ff ff       	jmpq   84e0 <__divtf3@@GCC_4.3.0+0x5d0>
    880f:	90                   	nop
    8810:	89 d7                	mov    %edx,%edi
    8812:	31 c9                	xor    %ecx,%ecx
    8814:	31 f6                	xor    %esi,%esi
    8816:	e9 1b f8 ff ff       	jmpq   8036 <__divtf3@@GCC_4.3.0+0x126>
    881b:	0f 1f 44 00 00       	nopl   0x0(%rax,%rax,1)
    8820:	bf 01 00 00 00       	mov    $0x1,%edi
    8825:	4d 85 f6             	test   %r14,%r14
    8828:	0f 85 5c fa ff ff    	jne    828a <__divtf3@@GCC_4.3.0+0x37a>
    882e:	31 ff                	xor    %edi,%edi
    8830:	48 83 c6 08          	add    $0x8,%rsi
    8834:	49 83 d3 00          	adc    $0x0,%r11
    8838:	e9 4d fa ff ff       	jmpq   828a <__divtf3@@GCC_4.3.0+0x37a>
    883d:	0f 1f 00             	nopl   (%rax)
    8840:	49 83 fe 01          	cmp    $0x1,%r14
    8844:	41 b8 ff 7f 00 00    	mov    $0x7fff,%r8d
    884a:	b8 00 00 00 00       	mov    $0x0,%eax
    884f:	48 b9 ff ff ff ff ff 	movabs $0xffffffffffff,%rcx
    8856:	ff 00 00 
    8859:	66 41 83 d0 ff       	adc    $0xffff,%r8w
    885e:	4d 85 f6             	test   %r14,%r14
    8861:	48 0f 44 c8          	cmove  %rax,%rcx
    8865:	49 83 fe 01          	cmp    $0x1,%r14
    8869:	48 19 f6             	sbb    %rsi,%rsi
    886c:	48 f7 d6             	not    %rsi
    886f:	e9 17 fe ff ff       	jmpq   868b <__divtf3@@GCC_4.3.0+0x77b>
    8874:	0f 1f 40 00          	nopl   0x0(%rax)
    8878:	48 83 fa 3f          	cmp    $0x3f,%rdx
    887c:	0f 8e cd 02 00 00    	jle    8b4f <__divtf3@@GCC_4.3.0+0xc3f>
    8882:	8d 4a c0             	lea    -0x40(%rdx),%ecx
    8885:	4c 89 d8             	mov    %r11,%rax
    8888:	48 d3 e8             	shr    %cl,%rax
    888b:	48 83 fa 40          	cmp    $0x40,%rdx
    888f:	74 0d                	je     889e <__divtf3@@GCC_4.3.0+0x98e>
    8891:	b9 80 00 00 00       	mov    $0x80,%ecx
    8896:	29 d1                	sub    %edx,%ecx
    8898:	49 d3 e3             	shl    %cl,%r11
    889b:	4c 09 de             	or     %r11,%rsi
    889e:	48 85 f6             	test   %rsi,%rsi
    88a1:	40 0f 95 c6          	setne  %sil
    88a5:	40 0f b6 f6          	movzbl %sil,%esi
    88a9:	48 09 c6             	or     %rax,%rsi
    88ac:	40 f6 c6 07          	test   $0x7,%sil
    88b0:	0f 84 6a 01 00 00    	je     8a20 <__divtf3@@GCC_4.3.0+0xb10>
    88b6:	41 bb 01 00 00 00    	mov    $0x1,%r11d
    88bc:	31 c0                	xor    %eax,%eax
    88be:	e9 c6 fe ff ff       	jmpq   8789 <__divtf3@@GCC_4.3.0+0x879>
    88c3:	0f 1f 44 00 00       	nopl   0x0(%rax,%rax,1)
    88c8:	31 f6                	xor    %esi,%esi
    88ca:	b8 ff 7f 00 00       	mov    $0x7fff,%eax
    88cf:	31 c9                	xor    %ecx,%ecx
    88d1:	e9 60 f7 ff ff       	jmpq   8036 <__divtf3@@GCC_4.3.0+0x126>
    88d6:	66 2e 0f 1f 84 00 00 	nopw   %cs:0x0(%rax,%rax,1)
    88dd:	00 00 00 
    88e0:	89 d7                	mov    %edx,%edi
    88e2:	31 f6                	xor    %esi,%esi
    88e4:	31 c9                	xor    %ecx,%ecx
    88e6:	e9 4b f7 ff ff       	jmpq   8036 <__divtf3@@GCC_4.3.0+0x126>
    88eb:	0f 1f 44 00 00       	nopl   0x0(%rax,%rax,1)
    88f0:	49 8d 80 ff 3f 00 00 	lea    0x3fff(%r8),%rax
    88f7:	49 89 ce             	mov    %rcx,%r14
    88fa:	48 c7 c6 ff ff ff ff 	mov    $0xffffffffffffffff,%rsi
    8901:	48 85 c0             	test   %rax,%rax
    8904:	0f 8f e6 fc ff ff    	jg     85f0 <__divtf3@@GCC_4.3.0+0x6e0>
    890a:	4d 89 d8             	mov    %r11,%r8
    890d:	74 69                	je     8978 <__divtf3@@GCC_4.3.0+0xa68>
    890f:	ba 01 00 00 00       	mov    $0x1,%edx
    8914:	48 29 c2             	sub    %rax,%rdx
    8917:	48 83 fa 74          	cmp    $0x74,%rdx
    891b:	0f 8e 57 ff ff ff    	jle    8878 <__divtf3@@GCC_4.3.0+0x968>
    8921:	8b 44 24 2c          	mov    0x2c(%rsp),%eax
    8925:	83 cd 20             	or     $0x20,%ebp
    8928:	25 00 60 00 00       	and    $0x6000,%eax
    892d:	3d 00 20 00 00       	cmp    $0x2000,%eax
    8932:	0f 84 7c 01 00 00    	je     8ab4 <__divtf3@@GCC_4.3.0+0xba4>
    8938:	3d 00 40 00 00       	cmp    $0x4000,%eax
    893d:	0f 84 45 01 00 00    	je     8a88 <__divtf3@@GCC_4.3.0+0xb78>
    8943:	31 c9                	xor    %ecx,%ecx
    8945:	31 f6                	xor    %esi,%esi
    8947:	85 c0                	test   %eax,%eax
    8949:	0f 85 2d fc ff ff    	jne    857c <__divtf3@@GCC_4.3.0+0x66c>
    894f:	48 ba ff ff ff ff ff 	movabs $0xffffffffffff,%rdx
    8956:	ff 00 00 
    8959:	be 01 00 00 00       	mov    $0x1,%esi
    895e:	48 83 c6 04          	add    $0x4,%rsi
    8962:	48 83 d1 00          	adc    $0x0,%rcx
    8966:	48 c1 ee 03          	shr    $0x3,%rsi
    896a:	48 21 d1             	and    %rdx,%rcx
    896d:	e9 0a fc ff ff       	jmpq   857c <__divtf3@@GCC_4.3.0+0x66c>
    8972:	66 0f 1f 44 00 00    	nopw   0x0(%rax,%rax,1)
    8978:	8b 54 24 2c          	mov    0x2c(%rsp),%edx
    897c:	83 cd 20             	or     $0x20,%ebp
    897f:	81 e2 00 60 00 00    	and    $0x6000,%edx
    8985:	81 fa 00 20 00 00    	cmp    $0x2000,%edx
    898b:	0f 84 aa 01 00 00    	je     8b3b <__divtf3@@GCC_4.3.0+0xc2b>
    8991:	81 fa 00 40 00 00    	cmp    $0x4000,%edx
    8997:	0f 84 85 01 00 00    	je     8b22 <__divtf3@@GCC_4.3.0+0xc12>
    899d:	85 d2                	test   %edx,%edx
    899f:	0f 85 98 fd ff ff    	jne    873d <__divtf3@@GCC_4.3.0+0x82d>
    89a5:	48 89 f0             	mov    %rsi,%rax
    89a8:	83 e0 0f             	and    $0xf,%eax
    89ab:	48 83 f8 04          	cmp    $0x4,%rax
    89af:	0f 84 88 fd ff ff    	je     873d <__divtf3@@GCC_4.3.0+0x82d>
    89b5:	48 89 f0             	mov    %rsi,%rax
    89b8:	48 83 c0 04          	add    $0x4,%rax
    89bc:	49 83 d3 00          	adc    $0x0,%r11
    89c0:	e9 78 fd ff ff       	jmpq   873d <__divtf3@@GCC_4.3.0+0x82d>
    89c5:	0f 1f 00             	nopl   (%rax)
    89c8:	31 ff                	xor    %edi,%edi
    89ca:	4d 85 f6             	test   %r14,%r14
    89cd:	0f 84 b7 f8 ff ff    	je     828a <__divtf3@@GCC_4.3.0+0x37a>
    89d3:	bf 01 00 00 00       	mov    $0x1,%edi
    89d8:	48 83 c6 08          	add    $0x8,%rsi
    89dc:	49 83 d3 00          	adc    $0x0,%r11
    89e0:	e9 a5 f8 ff ff       	jmpq   828a <__divtf3@@GCC_4.3.0+0x37a>
    89e5:	0f 1f 00             	nopl   (%rax)
    89e8:	49 83 fe 01          	cmp    $0x1,%r14
    89ec:	b8 00 00 00 00       	mov    $0x0,%eax
    89f1:	48 b9 ff ff ff ff ff 	movabs $0xffffffffffff,%rcx
    89f8:	ff 00 00 
    89fb:	45 19 c0             	sbb    %r8d,%r8d
    89fe:	66 41 81 c0 ff 7f    	add    $0x7fff,%r8w
    8a04:	4d 85 f6             	test   %r14,%r14
    8a07:	48 0f 45 c8          	cmovne %rax,%rcx
    8a0b:	49 83 fe 01          	cmp    $0x1,%r14
    8a0f:	48 19 f6             	sbb    %rsi,%rsi
    8a12:	e9 74 fc ff ff       	jmpq   868b <__divtf3@@GCC_4.3.0+0x77b>
    8a17:	66 0f 1f 84 00 00 00 	nopw   0x0(%rax,%rax,1)
    8a1e:	00 00 
    8a20:	48 c1 ee 03          	shr    $0x3,%rsi
    8a24:	31 c9                	xor    %ecx,%ecx
    8a26:	f6 44 24 2d 08       	testb  $0x8,0x2d(%rsp)
    8a2b:	75 13                	jne    8a40 <__divtf3@@GCC_4.3.0+0xb30>
    8a2d:	45 31 c0             	xor    %r8d,%r8d
    8a30:	83 cd 10             	or     $0x10,%ebp
    8a33:	e9 56 fc ff ff       	jmpq   868e <__divtf3@@GCC_4.3.0+0x77e>
    8a38:	0f 1f 84 00 00 00 00 	nopl   0x0(%rax,%rax,1)
    8a3f:	00 
    8a40:	31 c0                	xor    %eax,%eax
    8a42:	e9 ef f5 ff ff       	jmpq   8036 <__divtf3@@GCC_4.3.0+0x126>
    8a47:	66 0f 1f 84 00 00 00 	nopw   0x0(%rax,%rax,1)
    8a4e:	00 00 
    8a50:	41 b8 01 00 00 00    	mov    $0x1,%r8d
    8a56:	31 c9                	xor    %ecx,%ecx
    8a58:	31 f6                	xor    %esi,%esi
    8a5a:	eb d4                	jmp    8a30 <__divtf3@@GCC_4.3.0+0xb20>
    8a5c:	0f 1f 40 00          	nopl   0x0(%rax)
    8a60:	48 89 c1             	mov    %rax,%rcx
    8a63:	48 c1 ee 03          	shr    $0x3,%rsi
    8a67:	48 c1 e1 0d          	shl    $0xd,%rcx
    8a6b:	48 c1 e0 3d          	shl    $0x3d,%rax
    8a6f:	48 c1 e9 10          	shr    $0x10,%rcx
    8a73:	48 09 c6             	or     %rax,%rsi
    8a76:	45 85 db             	test   %r11d,%r11d
    8a79:	74 c5                	je     8a40 <__divtf3@@GCC_4.3.0+0xb30>
    8a7b:	40 f6 c5 20          	test   $0x20,%bpl
    8a7f:	74 a5                	je     8a26 <__divtf3@@GCC_4.3.0+0xb16>
    8a81:	eb aa                	jmp    8a2d <__divtf3@@GCC_4.3.0+0xb1d>
    8a83:	0f 1f 44 00 00       	nopl   0x0(%rax,%rax,1)
    8a88:	4d 85 f6             	test   %r14,%r14
    8a8b:	0f 85 b5 00 00 00    	jne    8b46 <__divtf3@@GCC_4.3.0+0xc36>
    8a91:	48 b9 ff ff ff ff ff 	movabs $0xffffffffffff,%rcx
    8a98:	ff 00 00 
    8a9b:	be 01 00 00 00       	mov    $0x1,%esi
    8aa0:	48 83 c6 08          	add    $0x8,%rsi
    8aa4:	49 83 d6 00          	adc    $0x0,%r14
    8aa8:	48 c1 ee 03          	shr    $0x3,%rsi
    8aac:	4c 21 f1             	and    %r14,%rcx
    8aaf:	e9 c8 fa ff ff       	jmpq   857c <__divtf3@@GCC_4.3.0+0x66c>
    8ab4:	31 c9                	xor    %ecx,%ecx
    8ab6:	31 f6                	xor    %esi,%esi
    8ab8:	4d 85 f6             	test   %r14,%r14
    8abb:	0f 84 bb fa ff ff    	je     857c <__divtf3@@GCC_4.3.0+0x66c>
    8ac1:	48 ba ff ff ff ff ff 	movabs $0xffffffffffff,%rdx
    8ac8:	ff 00 00 
    8acb:	be 01 00 00 00       	mov    $0x1,%esi
    8ad0:	48 83 c6 08          	add    $0x8,%rsi
    8ad4:	48 83 d1 00          	adc    $0x0,%rcx
    8ad8:	48 c1 ee 03          	shr    $0x3,%rsi
    8adc:	48 21 d1             	and    %rdx,%rcx
    8adf:	e9 98 fa ff ff       	jmpq   857c <__divtf3@@GCC_4.3.0+0x66c>
    8ae4:	48 89 f2             	mov    %rsi,%rdx
    8ae7:	83 e2 0f             	and    $0xf,%edx
    8aea:	48 83 fa 04          	cmp    $0x4,%rdx
    8aee:	0f 84 c2 fc ff ff    	je     87b6 <__divtf3@@GCC_4.3.0+0x8a6>
    8af4:	48 83 c6 04          	add    $0x4,%rsi
    8af8:	48 83 d0 00          	adc    $0x0,%rax
    8afc:	e9 b5 fc ff ff       	jmpq   87b6 <__divtf3@@GCC_4.3.0+0x8a6>
    8b01:	4d 85 f6             	test   %r14,%r14
    8b04:	0f 85 ac fc ff ff    	jne    87b6 <__divtf3@@GCC_4.3.0+0x8a6>
    8b0a:	48 83 c6 08          	add    $0x8,%rsi
    8b0e:	48 83 d0 00          	adc    $0x0,%rax
    8b12:	e9 9f fc ff ff       	jmpq   87b6 <__divtf3@@GCC_4.3.0+0x8a6>
    8b17:	4d 85 f6             	test   %r14,%r14
    8b1a:	0f 84 96 fc ff ff    	je     87b6 <__divtf3@@GCC_4.3.0+0x8a6>
    8b20:	eb e8                	jmp    8b0a <__divtf3@@GCC_4.3.0+0xbfa>
    8b22:	4d 85 f6             	test   %r14,%r14
    8b25:	0f 85 12 fc ff ff    	jne    873d <__divtf3@@GCC_4.3.0+0x82d>
    8b2b:	48 89 f0             	mov    %rsi,%rax
    8b2e:	48 83 c0 08          	add    $0x8,%rax
    8b32:	49 83 d3 00          	adc    $0x0,%r11
    8b36:	e9 02 fc ff ff       	jmpq   873d <__divtf3@@GCC_4.3.0+0x82d>
    8b3b:	4d 85 f6             	test   %r14,%r14
    8b3e:	0f 84 f9 fb ff ff    	je     873d <__divtf3@@GCC_4.3.0+0x82d>
    8b44:	eb e5                	jmp    8b2b <__divtf3@@GCC_4.3.0+0xc1b>
    8b46:	31 c9                	xor    %ecx,%ecx
    8b48:	31 f6                	xor    %esi,%esi
    8b4a:	e9 2d fa ff ff       	jmpq   857c <__divtf3@@GCC_4.3.0+0x66c>
    8b4f:	4d 89 d8             	mov    %r11,%r8
    8b52:	41 bb 01 00 00 00    	mov    $0x1,%r11d
    8b58:	e9 f1 fb ff ff       	jmpq   874e <__divtf3@@GCC_4.3.0+0x83e>
    8b5d:	0f 1f 00             	nopl   (%rax)

0000000000008b60 <__multf3@@GCC_4.3.0>:
    8b60:	f3 0f 1e fa          	endbr64 
    8b64:	41 57                	push   %r15
    8b66:	41 56                	push   %r14
    8b68:	41 55                	push   %r13
    8b6a:	41 54                	push   %r12
    8b6c:	55                   	push   %rbp
    8b6d:	53                   	push   %rbx
    8b6e:	48 83 ec 48          	sub    $0x48,%rsp
    8b72:	0f 29 04 24          	movaps %xmm0,(%rsp)
    8b76:	0f 29 4c 24 10       	movaps %xmm1,0x10(%rsp)
    8b7b:	0f ae 5c 24 3c       	stmxcsr 0x3c(%rsp)
    8b80:	48 8b 4c 24 08       	mov    0x8(%rsp),%rcx
    8b85:	48 8b 14 24          	mov    (%rsp),%rdx
    8b89:	48 b8 ff ff ff ff ff 	movabs $0xffffffffffff,%rax
    8b90:	ff 00 00 
    8b93:	48 89 ce             	mov    %rcx,%rsi
    8b96:	49 89 cc             	mov    %rcx,%r12
    8b99:	48 21 c8             	and    %rcx,%rax
    8b9c:	49 c1 ec 3f          	shr    $0x3f,%r12
    8ba0:	48 c1 ee 30          	shr    $0x30,%rsi
    8ba4:	4c 89 24 24          	mov    %r12,(%rsp)
    8ba8:	66 81 e6 ff 7f       	and    $0x7fff,%si
    8bad:	0f 84 2d 03 00 00    	je     8ee0 <__multf3@@GCC_4.3.0+0x380>
    8bb3:	49 89 c2             	mov    %rax,%r10
    8bb6:	66 81 fe ff 7f       	cmp    $0x7fff,%si
    8bbb:	0f 84 87 03 00 00    	je     8f48 <__multf3@@GCC_4.3.0+0x3e8>
    8bc1:	48 89 d0             	mov    %rdx,%rax
    8bc4:	49 c1 e2 03          	shl    $0x3,%r10
    8bc8:	0f b7 f6             	movzwl %si,%esi
    8bcb:	31 db                	xor    %ebx,%ebx
    8bcd:	48 c1 e8 3d          	shr    $0x3d,%rax
    8bd1:	4c 8d 04 d5 00 00 00 	lea    0x0(,%rdx,8),%r8
    8bd8:	00 
    8bd9:	48 81 ee ff 3f 00 00 	sub    $0x3fff,%rsi
    8be0:	31 ed                	xor    %ebp,%ebp
    8be2:	49 09 c2             	or     %rax,%r10
    8be5:	31 c0                	xor    %eax,%eax
    8be7:	49 0f ba ea 33       	bts    $0x33,%r10
    8bec:	48 8b 4c 24 18       	mov    0x18(%rsp),%rcx
    8bf1:	4c 8b 4c 24 10       	mov    0x10(%rsp),%r9
    8bf6:	48 ba ff ff ff ff ff 	movabs $0xffffffffffff,%rdx
    8bfd:	ff 00 00 
    8c00:	48 89 cf             	mov    %rcx,%rdi
    8c03:	49 89 ce             	mov    %rcx,%r14
    8c06:	48 21 ca             	and    %rcx,%rdx
    8c09:	49 c1 ee 3f          	shr    $0x3f,%r14
    8c0d:	48 c1 ef 30          	shr    $0x30,%rdi
    8c11:	49 89 d3             	mov    %rdx,%r11
    8c14:	4c 89 74 24 10       	mov    %r14,0x10(%rsp)
    8c19:	66 81 e7 ff 7f       	and    $0x7fff,%di
    8c1e:	0f 84 54 02 00 00    	je     8e78 <__multf3@@GCC_4.3.0+0x318>
    8c24:	66 81 ff ff 7f       	cmp    $0x7fff,%di
    8c29:	0f 84 41 03 00 00    	je     8f70 <__multf3@@GCC_4.3.0+0x410>
    8c2f:	4c 89 ca             	mov    %r9,%rdx
    8c32:	49 c1 e3 03          	shl    $0x3,%r11
    8c36:	0f b7 ff             	movzwl %di,%edi
    8c39:	48 c1 ea 3d          	shr    $0x3d,%rdx
    8c3d:	49 c1 e1 03          	shl    $0x3,%r9
    8c41:	48 8d b4 37 01 c0 ff 	lea    -0x3fff(%rdi,%rsi,1),%rsi
    8c48:	ff 
    8c49:	49 09 d3             	or     %rdx,%r11
    8c4c:	49 0f ba eb 33       	bts    $0x33,%r11
    8c51:	4d 39 c8             	cmp    %r9,%r8
    8c54:	0f 93 44 24 2f       	setae  0x2f(%rsp)
    8c59:	45 31 ff             	xor    %r15d,%r15d
    8c5c:	44 89 f7             	mov    %r14d,%edi
    8c5f:	48 8d 4e 01          	lea    0x1(%rsi),%rcx
    8c63:	44 31 e7             	xor    %r12d,%edi
    8c66:	44 0f b6 ef          	movzbl %dil,%r13d
    8c6a:	48 83 f8 0f          	cmp    $0xf,%rax
    8c6e:	0f 87 b8 00 00 00    	ja     8d2c <__multf3@@GCC_4.3.0+0x1cc>
    8c74:	48 8d 15 9d c9 00 00 	lea    0xc99d(%rip),%rdx        # 15618 <__emutls_register_common@@GCC_4.3.0+0x1608>
    8c7b:	48 63 04 82          	movslq (%rdx,%rax,4),%rax
    8c7f:	48 01 d0             	add    %rdx,%rax
    8c82:	3e ff e0             	notrack jmpq *%rax
    8c85:	0f 1f 00             	nopl   (%rax)
    8c88:	4c 8b 2c 24          	mov    (%rsp),%r13
    8c8c:	44 89 e7             	mov    %r12d,%edi
    8c8f:	48 83 fb 02          	cmp    $0x2,%rbx
    8c93:	0f 84 87 00 00 00    	je     8d20 <__multf3@@GCC_4.3.0+0x1c0>
    8c99:	48 83 fb 03          	cmp    $0x3,%rbx
    8c9d:	0f 84 8d 08 00 00    	je     9530 <__multf3@@GCC_4.3.0+0x9d0>
    8ca3:	48 83 fb 01          	cmp    $0x1,%rbx
    8ca7:	0f 85 42 01 00 00    	jne    8def <__multf3@@GCC_4.3.0+0x28f>
    8cad:	31 d2                	xor    %edx,%edx
    8caf:	31 c0                	xor    %eax,%eax
    8cb1:	45 31 c0             	xor    %r8d,%r8d
    8cb4:	48 b9 ff ff ff ff ff 	movabs $0xffffffffffff,%rcx
    8cbb:	ff 00 00 
    8cbe:	4c 89 04 24          	mov    %r8,(%rsp)
    8cc2:	c1 e7 0f             	shl    $0xf,%edi
    8cc5:	49 b8 00 00 00 00 00 	movabs $0xffff000000000000,%r8
    8ccc:	00 ff ff 
    8ccf:	48 c7 44 24 08 00 00 	movq   $0x0,0x8(%rsp)
    8cd6:	00 00 
    8cd8:	48 21 c8             	and    %rcx,%rax
    8cdb:	09 d7                	or     %edx,%edi
    8cdd:	48 89 c6             	mov    %rax,%rsi
    8ce0:	48 8b 44 24 08       	mov    0x8(%rsp),%rax
    8ce5:	48 c1 e7 30          	shl    $0x30,%rdi
    8ce9:	4c 21 c0             	and    %r8,%rax
    8cec:	48 09 f0             	or     %rsi,%rax
    8cef:	48 21 c8             	and    %rcx,%rax
    8cf2:	48 09 f8             	or     %rdi,%rax
    8cf5:	48 89 44 24 08       	mov    %rax,0x8(%rsp)
    8cfa:	66 0f 6f 04 24       	movdqa (%rsp),%xmm0
    8cff:	85 ed                	test   %ebp,%ebp
    8d01:	0f 85 9a 04 00 00    	jne    91a1 <__multf3@@GCC_4.3.0+0x641>
    8d07:	48 83 c4 48          	add    $0x48,%rsp
    8d0b:	5b                   	pop    %rbx
    8d0c:	5d                   	pop    %rbp
    8d0d:	41 5c                	pop    %r12
    8d0f:	41 5d                	pop    %r13
    8d11:	41 5e                	pop    %r14
    8d13:	41 5f                	pop    %r15
    8d15:	c3                   	retq   
    8d16:	66 2e 0f 1f 84 00 00 	nopw   %cs:0x0(%rax,%rax,1)
    8d1d:	00 00 00 
    8d20:	ba ff 7f 00 00       	mov    $0x7fff,%edx
    8d25:	31 c0                	xor    %eax,%eax
    8d27:	45 31 c0             	xor    %r8d,%r8d
    8d2a:	eb 88                	jmp    8cb4 <__multf3@@GCC_4.3.0+0x154>
    8d2c:	4c 89 c0             	mov    %r8,%rax
    8d2f:	49 f7 e1             	mul    %r9
    8d32:	49 89 d6             	mov    %rdx,%r14
    8d35:	49 89 c4             	mov    %rax,%r12
    8d38:	4c 89 c0             	mov    %r8,%rax
    8d3b:	49 f7 e3             	mul    %r11
    8d3e:	49 89 c0             	mov    %rax,%r8
    8d41:	48 89 d3             	mov    %rdx,%rbx
    8d44:	4c 89 d0             	mov    %r10,%rax
    8d47:	49 f7 e1             	mul    %r9
    8d4a:	49 89 d1             	mov    %rdx,%r9
    8d4d:	49 89 c7             	mov    %rax,%r15
    8d50:	4c 89 d0             	mov    %r10,%rax
    8d53:	45 31 d2             	xor    %r10d,%r10d
    8d56:	49 f7 e3             	mul    %r11
    8d59:	4d 01 f0             	add    %r14,%r8
    8d5c:	41 0f 92 c2          	setb   %r10b
    8d60:	48 01 c3             	add    %rax,%rbx
    8d63:	0f 92 c0             	setb   %al
    8d66:	45 31 db             	xor    %r11d,%r11d
    8d69:	4c 01 d3             	add    %r10,%rbx
    8d6c:	41 0f 92 c3          	setb   %r11b
    8d70:	0f b6 c0             	movzbl %al,%eax
    8d73:	49 09 c3             	or     %rax,%r11
    8d76:	49 01 d3             	add    %rdx,%r11
    8d79:	4d 01 c7             	add    %r8,%r15
    8d7c:	41 0f 92 c0          	setb   %r8b
    8d80:	31 c0                	xor    %eax,%eax
    8d82:	49 01 d9             	add    %rbx,%r9
    8d85:	45 0f b6 c0          	movzbl %r8b,%r8d
    8d89:	0f 92 c0             	setb   %al
    8d8c:	31 d2                	xor    %edx,%edx
    8d8e:	4d 01 c1             	add    %r8,%r9
    8d91:	0f 92 c2             	setb   %dl
    8d94:	4d 89 ca             	mov    %r9,%r10
    8d97:	45 31 c0             	xor    %r8d,%r8d
    8d9a:	48 09 c2             	or     %rax,%rdx
    8d9d:	4c 89 f8             	mov    %r15,%rax
    8da0:	49 c1 ea 33          	shr    $0x33,%r10
    8da4:	4c 01 da             	add    %r11,%rdx
    8da7:	48 c1 e0 0d          	shl    $0xd,%rax
    8dab:	48 c1 e2 0d          	shl    $0xd,%rdx
    8daf:	49 09 d2             	or     %rdx,%r10
    8db2:	4c 09 e0             	or     %r12,%rax
    8db5:	41 0f 95 c0          	setne  %r8b
    8db9:	49 c1 ef 33          	shr    $0x33,%r15
    8dbd:	4d 09 c7             	or     %r8,%r15
    8dc0:	49 c1 e1 0d          	shl    $0xd,%r9
    8dc4:	4d 09 cf             	or     %r9,%r15
    8dc7:	48 0f ba e2 34       	bt     $0x34,%rdx
    8dcc:	4d 89 f8             	mov    %r15,%r8
    8dcf:	0f 83 eb 05 00 00    	jae    93c0 <__multf3@@GCC_4.3.0+0x860>
    8dd5:	4c 89 f8             	mov    %r15,%rax
    8dd8:	41 83 e0 01          	and    $0x1,%r8d
    8ddc:	48 d1 e8             	shr    %rax
    8ddf:	49 09 c0             	or     %rax,%r8
    8de2:	4c 89 d0             	mov    %r10,%rax
    8de5:	49 d1 ea             	shr    %r10
    8de8:	48 c1 e0 3f          	shl    $0x3f,%rax
    8dec:	49 09 c0             	or     %rax,%r8
    8def:	48 8d 91 ff 3f 00 00 	lea    0x3fff(%rcx),%rdx
    8df6:	48 85 d2             	test   %rdx,%rdx
    8df9:	0f 8e 91 02 00 00    	jle    9090 <__multf3@@GCC_4.3.0+0x530>
    8dff:	41 f6 c0 07          	test   $0x7,%r8b
    8e03:	74 2a                	je     8e2f <__multf3@@GCC_4.3.0+0x2cf>
    8e05:	8b 44 24 3c          	mov    0x3c(%rsp),%eax
    8e09:	83 cd 20             	or     $0x20,%ebp
    8e0c:	25 00 60 00 00       	and    $0x6000,%eax
    8e11:	3d 00 20 00 00       	cmp    $0x2000,%eax
    8e16:	0f 84 a4 06 00 00    	je     94c0 <__multf3@@GCC_4.3.0+0x960>
    8e1c:	3d 00 40 00 00       	cmp    $0x4000,%eax
    8e21:	0f 84 a9 05 00 00    	je     93d0 <__multf3@@GCC_4.3.0+0x870>
    8e27:	85 c0                	test   %eax,%eax
    8e29:	0f 84 f1 05 00 00    	je     9420 <__multf3@@GCC_4.3.0+0x8c0>
    8e2f:	49 0f ba e2 34       	bt     $0x34,%r10
    8e34:	73 0c                	jae    8e42 <__multf3@@GCC_4.3.0+0x2e2>
    8e36:	49 0f ba f2 34       	btr    $0x34,%r10
    8e3b:	48 8d 91 00 40 00 00 	lea    0x4000(%rcx),%rdx
    8e42:	48 81 fa fe 7f 00 00 	cmp    $0x7ffe,%rdx
    8e49:	0f 8f f9 04 00 00    	jg     9348 <__multf3@@GCC_4.3.0+0x7e8>
    8e4f:	4c 89 d0             	mov    %r10,%rax
    8e52:	49 c1 e8 03          	shr    $0x3,%r8
    8e56:	66 81 e2 ff 7f       	and    $0x7fff,%dx
    8e5b:	48 c1 e0 3d          	shl    $0x3d,%rax
    8e5f:	49 09 c0             	or     %rax,%r8
    8e62:	4c 89 d0             	mov    %r10,%rax
    8e65:	48 c1 e0 0d          	shl    $0xd,%rax
    8e69:	48 c1 e8 10          	shr    $0x10,%rax
    8e6d:	e9 42 fe ff ff       	jmpq   8cb4 <__multf3@@GCC_4.3.0+0x154>
    8e72:	66 0f 1f 44 00 00    	nopw   0x0(%rax,%rax,1)
    8e78:	4d 09 cb             	or     %r9,%r11
    8e7b:	0f 84 af 01 00 00    	je     9030 <__multf3@@GCC_4.3.0+0x4d0>
    8e81:	48 85 d2             	test   %rdx,%rdx
    8e84:	0f 84 a6 03 00 00    	je     9230 <__multf3@@GCC_4.3.0+0x6d0>
    8e8a:	4c 0f bd da          	bsr    %rdx,%r11
    8e8e:	49 83 f3 3f          	xor    $0x3f,%r11
    8e92:	49 63 fb             	movslq %r11d,%rdi
    8e95:	41 83 eb 0f          	sub    $0xf,%r11d
    8e99:	4d 63 db             	movslq %r11d,%r11
    8e9c:	45 8d 6b 03          	lea    0x3(%r11),%r13d
    8ea0:	44 89 e9             	mov    %r13d,%ecx
    8ea3:	48 d3 e2             	shl    %cl,%rdx
    8ea6:	b9 3d 00 00 00       	mov    $0x3d,%ecx
    8eab:	44 29 d9             	sub    %r11d,%ecx
    8eae:	4d 89 cb             	mov    %r9,%r11
    8eb1:	49 d3 eb             	shr    %cl,%r11
    8eb4:	44 89 e9             	mov    %r13d,%ecx
    8eb7:	49 d3 e1             	shl    %cl,%r9
    8eba:	49 09 d3             	or     %rdx,%r11
    8ebd:	4d 39 c8             	cmp    %r9,%r8
    8ec0:	0f 93 44 24 2f       	setae  0x2f(%rsp)
    8ec5:	48 29 fe             	sub    %rdi,%rsi
    8ec8:	83 cd 02             	or     $0x2,%ebp
    8ecb:	45 31 ff             	xor    %r15d,%r15d
    8ece:	48 81 ee ef 3f 00 00 	sub    $0x3fef,%rsi
    8ed5:	e9 82 fd ff ff       	jmpq   8c5c <__multf3@@GCC_4.3.0+0xfc>
    8eda:	66 0f 1f 44 00 00    	nopw   0x0(%rax,%rax,1)
    8ee0:	49 89 c0             	mov    %rax,%r8
    8ee3:	49 09 d0             	or     %rdx,%r8
    8ee6:	0f 84 2c 01 00 00    	je     9018 <__multf3@@GCC_4.3.0+0x4b8>
    8eec:	48 85 c0             	test   %rax,%rax
    8eef:	0f 84 0b 03 00 00    	je     9200 <__multf3@@GCC_4.3.0+0x6a0>
    8ef5:	48 0f bd c8          	bsr    %rax,%rcx
    8ef9:	48 83 f1 3f          	xor    $0x3f,%rcx
    8efd:	48 63 f9             	movslq %ecx,%rdi
    8f00:	83 e9 0f             	sub    $0xf,%ecx
    8f03:	48 63 f1             	movslq %ecx,%rsi
    8f06:	44 8d 46 03          	lea    0x3(%rsi),%r8d
    8f0a:	49 89 d2             	mov    %rdx,%r10
    8f0d:	44 89 c1             	mov    %r8d,%ecx
    8f10:	48 d3 e0             	shl    %cl,%rax
    8f13:	b9 3d 00 00 00       	mov    $0x3d,%ecx
    8f18:	29 f1                	sub    %esi,%ecx
    8f1a:	49 d3 ea             	shr    %cl,%r10
    8f1d:	44 89 c1             	mov    %r8d,%ecx
    8f20:	48 d3 e2             	shl    %cl,%rdx
    8f23:	49 09 c2             	or     %rax,%r10
    8f26:	49 89 d0             	mov    %rdx,%r8
    8f29:	48 c7 c6 11 c0 ff ff 	mov    $0xffffffffffffc011,%rsi
    8f30:	31 c0                	xor    %eax,%eax
    8f32:	31 db                	xor    %ebx,%ebx
    8f34:	bd 02 00 00 00       	mov    $0x2,%ebp
    8f39:	48 29 fe             	sub    %rdi,%rsi
    8f3c:	e9 ab fc ff ff       	jmpq   8bec <__multf3@@GCC_4.3.0+0x8c>
    8f41:	0f 1f 80 00 00 00 00 	nopl   0x0(%rax)
    8f48:	49 89 c0             	mov    %rax,%r8
    8f4b:	49 09 d0             	or     %rdx,%r8
    8f4e:	0f 85 9c 00 00 00    	jne    8ff0 <__multf3@@GCC_4.3.0+0x490>
    8f54:	45 31 d2             	xor    %r10d,%r10d
    8f57:	b8 08 00 00 00       	mov    $0x8,%eax
    8f5c:	be ff 7f 00 00       	mov    $0x7fff,%esi
    8f61:	31 ed                	xor    %ebp,%ebp
    8f63:	bb 02 00 00 00       	mov    $0x2,%ebx
    8f68:	e9 7f fc ff ff       	jmpq   8bec <__multf3@@GCC_4.3.0+0x8c>
    8f6d:	0f 1f 00             	nopl   (%rax)
    8f70:	4c 89 ca             	mov    %r9,%rdx
    8f73:	48 81 c6 ff 7f 00 00 	add    $0x7fff,%rsi
    8f7a:	4c 09 da             	or     %r11,%rdx
    8f7d:	74 51                	je     8fd0 <__multf3@@GCC_4.3.0+0x470>
    8f7f:	48 83 c8 03          	or     $0x3,%rax
    8f83:	4d 39 c8             	cmp    %r9,%r8
    8f86:	41 bf 03 00 00 00    	mov    $0x3,%r15d
    8f8c:	0f 93 44 24 2f       	setae  0x2f(%rsp)
    8f91:	49 0f ba e3 2f       	bt     $0x2f,%r11
    8f96:	0f 82 c0 fc ff ff    	jb     8c5c <__multf3@@GCC_4.3.0+0xfc>
    8f9c:	83 cd 01             	or     $0x1,%ebp
    8f9f:	e9 b8 fc ff ff       	jmpq   8c5c <__multf3@@GCC_4.3.0+0xfc>
    8fa4:	0f 1f 40 00          	nopl   0x0(%rax)
    8fa8:	4c 89 fb             	mov    %r15,%rbx
    8fab:	4c 8b 6c 24 10       	mov    0x10(%rsp),%r13
    8fb0:	44 89 f7             	mov    %r14d,%edi
    8fb3:	4d 89 da             	mov    %r11,%r10
    8fb6:	4d 89 c8             	mov    %r9,%r8
    8fb9:	48 83 fb 02          	cmp    $0x2,%rbx
    8fbd:	0f 85 d6 fc ff ff    	jne    8c99 <__multf3@@GCC_4.3.0+0x139>
    8fc3:	e9 58 fd ff ff       	jmpq   8d20 <__multf3@@GCC_4.3.0+0x1c0>
    8fc8:	0f 1f 84 00 00 00 00 	nopl   0x0(%rax,%rax,1)
    8fcf:	00 
    8fd0:	c6 44 24 2f 01       	movb   $0x1,0x2f(%rsp)
    8fd5:	48 83 c8 02          	or     $0x2,%rax
    8fd9:	45 31 db             	xor    %r11d,%r11d
    8fdc:	45 31 c9             	xor    %r9d,%r9d
    8fdf:	41 bf 02 00 00 00    	mov    $0x2,%r15d
    8fe5:	e9 72 fc ff ff       	jmpq   8c5c <__multf3@@GCC_4.3.0+0xfc>
    8fea:	66 0f 1f 44 00 00    	nopw   0x0(%rax,%rax,1)
    8ff0:	48 89 c5             	mov    %rax,%rbp
    8ff3:	49 89 d0             	mov    %rdx,%r8
    8ff6:	b8 0c 00 00 00       	mov    $0xc,%eax
    8ffb:	be ff 7f 00 00       	mov    $0x7fff,%esi
    9000:	48 c1 ed 2f          	shr    $0x2f,%rbp
    9004:	bb 03 00 00 00       	mov    $0x3,%ebx
    9009:	48 83 f5 01          	xor    $0x1,%rbp
    900d:	83 e5 01             	and    $0x1,%ebp
    9010:	e9 d7 fb ff ff       	jmpq   8bec <__multf3@@GCC_4.3.0+0x8c>
    9015:	0f 1f 00             	nopl   (%rax)
    9018:	45 31 d2             	xor    %r10d,%r10d
    901b:	b8 04 00 00 00       	mov    $0x4,%eax
    9020:	31 f6                	xor    %esi,%esi
    9022:	bb 01 00 00 00       	mov    $0x1,%ebx
    9027:	31 ed                	xor    %ebp,%ebp
    9029:	e9 be fb ff ff       	jmpq   8bec <__multf3@@GCC_4.3.0+0x8c>
    902e:	66 90                	xchg   %ax,%ax
    9030:	c6 44 24 2f 01       	movb   $0x1,0x2f(%rsp)
    9035:	48 83 c8 01          	or     $0x1,%rax
    9039:	45 31 db             	xor    %r11d,%r11d
    903c:	45 31 c9             	xor    %r9d,%r9d
    903f:	41 bf 01 00 00 00    	mov    $0x1,%r15d
    9045:	e9 12 fc ff ff       	jmpq   8c5c <__multf3@@GCC_4.3.0+0xfc>
    904a:	66 0f 1f 44 00 00    	nopw   0x0(%rax,%rax,1)
    9050:	4c 89 fb             	mov    %r15,%rbx
    9053:	4d 89 da             	mov    %r11,%r10
    9056:	4d 89 c8             	mov    %r9,%r8
    9059:	48 83 fb 02          	cmp    $0x2,%rbx
    905d:	0f 85 36 fc ff ff    	jne    8c99 <__multf3@@GCC_4.3.0+0x139>
    9063:	e9 b8 fc ff ff       	jmpq   8d20 <__multf3@@GCC_4.3.0+0x1c0>
    9068:	0f 1f 84 00 00 00 00 	nopl   0x0(%rax,%rax,1)
    906f:	00 
    9070:	83 cd 01             	or     $0x1,%ebp
    9073:	bf 01 00 00 00       	mov    $0x1,%edi
    9078:	45 31 c0             	xor    %r8d,%r8d
    907b:	48 b8 00 00 00 00 00 	movabs $0x800000000000,%rax
    9082:	80 00 00 
    9085:	ba ff 7f 00 00       	mov    $0x7fff,%edx
    908a:	e9 25 fc ff ff       	jmpq   8cb4 <__multf3@@GCC_4.3.0+0x154>
    908f:	90                   	nop
    9090:	b9 01 00 00 00       	mov    $0x1,%ecx
    9095:	48 89 ce             	mov    %rcx,%rsi
    9098:	48 29 d6             	sub    %rdx,%rsi
    909b:	48 85 d2             	test   %rdx,%rdx
    909e:	0f 85 c4 01 00 00    	jne    9268 <__multf3@@GCC_4.3.0+0x708>
    90a4:	4c 89 d0             	mov    %r10,%rax
    90a7:	41 f6 c0 07          	test   $0x7,%r8b
    90ab:	74 43                	je     90f0 <__multf3@@GCC_4.3.0+0x590>
    90ad:	8b 54 24 3c          	mov    0x3c(%rsp),%edx
    90b1:	83 cd 20             	or     $0x20,%ebp
    90b4:	81 e2 00 60 00 00    	and    $0x6000,%edx
    90ba:	81 fa 00 20 00 00    	cmp    $0x2000,%edx
    90c0:	0f 84 a0 04 00 00    	je     9566 <__multf3@@GCC_4.3.0+0xa06>
    90c6:	81 fa 00 40 00 00    	cmp    $0x4000,%edx
    90cc:	0f 84 78 04 00 00    	je     954a <__multf3@@GCC_4.3.0+0x9ea>
    90d2:	85 d2                	test   %edx,%edx
    90d4:	75 1a                	jne    90f0 <__multf3@@GCC_4.3.0+0x590>
    90d6:	4c 89 c2             	mov    %r8,%rdx
    90d9:	83 e2 0f             	and    $0xf,%edx
    90dc:	48 83 fa 04          	cmp    $0x4,%rdx
    90e0:	74 0e                	je     90f0 <__multf3@@GCC_4.3.0+0x590>
    90e2:	4c 89 c2             	mov    %r8,%rdx
    90e5:	48 83 c2 04          	add    $0x4,%rdx
    90e9:	48 83 d0 00          	adc    $0x0,%rax
    90ed:	0f 1f 00             	nopl   (%rax)
    90f0:	48 c1 e8 34          	shr    $0x34,%rax
    90f4:	48 83 f0 01          	xor    $0x1,%rax
    90f8:	89 c2                	mov    %eax,%edx
    90fa:	83 e2 01             	and    $0x1,%edx
    90fd:	b8 40 00 00 00       	mov    $0x40,%eax
    9102:	4d 89 d1             	mov    %r10,%r9
    9105:	4c 89 c3             	mov    %r8,%rbx
    9108:	29 f0                	sub    %esi,%eax
    910a:	89 c1                	mov    %eax,%ecx
    910c:	49 d3 e1             	shl    %cl,%r9
    910f:	89 f1                	mov    %esi,%ecx
    9111:	48 d3 eb             	shr    %cl,%rbx
    9114:	89 c1                	mov    %eax,%ecx
    9116:	49 d3 e0             	shl    %cl,%r8
    9119:	49 09 d9             	or     %rbx,%r9
    911c:	89 f1                	mov    %esi,%ecx
    911e:	4d 85 c0             	test   %r8,%r8
    9121:	41 0f 95 c0          	setne  %r8b
    9125:	49 d3 ea             	shr    %cl,%r10
    9128:	45 0f b6 c0          	movzbl %r8b,%r8d
    912c:	4d 09 c8             	or     %r9,%r8
    912f:	41 f6 c0 07          	test   $0x7,%r8b
    9133:	74 3b                	je     9170 <__multf3@@GCC_4.3.0+0x610>
    9135:	8b 44 24 3c          	mov    0x3c(%rsp),%eax
    9139:	83 cd 20             	or     $0x20,%ebp
    913c:	25 00 60 00 00       	and    $0x6000,%eax
    9141:	3d 00 20 00 00       	cmp    $0x2000,%eax
    9146:	0f 84 3b 04 00 00    	je     9587 <__multf3@@GCC_4.3.0+0xa27>
    914c:	3d 00 40 00 00       	cmp    $0x4000,%eax
    9151:	0f 84 1a 04 00 00    	je     9571 <__multf3@@GCC_4.3.0+0xa11>
    9157:	85 c0                	test   %eax,%eax
    9159:	75 15                	jne    9170 <__multf3@@GCC_4.3.0+0x610>
    915b:	4c 89 c0             	mov    %r8,%rax
    915e:	83 e0 0f             	and    $0xf,%eax
    9161:	48 83 f8 04          	cmp    $0x4,%rax
    9165:	74 09                	je     9170 <__multf3@@GCC_4.3.0+0x610>
    9167:	49 83 c0 04          	add    $0x4,%r8
    916b:	49 83 d2 00          	adc    $0x0,%r10
    916f:	90                   	nop
    9170:	49 0f ba e2 33       	bt     $0x33,%r10
    9175:	0f 83 85 03 00 00    	jae    9500 <__multf3@@GCC_4.3.0+0x9a0>
    917b:	83 cd 20             	or     $0x20,%ebp
    917e:	85 d2                	test   %edx,%edx
    9180:	0f 85 6a 03 00 00    	jne    94f0 <__multf3@@GCC_4.3.0+0x990>
    9186:	48 c1 e7 3f          	shl    $0x3f,%rdi
    918a:	48 c7 04 24 00 00 00 	movq   $0x0,(%rsp)
    9191:	00 
    9192:	48 0f ba ef 30       	bts    $0x30,%rdi
    9197:	48 89 7c 24 08       	mov    %rdi,0x8(%rsp)
    919c:	66 0f 6f 04 24       	movdqa (%rsp),%xmm0
    91a1:	89 ef                	mov    %ebp,%edi
    91a3:	0f 29 04 24          	movaps %xmm0,(%rsp)
    91a7:	e8 54 da ff ff       	callq  6c00 <__udivmodti4@@GCC_3.0+0x1d0>
    91ac:	66 0f 6f 04 24       	movdqa (%rsp),%xmm0
    91b1:	48 83 c4 48          	add    $0x48,%rsp
    91b5:	5b                   	pop    %rbx
    91b6:	5d                   	pop    %rbp
    91b7:	41 5c                	pop    %r12
    91b9:	41 5d                	pop    %r13
    91bb:	41 5e                	pop    %r14
    91bd:	41 5f                	pop    %r15
    91bf:	c3                   	retq   
    91c0:	4d 39 da             	cmp    %r11,%r10
    91c3:	0f 87 d7 01 00 00    	ja     93a0 <__multf3@@GCC_4.3.0+0x840>
    91c9:	48 ba ff ff ff ff ff 	movabs $0xffffffffffff,%rdx
    91d0:	ff 00 00 
    91d3:	4c 89 d8             	mov    %r11,%rax
    91d6:	48 0f ba e8 2f       	bts    $0x2f,%rax
    91db:	48 21 d0             	and    %rdx,%rax
    91de:	4d 39 da             	cmp    %r11,%r10
    91e1:	75 0e                	jne    91f1 <__multf3@@GCC_4.3.0+0x691>
    91e3:	80 7c 24 2f 00       	cmpb   $0x0,0x2f(%rsp)
    91e8:	44 89 e7             	mov    %r12d,%edi
    91eb:	0f 85 94 fe ff ff    	jne    9085 <__multf3@@GCC_4.3.0+0x525>
    91f1:	44 89 f7             	mov    %r14d,%edi
    91f4:	4d 89 c8             	mov    %r9,%r8
    91f7:	e9 89 fe ff ff       	jmpq   9085 <__multf3@@GCC_4.3.0+0x525>
    91fc:	0f 1f 40 00          	nopl   0x0(%rax)
    9200:	48 0f bd ca          	bsr    %rdx,%rcx
    9204:	48 83 f1 3f          	xor    $0x3f,%rcx
    9208:	8d 79 40             	lea    0x40(%rcx),%edi
    920b:	44 8d 41 31          	lea    0x31(%rcx),%r8d
    920f:	48 63 ff             	movslq %edi,%rdi
    9212:	49 63 f0             	movslq %r8d,%rsi
    9215:	41 83 f8 3c          	cmp    $0x3c,%r8d
    9219:	0f 8e e7 fc ff ff    	jle    8f06 <__multf3@@GCC_4.3.0+0x3a6>
    921f:	83 e9 0c             	sub    $0xc,%ecx
    9222:	45 31 c0             	xor    %r8d,%r8d
    9225:	48 d3 e2             	shl    %cl,%rdx
    9228:	49 89 d2             	mov    %rdx,%r10
    922b:	e9 f9 fc ff ff       	jmpq   8f29 <__multf3@@GCC_4.3.0+0x3c9>
    9230:	49 0f bd c9          	bsr    %r9,%rcx
    9234:	48 83 f1 3f          	xor    $0x3f,%rcx
    9238:	8d 79 40             	lea    0x40(%rcx),%edi
    923b:	44 8d 69 31          	lea    0x31(%rcx),%r13d
    923f:	48 63 ff             	movslq %edi,%rdi
    9242:	4d 63 dd             	movslq %r13d,%r11
    9245:	41 83 fd 3c          	cmp    $0x3c,%r13d
    9249:	0f 8e 4d fc ff ff    	jle    8e9c <__multf3@@GCC_4.3.0+0x33c>
    924f:	83 e9 0c             	sub    $0xc,%ecx
    9252:	c6 44 24 2f 01       	movb   $0x1,0x2f(%rsp)
    9257:	49 d3 e1             	shl    %cl,%r9
    925a:	4d 89 cb             	mov    %r9,%r11
    925d:	45 31 c9             	xor    %r9d,%r9d
    9260:	e9 60 fc ff ff       	jmpq   8ec5 <__multf3@@GCC_4.3.0+0x365>
    9265:	0f 1f 00             	nopl   (%rax)
    9268:	48 83 fe 74          	cmp    $0x74,%rsi
    926c:	0f 8e ce 01 00 00    	jle    9440 <__multf3@@GCC_4.3.0+0x8e0>
    9272:	31 c0                	xor    %eax,%eax
    9274:	4d 09 d0             	or     %r10,%r8
    9277:	74 4f                	je     92c8 <__multf3@@GCC_4.3.0+0x768>
    9279:	8b 54 24 3c          	mov    0x3c(%rsp),%edx
    927d:	83 cd 20             	or     $0x20,%ebp
    9280:	45 31 c0             	xor    %r8d,%r8d
    9283:	81 e2 00 60 00 00    	and    $0x6000,%edx
    9289:	81 fa 00 20 00 00    	cmp    $0x2000,%edx
    928f:	0f 84 27 03 00 00    	je     95bc <__multf3@@GCC_4.3.0+0xa5c>
    9295:	81 fa 00 40 00 00    	cmp    $0x4000,%edx
    929b:	0f 84 f1 02 00 00    	je     9592 <__multf3@@GCC_4.3.0+0xa32>
    92a1:	85 d2                	test   %edx,%edx
    92a3:	75 23                	jne    92c8 <__multf3@@GCC_4.3.0+0x768>
    92a5:	48 83 c1 04          	add    $0x4,%rcx
    92a9:	48 83 d0 00          	adc    $0x0,%rax
    92ad:	48 ba ff ff ff ff ff 	movabs $0xffffffffffff,%rdx
    92b4:	ff 00 00 
    92b7:	48 c1 e9 03          	shr    $0x3,%rcx
    92bb:	49 89 c8             	mov    %rcx,%r8
    92be:	48 21 d0             	and    %rdx,%rax
    92c1:	0f 1f 80 00 00 00 00 	nopl   0x0(%rax)
    92c8:	83 cd 10             	or     $0x10,%ebp
    92cb:	31 c9                	xor    %ecx,%ecx
    92cd:	81 e1 ff 7f 00 00    	and    $0x7fff,%ecx
    92d3:	48 c1 e7 3f          	shl    $0x3f,%rdi
    92d7:	4c 89 04 24          	mov    %r8,(%rsp)
    92db:	48 ba ff ff ff ff ff 	movabs $0xffffffffffff,%rdx
    92e2:	ff 00 00 
    92e5:	48 c7 44 24 08 00 00 	movq   $0x0,0x8(%rsp)
    92ec:	00 00 
    92ee:	48 21 d0             	and    %rdx,%rax
    92f1:	48 8b 54 24 08       	mov    0x8(%rsp),%rdx
    92f6:	48 c1 e1 30          	shl    $0x30,%rcx
    92fa:	48 be 00 00 00 00 00 	movabs $0xffff000000000000,%rsi
    9301:	00 ff ff 
    9304:	48 21 f2             	and    %rsi,%rdx
    9307:	48 09 d0             	or     %rdx,%rax
    930a:	48 ba ff ff ff ff ff 	movabs $0x8000ffffffffffff,%rdx
    9311:	ff 00 80 
    9314:	48 21 d0             	and    %rdx,%rax
    9317:	48 09 c8             	or     %rcx,%rax
    931a:	48 0f ba f0 3f       	btr    $0x3f,%rax
    931f:	48 09 f8             	or     %rdi,%rax
    9322:	89 ef                	mov    %ebp,%edi
    9324:	48 89 44 24 08       	mov    %rax,0x8(%rsp)
    9329:	66 0f 6f 04 24       	movdqa (%rsp),%xmm0
    932e:	0f 29 04 24          	movaps %xmm0,(%rsp)
    9332:	e8 c9 d8 ff ff       	callq  6c00 <__udivmodti4@@GCC_3.0+0x1d0>
    9337:	66 0f 6f 04 24       	movdqa (%rsp),%xmm0
    933c:	e9 70 fe ff ff       	jmpq   91b1 <__multf3@@GCC_4.3.0+0x651>
    9341:	0f 1f 80 00 00 00 00 	nopl   0x0(%rax)
    9348:	8b 54 24 3c          	mov    0x3c(%rsp),%edx
    934c:	81 e2 00 60 00 00    	and    $0x6000,%edx
    9352:	81 fa 00 20 00 00    	cmp    $0x2000,%edx
    9358:	0f 84 32 01 00 00    	je     9490 <__multf3@@GCC_4.3.0+0x930>
    935e:	81 fa 00 40 00 00    	cmp    $0x4000,%edx
    9364:	0f 84 86 00 00 00    	je     93f0 <__multf3@@GCC_4.3.0+0x890>
    936a:	83 fa 01             	cmp    $0x1,%edx
    936d:	b9 ff 7f 00 00       	mov    $0x7fff,%ecx
    9372:	b8 00 00 00 00       	mov    $0x0,%eax
    9377:	48 be ff ff ff ff ff 	movabs $0xffffffffffff,%rsi
    937e:	ff 00 00 
    9381:	66 83 d1 ff          	adc    $0xffff,%cx
    9385:	85 d2                	test   %edx,%edx
    9387:	48 0f 45 c6          	cmovne %rsi,%rax
    938b:	83 fa 01             	cmp    $0x1,%edx
    938e:	4d 19 c0             	sbb    %r8,%r8
    9391:	49 f7 d0             	not    %r8
    9394:	83 cd 28             	or     $0x28,%ebp
    9397:	e9 31 ff ff ff       	jmpq   92cd <__multf3@@GCC_4.3.0+0x76d>
    939c:	0f 1f 40 00          	nopl   0x0(%rax)
    93a0:	48 ba ff ff ff ff ff 	movabs $0xffffffffffff,%rdx
    93a7:	ff 00 00 
    93aa:	4c 89 d0             	mov    %r10,%rax
    93ad:	44 89 e7             	mov    %r12d,%edi
    93b0:	48 0f ba e8 2f       	bts    $0x2f,%rax
    93b5:	48 21 d0             	and    %rdx,%rax
    93b8:	e9 c8 fc ff ff       	jmpq   9085 <__multf3@@GCC_4.3.0+0x525>
    93bd:	0f 1f 00             	nopl   (%rax)
    93c0:	48 89 f1             	mov    %rsi,%rcx
    93c3:	e9 27 fa ff ff       	jmpq   8def <__multf3@@GCC_4.3.0+0x28f>
    93c8:	0f 1f 84 00 00 00 00 	nopl   0x0(%rax,%rax,1)
    93cf:	00 
    93d0:	4d 85 ed             	test   %r13,%r13
    93d3:	0f 85 56 fa ff ff    	jne    8e2f <__multf3@@GCC_4.3.0+0x2cf>
    93d9:	49 83 c0 08          	add    $0x8,%r8
    93dd:	49 83 d2 00          	adc    $0x0,%r10
    93e1:	e9 49 fa ff ff       	jmpq   8e2f <__multf3@@GCC_4.3.0+0x2cf>
    93e6:	66 2e 0f 1f 84 00 00 	nopw   %cs:0x0(%rax,%rax,1)
    93ed:	00 00 00 
    93f0:	44 89 e9             	mov    %r13d,%ecx
    93f3:	b8 00 00 00 00       	mov    $0x0,%eax
    93f8:	4d 89 e8             	mov    %r13,%r8
    93fb:	48 ba ff ff ff ff ff 	movabs $0xffffffffffff,%rdx
    9402:	ff 00 00 
    9405:	f7 d9                	neg    %ecx
    9407:	66 81 c1 ff 7f       	add    $0x7fff,%cx
    940c:	4d 85 ed             	test   %r13,%r13
    940f:	48 0f 45 c2          	cmovne %rdx,%rax
    9413:	49 f7 d8             	neg    %r8
    9416:	e9 79 ff ff ff       	jmpq   9394 <__multf3@@GCC_4.3.0+0x834>
    941b:	0f 1f 44 00 00       	nopl   0x0(%rax,%rax,1)
    9420:	4c 89 c0             	mov    %r8,%rax
    9423:	83 e0 0f             	and    $0xf,%eax
    9426:	48 83 f8 04          	cmp    $0x4,%rax
    942a:	0f 84 ff f9 ff ff    	je     8e2f <__multf3@@GCC_4.3.0+0x2cf>
    9430:	49 83 c0 04          	add    $0x4,%r8
    9434:	49 83 d2 00          	adc    $0x0,%r10
    9438:	e9 f2 f9 ff ff       	jmpq   8e2f <__multf3@@GCC_4.3.0+0x2cf>
    943d:	0f 1f 00             	nopl   (%rax)
    9440:	48 83 fe 3f          	cmp    $0x3f,%rsi
    9444:	0f 8e 7d 01 00 00    	jle    95c7 <__multf3@@GCC_4.3.0+0xa67>
    944a:	8d 4e c0             	lea    -0x40(%rsi),%ecx
    944d:	4c 89 d2             	mov    %r10,%rdx
    9450:	48 d3 ea             	shr    %cl,%rdx
    9453:	48 83 fe 40          	cmp    $0x40,%rsi
    9457:	74 0d                	je     9466 <__multf3@@GCC_4.3.0+0x906>
    9459:	b9 80 00 00 00       	mov    $0x80,%ecx
    945e:	29 f1                	sub    %esi,%ecx
    9460:	49 d3 e2             	shl    %cl,%r10
    9463:	4d 09 d0             	or     %r10,%r8
    9466:	4d 85 c0             	test   %r8,%r8
    9469:	41 0f 95 c0          	setne  %r8b
    946d:	45 0f b6 c0          	movzbl %r8b,%r8d
    9471:	49 09 d0             	or     %rdx,%r8
    9474:	41 f6 c0 07          	test   $0x7,%r8b
    9478:	74 56                	je     94d0 <__multf3@@GCC_4.3.0+0x970>
    947a:	ba 01 00 00 00       	mov    $0x1,%edx
    947f:	45 31 d2             	xor    %r10d,%r10d
    9482:	e9 ae fc ff ff       	jmpq   9135 <__multf3@@GCC_4.3.0+0x5d5>
    9487:	66 0f 1f 84 00 00 00 	nopw   0x0(%rax,%rax,1)
    948e:	00 00 
    9490:	49 83 fd 01          	cmp    $0x1,%r13
    9494:	b8 00 00 00 00       	mov    $0x0,%eax
    9499:	48 ba ff ff ff ff ff 	movabs $0xffffffffffff,%rdx
    94a0:	ff 00 00 
    94a3:	19 c9                	sbb    %ecx,%ecx
    94a5:	66 81 c1 ff 7f       	add    $0x7fff,%cx
    94aa:	4d 85 ed             	test   %r13,%r13
    94ad:	48 0f 44 c2          	cmove  %rdx,%rax
    94b1:	49 83 fd 01          	cmp    $0x1,%r13
    94b5:	4d 19 c0             	sbb    %r8,%r8
    94b8:	e9 d7 fe ff ff       	jmpq   9394 <__multf3@@GCC_4.3.0+0x834>
    94bd:	0f 1f 00             	nopl   (%rax)
    94c0:	4d 85 ed             	test   %r13,%r13
    94c3:	0f 84 66 f9 ff ff    	je     8e2f <__multf3@@GCC_4.3.0+0x2cf>
    94c9:	e9 0b ff ff ff       	jmpq   93d9 <__multf3@@GCC_4.3.0+0x879>
    94ce:	66 90                	xchg   %ax,%ax
    94d0:	49 c1 e8 03          	shr    $0x3,%r8
    94d4:	31 c0                	xor    %eax,%eax
    94d6:	f6 44 24 3d 08       	testb  $0x8,0x3d(%rsp)
    94db:	75 0a                	jne    94e7 <__multf3@@GCC_4.3.0+0x987>
    94dd:	31 c9                	xor    %ecx,%ecx
    94df:	83 cd 10             	or     $0x10,%ebp
    94e2:	e9 e6 fd ff ff       	jmpq   92cd <__multf3@@GCC_4.3.0+0x76d>
    94e7:	31 d2                	xor    %edx,%edx
    94e9:	e9 c6 f7 ff ff       	jmpq   8cb4 <__multf3@@GCC_4.3.0+0x154>
    94ee:	66 90                	xchg   %ax,%ax
    94f0:	b9 01 00 00 00       	mov    $0x1,%ecx
    94f5:	31 c0                	xor    %eax,%eax
    94f7:	45 31 c0             	xor    %r8d,%r8d
    94fa:	eb e3                	jmp    94df <__multf3@@GCC_4.3.0+0x97f>
    94fc:	0f 1f 40 00          	nopl   0x0(%rax)
    9500:	4c 89 d0             	mov    %r10,%rax
    9503:	49 c1 e8 03          	shr    $0x3,%r8
    9507:	48 c1 e0 0d          	shl    $0xd,%rax
    950b:	49 c1 e2 3d          	shl    $0x3d,%r10
    950f:	48 c1 e8 10          	shr    $0x10,%rax
    9513:	4d 09 d0             	or     %r10,%r8
    9516:	85 d2                	test   %edx,%edx
    9518:	0f 84 96 f7 ff ff    	je     8cb4 <__multf3@@GCC_4.3.0+0x154>
    951e:	40 f6 c5 20          	test   $0x20,%bpl
    9522:	74 b2                	je     94d6 <__multf3@@GCC_4.3.0+0x976>
    9524:	eb b7                	jmp    94dd <__multf3@@GCC_4.3.0+0x97d>
    9526:	66 2e 0f 1f 84 00 00 	nopw   %cs:0x0(%rax,%rax,1)
    952d:	00 00 00 
    9530:	48 ba ff ff ff ff ff 	movabs $0xffffffffffff,%rdx
    9537:	ff 00 00 
    953a:	4c 89 d0             	mov    %r10,%rax
    953d:	48 0f ba e8 2f       	bts    $0x2f,%rax
    9542:	48 21 d0             	and    %rdx,%rax
    9545:	e9 3b fb ff ff       	jmpq   9085 <__multf3@@GCC_4.3.0+0x525>
    954a:	4d 85 ed             	test   %r13,%r13
    954d:	0f 85 9d fb ff ff    	jne    90f0 <__multf3@@GCC_4.3.0+0x590>
    9553:	4c 89 d0             	mov    %r10,%rax
    9556:	4c 89 c2             	mov    %r8,%rdx
    9559:	48 83 c2 08          	add    $0x8,%rdx
    955d:	48 83 d0 00          	adc    $0x0,%rax
    9561:	e9 8a fb ff ff       	jmpq   90f0 <__multf3@@GCC_4.3.0+0x590>
    9566:	4d 85 ed             	test   %r13,%r13
    9569:	0f 84 81 fb ff ff    	je     90f0 <__multf3@@GCC_4.3.0+0x590>
    956f:	eb e2                	jmp    9553 <__multf3@@GCC_4.3.0+0x9f3>
    9571:	4d 85 ed             	test   %r13,%r13
    9574:	0f 85 f6 fb ff ff    	jne    9170 <__multf3@@GCC_4.3.0+0x610>
    957a:	49 83 c0 08          	add    $0x8,%r8
    957e:	49 83 d2 00          	adc    $0x0,%r10
    9582:	e9 e9 fb ff ff       	jmpq   9170 <__multf3@@GCC_4.3.0+0x610>
    9587:	4d 85 ed             	test   %r13,%r13
    958a:	0f 84 e0 fb ff ff    	je     9170 <__multf3@@GCC_4.3.0+0x610>
    9590:	eb e8                	jmp    957a <__multf3@@GCC_4.3.0+0xa1a>
    9592:	4d 85 ed             	test   %r13,%r13
    9595:	0f 85 2d fd ff ff    	jne    92c8 <__multf3@@GCC_4.3.0+0x768>
    959b:	48 83 c1 08          	add    $0x8,%rcx
    959f:	48 83 d0 00          	adc    $0x0,%rax
    95a3:	48 ba ff ff ff ff ff 	movabs $0xffffffffffff,%rdx
    95aa:	ff 00 00 
    95ad:	48 c1 e9 03          	shr    $0x3,%rcx
    95b1:	49 89 c8             	mov    %rcx,%r8
    95b4:	48 21 d0             	and    %rdx,%rax
    95b7:	e9 0c fd ff ff       	jmpq   92c8 <__multf3@@GCC_4.3.0+0x768>
    95bc:	4d 85 ed             	test   %r13,%r13
    95bf:	0f 84 03 fd ff ff    	je     92c8 <__multf3@@GCC_4.3.0+0x768>
    95c5:	eb d4                	jmp    959b <__multf3@@GCC_4.3.0+0xa3b>
    95c7:	ba 01 00 00 00       	mov    $0x1,%edx
    95cc:	e9 2c fb ff ff       	jmpq   90fd <__multf3@@GCC_4.3.0+0x59d>
    95d1:	66 2e 0f 1f 84 00 00 	nopw   %cs:0x0(%rax,%rax,1)
    95d8:	00 00 00 
    95db:	0f 1f 44 00 00       	nopl   0x0(%rax,%rax,1)

00000000000095e0 <__negtf2@@GCC_4.3.0>:
    95e0:	f3 0f 1e fa          	endbr64 
    95e4:	48 be ff ff ff ff ff 	movabs $0xffffffffffff,%rsi
    95eb:	ff 00 00 
    95ee:	0f 29 44 24 e8       	movaps %xmm0,-0x18(%rsp)
    95f3:	48 8b 44 24 e8       	mov    -0x18(%rsp),%rax
    95f8:	48 8b 4c 24 f0       	mov    -0x10(%rsp),%rcx
    95fd:	48 c7 44 24 f0 00 00 	movq   $0x0,-0x10(%rsp)
    9604:	00 00 
    9606:	48 bf 00 00 00 00 00 	movabs $0xffff000000000000,%rdi
    960d:	00 ff ff 
    9610:	48 89 44 24 e8       	mov    %rax,-0x18(%rsp)
    9615:	48 8b 44 24 f0       	mov    -0x10(%rsp),%rax
    961a:	48 89 ca             	mov    %rcx,%rdx
    961d:	48 21 f1             	and    %rsi,%rcx
    9620:	48 c1 ea 30          	shr    $0x30,%rdx
    9624:	48 21 f8             	and    %rdi,%rax
    9627:	66 81 c2 00 80       	add    $0x8000,%dx
    962c:	48 09 c8             	or     %rcx,%rax
    962f:	48 c1 e2 30          	shl    $0x30,%rdx
    9633:	48 21 f0             	and    %rsi,%rax
    9636:	48 09 d0             	or     %rdx,%rax
    9639:	48 89 44 24 f0       	mov    %rax,-0x10(%rsp)
    963e:	66 0f 6f 44 24 e8    	movdqa -0x18(%rsp),%xmm0
    9644:	c3                   	retq   
    9645:	66 2e 0f 1f 84 00 00 	nopw   %cs:0x0(%rax,%rax,1)
    964c:	00 00 00 
    964f:	90                   	nop

0000000000009650 <__subtf3@@GCC_4.3.0>:
    9650:	f3 0f 1e fa          	endbr64 
    9654:	41 57                	push   %r15
    9656:	41 56                	push   %r14
    9658:	41 55                	push   %r13
    965a:	41 54                	push   %r12
    965c:	55                   	push   %rbp
    965d:	53                   	push   %rbx
    965e:	48 83 ec 38          	sub    $0x38,%rsp
    9662:	0f 29 04 24          	movaps %xmm0,(%rsp)
    9666:	0f 29 4c 24 10       	movaps %xmm1,0x10(%rsp)
    966b:	0f ae 5c 24 2c       	stmxcsr 0x2c(%rsp)
    9670:	48 8b 44 24 08       	mov    0x8(%rsp),%rax
    9675:	4c 8b 0c 24          	mov    (%rsp),%r9
    9679:	49 b8 ff ff ff ff ff 	movabs $0xffffffffffff,%r8
    9680:	ff 00 00 
    9683:	4c 8b 54 24 10       	mov    0x10(%rsp),%r10
    9688:	48 89 c2             	mov    %rax,%rdx
    968b:	48 89 c5             	mov    %rax,%rbp
    968e:	4c 89 c9             	mov    %r9,%rcx
    9691:	4c 21 c0             	and    %r8,%rax
    9694:	48 c1 e9 3d          	shr    $0x3d,%rcx
    9698:	48 c1 e0 03          	shl    $0x3,%rax
    969c:	4a 8d 34 cd 00 00 00 	lea    0x0(,%r9,8),%rsi
    96a3:	00 
    96a4:	4a 8d 1c d5 00 00 00 	lea    0x0(,%r10,8),%rbx
    96ab:	00 
    96ac:	48 c1 ea 30          	shr    $0x30,%rdx
    96b0:	48 09 c8             	or     %rcx,%rax
    96b3:	48 8b 4c 24 18       	mov    0x18(%rsp),%rcx
    96b8:	48 c1 ed 3f          	shr    $0x3f,%rbp
    96bc:	49 89 d3             	mov    %rdx,%r11
    96bf:	81 e2 ff 7f 00 00    	and    $0x7fff,%edx
    96c5:	89 ef                	mov    %ebp,%edi
    96c7:	44 0f b6 ed          	movzbl %bpl,%r13d
    96cb:	49 89 cf             	mov    %rcx,%r15
    96ce:	49 89 ce             	mov    %rcx,%r14
    96d1:	4c 21 c1             	and    %r8,%rcx
    96d4:	4d 89 d0             	mov    %r10,%r8
    96d7:	49 c1 ef 30          	shr    $0x30,%r15
    96db:	48 c1 e1 03          	shl    $0x3,%rcx
    96df:	41 81 e3 ff 7f 00 00 	and    $0x7fff,%r11d
    96e6:	49 c1 e8 3d          	shr    $0x3d,%r8
    96ea:	4d 89 fc             	mov    %r15,%r12
    96ed:	41 81 e7 ff 7f 00 00 	and    $0x7fff,%r15d
    96f4:	49 c1 ee 3f          	shr    $0x3f,%r14
    96f8:	41 81 e4 ff 7f 00 00 	and    $0x7fff,%r12d
    96ff:	49 09 c8             	or     %rcx,%r8
    9702:	44 29 fa             	sub    %r15d,%edx
    9705:	49 81 fc ff 7f 00 00 	cmp    $0x7fff,%r12
    970c:	0f 84 3e 03 00 00    	je     9a50 <__subtf3@@GCC_4.3.0+0x400>
    9712:	49 83 f6 01          	xor    $0x1,%r14
    9716:	4d 89 f7             	mov    %r14,%r15
    9719:	4d 39 f5             	cmp    %r14,%r13
    971c:	0f 84 a6 03 00 00    	je     9ac8 <__subtf3@@GCC_4.3.0+0x478>
    9722:	85 d2                	test   %edx,%edx
    9724:	0f 8e 76 02 00 00    	jle    99a0 <__subtf3@@GCC_4.3.0+0x350>
    972a:	4d 85 e4             	test   %r12,%r12
    972d:	0f 85 3e 03 00 00    	jne    9a71 <__subtf3@@GCC_4.3.0+0x421>
    9733:	4c 89 c1             	mov    %r8,%rcx
    9736:	48 09 d9             	or     %rbx,%rcx
    9739:	0f 84 09 07 00 00    	je     9e48 <__subtf3@@GCC_4.3.0+0x7f8>
    973f:	83 ea 01             	sub    $0x1,%edx
    9742:	0f 84 d0 0a 00 00    	je     a218 <__subtf3@@GCC_4.3.0+0xbc8>
    9748:	41 be 02 00 00 00    	mov    $0x2,%r14d
    974e:	49 81 fb ff 7f 00 00 	cmp    $0x7fff,%r11
    9755:	0f 84 c5 0b 00 00    	je     a320 <__subtf3@@GCC_4.3.0+0xcd0>
    975b:	83 fa 74             	cmp    $0x74,%edx
    975e:	0f 8f cc 06 00 00    	jg     9e30 <__subtf3@@GCC_4.3.0+0x7e0>
    9764:	83 fa 3f             	cmp    $0x3f,%edx
    9767:	0f 8f fb 08 00 00    	jg     a068 <__subtf3@@GCC_4.3.0+0xa18>
    976d:	41 ba 40 00 00 00    	mov    $0x40,%r10d
    9773:	4d 89 c1             	mov    %r8,%r9
    9776:	49 89 df             	mov    %rbx,%r15
    9779:	41 29 d2             	sub    %edx,%r10d
    977c:	44 89 d1             	mov    %r10d,%ecx
    977f:	49 d3 e1             	shl    %cl,%r9
    9782:	89 d1                	mov    %edx,%ecx
    9784:	49 d3 ef             	shr    %cl,%r15
    9787:	44 89 d1             	mov    %r10d,%ecx
    978a:	48 d3 e3             	shl    %cl,%rbx
    978d:	4d 09 f9             	or     %r15,%r9
    9790:	31 c9                	xor    %ecx,%ecx
    9792:	48 85 db             	test   %rbx,%rbx
    9795:	0f 95 c1             	setne  %cl
    9798:	49 09 c9             	or     %rcx,%r9
    979b:	89 d1                	mov    %edx,%ecx
    979d:	49 d3 e8             	shr    %cl,%r8
    97a0:	4c 29 ce             	sub    %r9,%rsi
    97a3:	4c 19 c0             	sbb    %r8,%rax
    97a6:	48 0f ba e0 33       	bt     $0x33,%rax
    97ab:	0f 83 82 04 00 00    	jae    9c33 <__subtf3@@GCC_4.3.0+0x5e3>
    97b1:	49 b9 ff ff ff ff ff 	movabs $0x7ffffffffffff,%r9
    97b8:	ff 07 00 
    97bb:	49 21 c1             	and    %rax,%r9
    97be:	4d 85 c9             	test   %r9,%r9
    97c1:	0f 84 f9 04 00 00    	je     9cc0 <__subtf3@@GCC_4.3.0+0x670>
    97c7:	49 0f bd c9          	bsr    %r9,%rcx
    97cb:	48 83 f1 3f          	xor    $0x3f,%rcx
    97cf:	44 8d 41 f4          	lea    -0xc(%rcx),%r8d
    97d3:	44 89 c1             	mov    %r8d,%ecx
    97d6:	48 89 f0             	mov    %rsi,%rax
    97d9:	49 d3 e1             	shl    %cl,%r9
    97dc:	b9 40 00 00 00       	mov    $0x40,%ecx
    97e1:	44 29 c1             	sub    %r8d,%ecx
    97e4:	48 d3 e8             	shr    %cl,%rax
    97e7:	44 89 c1             	mov    %r8d,%ecx
    97ea:	48 d3 e6             	shl    %cl,%rsi
    97ed:	4c 09 c8             	or     %r9,%rax
    97f0:	49 89 f1             	mov    %rsi,%r9
    97f3:	49 63 d0             	movslq %r8d,%rdx
    97f6:	4c 39 da             	cmp    %r11,%rdx
    97f9:	0f 8c 29 04 00 00    	jl     9c28 <__subtf3@@GCC_4.3.0+0x5d8>
    97ff:	44 89 c1             	mov    %r8d,%ecx
    9802:	44 29 d9             	sub    %r11d,%ecx
    9805:	44 8d 41 01          	lea    0x1(%rcx),%r8d
    9809:	41 83 f8 3f          	cmp    $0x3f,%r8d
    980d:	0f 8f 1d 08 00 00    	jg     a030 <__subtf3@@GCC_4.3.0+0x9e0>
    9813:	ba 40 00 00 00       	mov    $0x40,%edx
    9818:	48 89 c6             	mov    %rax,%rsi
    981b:	4c 89 cb             	mov    %r9,%rbx
    981e:	44 29 c2             	sub    %r8d,%edx
    9821:	89 d1                	mov    %edx,%ecx
    9823:	48 d3 e6             	shl    %cl,%rsi
    9826:	44 89 c1             	mov    %r8d,%ecx
    9829:	48 d3 eb             	shr    %cl,%rbx
    982c:	89 d1                	mov    %edx,%ecx
    982e:	31 d2                	xor    %edx,%edx
    9830:	49 d3 e1             	shl    %cl,%r9
    9833:	48 09 de             	or     %rbx,%rsi
    9836:	44 89 c1             	mov    %r8d,%ecx
    9839:	4d 85 c9             	test   %r9,%r9
    983c:	0f 95 c2             	setne  %dl
    983f:	48 d3 e8             	shr    %cl,%rax
    9842:	48 09 d6             	or     %rdx,%rsi
    9845:	48 89 f5             	mov    %rsi,%rbp
    9848:	48 09 c5             	or     %rax,%rbp
    984b:	0f 1f 44 00 00       	nopl   0x0(%rax,%rax,1)
    9850:	48 85 ed             	test   %rbp,%rbp
    9853:	0f 84 f7 03 00 00    	je     9c50 <__subtf3@@GCC_4.3.0+0x600>
    9859:	48 89 f5             	mov    %rsi,%rbp
    985c:	83 e5 07             	and    $0x7,%ebp
    985f:	48 89 f2             	mov    %rsi,%rdx
    9862:	4c 8d 04 36          	lea    (%rsi,%rsi,1),%r8
    9866:	48 c1 ea 3f          	shr    $0x3f,%rdx
    986a:	48 8d 14 42          	lea    (%rdx,%rax,2),%rdx
    986e:	41 f6 c0 06          	test   $0x6,%r8b
    9872:	74 2e                	je     98a2 <__subtf3@@GCC_4.3.0+0x252>
    9874:	8b 4c 24 2c          	mov    0x2c(%rsp),%ecx
    9878:	41 83 ce 20          	or     $0x20,%r14d
    987c:	81 e1 00 60 00 00    	and    $0x6000,%ecx
    9882:	81 f9 00 20 00 00    	cmp    $0x2000,%ecx
    9888:	0f 84 02 0a 00 00    	je     a290 <__subtf3@@GCC_4.3.0+0xc40>
    988e:	81 f9 00 40 00 00    	cmp    $0x4000,%ecx
    9894:	0f 84 36 0a 00 00    	je     a2d0 <__subtf3@@GCC_4.3.0+0xc80>
    989a:	85 c9                	test   %ecx,%ecx
    989c:	0f 84 0e 0a 00 00    	je     a2b0 <__subtf3@@GCC_4.3.0+0xc60>
    98a2:	48 c1 ea 34          	shr    $0x34,%rdx
    98a6:	45 31 db             	xor    %r11d,%r11d
    98a9:	48 83 f2 01          	xor    $0x1,%rdx
    98ad:	83 e2 01             	and    $0x1,%edx
    98b0:	48 85 ed             	test   %rbp,%rbp
    98b3:	0f 84 34 10 00 00    	je     a8ed <__subtf3@@GCC_4.3.0+0x129d>
    98b9:	8b 4c 24 2c          	mov    0x2c(%rsp),%ecx
    98bd:	41 83 ce 20          	or     $0x20,%r14d
    98c1:	81 e1 00 60 00 00    	and    $0x6000,%ecx
    98c7:	81 f9 00 20 00 00    	cmp    $0x2000,%ecx
    98cd:	0f 84 2d 05 00 00    	je     9e00 <__subtf3@@GCC_4.3.0+0x7b0>
    98d3:	81 f9 00 40 00 00    	cmp    $0x4000,%ecx
    98d9:	0f 84 f1 04 00 00    	je     9dd0 <__subtf3@@GCC_4.3.0+0x780>
    98df:	85 c9                	test   %ecx,%ecx
    98e1:	0f 84 29 05 00 00    	je     9e10 <__subtf3@@GCC_4.3.0+0x7c0>
    98e7:	48 b9 00 00 00 00 00 	movabs $0x8000000000000,%rcx
    98ee:	00 08 00 
    98f1:	48 21 c1             	and    %rax,%rcx
    98f4:	85 d2                	test   %edx,%edx
    98f6:	74 04                	je     98fc <__subtf3@@GCC_4.3.0+0x2ac>
    98f8:	41 83 ce 10          	or     $0x10,%r14d
    98fc:	48 85 c9             	test   %rcx,%rcx
    98ff:	0f 84 f5 02 00 00    	je     9bfa <__subtf3@@GCC_4.3.0+0x5aa>
    9905:	4d 8d 43 01          	lea    0x1(%r11),%r8
    9909:	49 81 fb fe 7f 00 00 	cmp    $0x7ffe,%r11
    9910:	0f 84 5a 03 00 00    	je     9c70 <__subtf3@@GCC_4.3.0+0x620>
    9916:	48 89 c1             	mov    %rax,%rcx
    9919:	48 c1 e0 0d          	shl    $0xd,%rax
    991d:	45 89 c3             	mov    %r8d,%r11d
    9920:	48 c1 ee 03          	shr    $0x3,%rsi
    9924:	48 c1 e1 3d          	shl    $0x3d,%rcx
    9928:	66 41 81 e3 ff 7f    	and    $0x7fff,%r11w
    992e:	48 c1 e8 10          	shr    $0x10,%rax
    9932:	48 09 f1             	or     %rsi,%rcx
    9935:	48 89 c2             	mov    %rax,%rdx
    9938:	48 c7 44 24 08 00 00 	movq   $0x0,0x8(%rsp)
    993f:	00 00 
    9941:	48 8b 44 24 08       	mov    0x8(%rsp),%rax
    9946:	c1 e7 0f             	shl    $0xf,%edi
    9949:	48 be 00 00 00 00 00 	movabs $0xffff000000000000,%rsi
    9950:	00 ff ff 
    9953:	48 89 0c 24          	mov    %rcx,(%rsp)
    9957:	44 09 df             	or     %r11d,%edi
    995a:	48 b9 ff ff ff ff ff 	movabs $0xffffffffffff,%rcx
    9961:	ff 00 00 
    9964:	48 21 ca             	and    %rcx,%rdx
    9967:	48 21 f0             	and    %rsi,%rax
    996a:	48 c1 e7 30          	shl    $0x30,%rdi
    996e:	48 09 d0             	or     %rdx,%rax
    9971:	48 21 c8             	and    %rcx,%rax
    9974:	48 09 f8             	or     %rdi,%rax
    9977:	48 89 44 24 08       	mov    %rax,0x8(%rsp)
    997c:	66 0f 6f 04 24       	movdqa (%rsp),%xmm0
    9981:	45 85 f6             	test   %r14d,%r14d
    9984:	0f 85 1d 05 00 00    	jne    9ea7 <__subtf3@@GCC_4.3.0+0x857>
    998a:	48 83 c4 38          	add    $0x38,%rsp
    998e:	5b                   	pop    %rbx
    998f:	5d                   	pop    %rbp
    9990:	41 5c                	pop    %r12
    9992:	41 5d                	pop    %r13
    9994:	41 5e                	pop    %r14
    9996:	41 5f                	pop    %r15
    9998:	c3                   	retq   
    9999:	0f 1f 80 00 00 00 00 	nopl   0x0(%rax)
    99a0:	85 d2                	test   %edx,%edx
    99a2:	0f 84 88 01 00 00    	je     9b30 <__subtf3@@GCC_4.3.0+0x4e0>
    99a8:	44 89 ff             	mov    %r15d,%edi
    99ab:	83 e7 01             	and    $0x1,%edi
    99ae:	4d 85 db             	test   %r11,%r11
    99b1:	0f 85 a9 05 00 00    	jne    9f60 <__subtf3@@GCC_4.3.0+0x910>
    99b7:	48 89 c1             	mov    %rax,%rcx
    99ba:	48 09 f1             	or     %rsi,%rcx
    99bd:	0f 84 cd 07 00 00    	je     a190 <__subtf3@@GCC_4.3.0+0xb40>
    99c3:	83 f2 ff             	xor    $0xffffffff,%edx
    99c6:	0f 84 e4 0a 00 00    	je     a4b0 <__subtf3@@GCC_4.3.0+0xe60>
    99cc:	41 be 02 00 00 00    	mov    $0x2,%r14d
    99d2:	49 81 fc ff 7f 00 00 	cmp    $0x7fff,%r12
    99d9:	0f 85 98 05 00 00    	jne    9f77 <__subtf3@@GCC_4.3.0+0x927>
    99df:	4c 09 c3             	or     %r8,%rbx
    99e2:	0f 84 9c 04 00 00    	je     9e84 <__subtf3@@GCC_4.3.0+0x834>
    99e8:	48 b9 ff ff ff ff ff 	movabs $0x1fffffffffffffff,%rcx
    99ef:	ff ff 1f 
    99f2:	4c 89 c6             	mov    %r8,%rsi
    99f5:	45 31 f6             	xor    %r14d,%r14d
    99f8:	48 b8 00 00 00 00 00 	movabs $0x4000000000000,%rax
    99ff:	00 04 00 
    9a02:	49 21 ca             	and    %rcx,%r10
    9a05:	4c 89 c1             	mov    %r8,%rcx
    9a08:	48 c1 ee 03          	shr    $0x3,%rsi
    9a0c:	48 c1 e1 3d          	shl    $0x3d,%rcx
    9a10:	4c 09 d1             	or     %r10,%rcx
    9a13:	49 85 c0             	test   %rax,%r8
    9a16:	41 0f 94 c6          	sete   %r14b
    9a1a:	41 83 c6 02          	add    $0x2,%r14d
    9a1e:	66 90                	xchg   %ax,%ax
    9a20:	48 89 f0             	mov    %rsi,%rax
    9a23:	48 09 c8             	or     %rcx,%rax
    9a26:	0f 84 b2 0e 00 00    	je     a8de <__subtf3@@GCC_4.3.0+0x128e>
    9a2c:	48 0f ba ee 2f       	bts    $0x2f,%rsi
    9a31:	41 bb ff 7f 00 00    	mov    $0x7fff,%r11d
    9a37:	48 b8 ff ff ff ff ff 	movabs $0xffffffffffff,%rax
    9a3e:	ff 00 00 
    9a41:	48 89 f2             	mov    %rsi,%rdx
    9a44:	48 21 c2             	and    %rax,%rdx
    9a47:	e9 ec fe ff ff       	jmpq   9938 <__subtf3@@GCC_4.3.0+0x2e8>
    9a4c:	0f 1f 40 00          	nopl   0x0(%rax)
    9a50:	4c 89 c1             	mov    %r8,%rcx
    9a53:	48 09 d9             	or     %rbx,%rcx
    9a56:	0f 84 b6 fc ff ff    	je     9712 <__subtf3@@GCC_4.3.0+0xc2>
    9a5c:	45 0f b6 fe          	movzbl %r14b,%r15d
    9a60:	4d 39 f5             	cmp    %r14,%r13
    9a63:	0f 84 7f 02 00 00    	je     9ce8 <__subtf3@@GCC_4.3.0+0x698>
    9a69:	85 d2                	test   %edx,%edx
    9a6b:	0f 8e 2f ff ff ff    	jle    99a0 <__subtf3@@GCC_4.3.0+0x350>
    9a71:	49 0f ba e8 33       	bts    $0x33,%r8
    9a76:	45 31 f6             	xor    %r14d,%r14d
    9a79:	49 81 fb ff 7f 00 00 	cmp    $0x7fff,%r11
    9a80:	0f 85 d5 fc ff ff    	jne    975b <__subtf3@@GCC_4.3.0+0x10b>
    9a86:	48 09 c6             	or     %rax,%rsi
    9a89:	0f 84 a1 07 00 00    	je     a230 <__subtf3@@GCC_4.3.0+0xbe0>
    9a8f:	48 b9 ff ff ff ff ff 	movabs $0x1fffffffffffffff,%rcx
    9a96:	ff ff 1f 
    9a99:	49 89 c6             	mov    %rax,%r14
    9a9c:	49 21 c9             	and    %rcx,%r9
    9a9f:	49 c1 ee 32          	shr    $0x32,%r14
    9aa3:	48 89 c1             	mov    %rax,%rcx
    9aa6:	48 c1 e1 3d          	shl    $0x3d,%rcx
    9aaa:	49 83 f6 01          	xor    $0x1,%r14
    9aae:	48 c1 e8 03          	shr    $0x3,%rax
    9ab2:	41 83 e6 01          	and    $0x1,%r14d
    9ab6:	4c 09 c9             	or     %r9,%rcx
    9ab9:	48 89 c6             	mov    %rax,%rsi
    9abc:	e9 5f ff ff ff       	jmpq   9a20 <__subtf3@@GCC_4.3.0+0x3d0>
    9ac1:	0f 1f 80 00 00 00 00 	nopl   0x0(%rax)
    9ac8:	85 d2                	test   %edx,%edx
    9aca:	0f 8e 18 02 00 00    	jle    9ce8 <__subtf3@@GCC_4.3.0+0x698>
    9ad0:	4d 85 e4             	test   %r12,%r12
    9ad3:	0f 84 cf 00 00 00    	je     9ba8 <__subtf3@@GCC_4.3.0+0x558>
    9ad9:	49 0f ba e8 33       	bts    $0x33,%r8
    9ade:	45 31 f6             	xor    %r14d,%r14d
    9ae1:	49 81 fb ff 7f 00 00 	cmp    $0x7fff,%r11
    9ae8:	0f 84 8a 08 00 00    	je     a378 <__subtf3@@GCC_4.3.0+0xd28>
    9aee:	83 fa 74             	cmp    $0x74,%edx
    9af1:	0f 8f d1 04 00 00    	jg     9fc8 <__subtf3@@GCC_4.3.0+0x978>
    9af7:	83 fa 3f             	cmp    $0x3f,%edx
    9afa:	0f 8e f8 05 00 00    	jle    a0f8 <__subtf3@@GCC_4.3.0+0xaa8>
    9b00:	8d 4a c0             	lea    -0x40(%rdx),%ecx
    9b03:	4d 89 c2             	mov    %r8,%r10
    9b06:	49 d3 ea             	shr    %cl,%r10
    9b09:	83 fa 40             	cmp    $0x40,%edx
    9b0c:	74 0d                	je     9b1b <__subtf3@@GCC_4.3.0+0x4cb>
    9b0e:	b9 80 00 00 00       	mov    $0x80,%ecx
    9b13:	29 d1                	sub    %edx,%ecx
    9b15:	49 d3 e0             	shl    %cl,%r8
    9b18:	4c 09 c3             	or     %r8,%rbx
    9b1b:	45 31 c9             	xor    %r9d,%r9d
    9b1e:	48 85 db             	test   %rbx,%rbx
    9b21:	41 0f 95 c1          	setne  %r9b
    9b25:	45 31 c0             	xor    %r8d,%r8d
    9b28:	4d 09 d1             	or     %r10,%r9
    9b2b:	e9 a5 04 00 00       	jmpq   9fd5 <__subtf3@@GCC_4.3.0+0x985>
    9b30:	49 8d 4b 01          	lea    0x1(%r11),%rcx
    9b34:	f7 c1 fe 7f 00 00    	test   $0x7ffe,%ecx
    9b3a:	0f 85 f0 03 00 00    	jne    9f30 <__subtf3@@GCC_4.3.0+0x8e0>
    9b40:	4c 89 c5             	mov    %r8,%rbp
    9b43:	48 89 c1             	mov    %rax,%rcx
    9b46:	48 09 dd             	or     %rbx,%rbp
    9b49:	48 09 f1             	or     %rsi,%rcx
    9b4c:	4d 85 db             	test   %r11,%r11
    9b4f:	0f 85 63 06 00 00    	jne    a1b8 <__subtf3@@GCC_4.3.0+0xb68>
    9b55:	48 85 c9             	test   %rcx,%rcx
    9b58:	0f 84 02 07 00 00    	je     a260 <__subtf3@@GCC_4.3.0+0xc10>
    9b5e:	48 85 ed             	test   %rbp,%rbp
    9b61:	0f 84 19 07 00 00    	je     a280 <__subtf3@@GCC_4.3.0+0xc30>
    9b67:	48 89 c2             	mov    %rax,%rdx
    9b6a:	48 89 f1             	mov    %rsi,%rcx
    9b6d:	48 29 d9             	sub    %rbx,%rcx
    9b70:	4c 19 c2             	sbb    %r8,%rdx
    9b73:	48 0f ba e2 33       	bt     $0x33,%rdx
    9b78:	0f 83 eb 0b 00 00    	jae    a769 <__subtf3@@GCC_4.3.0+0x1119>
    9b7e:	48 29 f3             	sub    %rsi,%rbx
    9b81:	49 19 c0             	sbb    %rax,%r8
    9b84:	44 89 ff             	mov    %r15d,%edi
    9b87:	4c 89 c5             	mov    %r8,%rbp
    9b8a:	4c 89 c0             	mov    %r8,%rax
    9b8d:	48 89 de             	mov    %rbx,%rsi
    9b90:	48 09 dd             	or     %rbx,%rbp
    9b93:	83 e7 01             	and    $0x1,%edi
    9b96:	4d 89 fd             	mov    %r15,%r13
    9b99:	41 be 02 00 00 00    	mov    $0x2,%r14d
    9b9f:	e9 ac fc ff ff       	jmpq   9850 <__subtf3@@GCC_4.3.0+0x200>
    9ba4:	0f 1f 40 00          	nopl   0x0(%rax)
    9ba8:	4c 89 c1             	mov    %r8,%rcx
    9bab:	48 09 d9             	or     %rbx,%rcx
    9bae:	0f 84 94 02 00 00    	je     9e48 <__subtf3@@GCC_4.3.0+0x7f8>
    9bb4:	83 ea 01             	sub    $0x1,%edx
    9bb7:	0f 84 43 06 00 00    	je     a200 <__subtf3@@GCC_4.3.0+0xbb0>
    9bbd:	41 be 02 00 00 00    	mov    $0x2,%r14d
    9bc3:	49 81 fb ff 7f 00 00 	cmp    $0x7fff,%r11
    9bca:	0f 85 1e ff ff ff    	jne    9aee <__subtf3@@GCC_4.3.0+0x49e>
    9bd0:	48 89 c3             	mov    %rax,%rbx
    9bd3:	48 09 f3             	or     %rsi,%rbx
    9bd6:	0f 84 a8 02 00 00    	je     9e84 <__subtf3@@GCC_4.3.0+0x834>
    9bdc:	48 ba 00 00 00 00 00 	movabs $0x4000000000000,%rdx
    9be3:	00 04 00 
    9be6:	45 31 f6             	xor    %r14d,%r14d
    9be9:	48 85 d0             	test   %rdx,%rax
    9bec:	41 0f 94 c6          	sete   %r14b
    9bf0:	41 83 c6 02          	add    $0x2,%r14d
    9bf4:	41 bb ff 7f 00 00    	mov    $0x7fff,%r11d
    9bfa:	48 c1 ee 03          	shr    $0x3,%rsi
    9bfe:	48 89 c2             	mov    %rax,%rdx
    9c01:	48 c1 e8 03          	shr    $0x3,%rax
    9c05:	48 89 f1             	mov    %rsi,%rcx
    9c08:	48 c1 e2 3d          	shl    $0x3d,%rdx
    9c0c:	48 89 c6             	mov    %rax,%rsi
    9c0f:	48 09 d1             	or     %rdx,%rcx
    9c12:	49 81 fb ff 7f 00 00 	cmp    $0x7fff,%r11
    9c19:	0f 84 01 fe ff ff    	je     9a20 <__subtf3@@GCC_4.3.0+0x3d0>
    9c1f:	48 89 c5             	mov    %rax,%rbp
    9c22:	eb 31                	jmp    9c55 <__subtf3@@GCC_4.3.0+0x605>
    9c24:	0f 1f 40 00          	nopl   0x0(%rax)
    9c28:	49 29 d3             	sub    %rdx,%r11
    9c2b:	48 0f ba f0 33       	btr    $0x33,%rax
    9c30:	4c 89 ce             	mov    %r9,%rsi
    9c33:	48 89 f5             	mov    %rsi,%rbp
    9c36:	48 09 c5             	or     %rax,%rbp
    9c39:	4d 85 db             	test   %r11,%r11
    9c3c:	0f 84 0e fc ff ff    	je     9850 <__subtf3@@GCC_4.3.0+0x200>
    9c42:	48 89 f5             	mov    %rsi,%rbp
    9c45:	31 d2                	xor    %edx,%edx
    9c47:	83 e5 07             	and    $0x7,%ebp
    9c4a:	e9 61 fc ff ff       	jmpq   98b0 <__subtf3@@GCC_4.3.0+0x260>
    9c4f:	90                   	nop
    9c50:	31 c9                	xor    %ecx,%ecx
    9c52:	45 31 db             	xor    %r11d,%r11d
    9c55:	48 ba ff ff ff ff ff 	movabs $0xffffffffffff,%rdx
    9c5c:	ff 00 00 
    9c5f:	66 41 81 e3 ff 7f    	and    $0x7fff,%r11w
    9c65:	48 21 ea             	and    %rbp,%rdx
    9c68:	e9 cb fc ff ff       	jmpq   9938 <__subtf3@@GCC_4.3.0+0x2e8>
    9c6d:	0f 1f 00             	nopl   (%rax)
    9c70:	8b 4c 24 2c          	mov    0x2c(%rsp),%ecx
    9c74:	81 e1 00 60 00 00    	and    $0x6000,%ecx
    9c7a:	0f 84 00 02 00 00    	je     9e80 <__subtf3@@GCC_4.3.0+0x830>
    9c80:	81 f9 00 40 00 00    	cmp    $0x4000,%ecx
    9c86:	0f 84 7c 06 00 00    	je     a308 <__subtf3@@GCC_4.3.0+0xcb8>
    9c8c:	41 83 ce 28          	or     $0x28,%r14d
    9c90:	81 f9 00 20 00 00    	cmp    $0x2000,%ecx
    9c96:	75 0a                	jne    9ca2 <__subtf3@@GCC_4.3.0+0x652>
    9c98:	41 83 e5 01          	and    $0x1,%r13d
    9c9c:	0f 85 e2 01 00 00    	jne    9e84 <__subtf3@@GCC_4.3.0+0x834>
    9ca2:	48 c7 c1 ff ff ff ff 	mov    $0xffffffffffffffff,%rcx
    9ca9:	41 bb fe 7f 00 00    	mov    $0x7ffe,%r11d
    9caf:	48 bd ff ff ff ff ff 	movabs $0x1fffffffffffffff,%rbp
    9cb6:	ff ff 1f 
    9cb9:	eb 9a                	jmp    9c55 <__subtf3@@GCC_4.3.0+0x605>
    9cbb:	0f 1f 44 00 00       	nopl   0x0(%rax,%rax,1)
    9cc0:	48 0f bd ce          	bsr    %rsi,%rcx
    9cc4:	48 83 f1 3f          	xor    $0x3f,%rcx
    9cc8:	44 8d 41 34          	lea    0x34(%rcx),%r8d
    9ccc:	41 83 f8 3f          	cmp    $0x3f,%r8d
    9cd0:	0f 8e fd fa ff ff    	jle    97d3 <__subtf3@@GCC_4.3.0+0x183>
    9cd6:	83 e9 0c             	sub    $0xc,%ecx
    9cd9:	48 89 f0             	mov    %rsi,%rax
    9cdc:	48 d3 e0             	shl    %cl,%rax
    9cdf:	e9 0f fb ff ff       	jmpq   97f3 <__subtf3@@GCC_4.3.0+0x1a3>
    9ce4:	0f 1f 40 00          	nopl   0x0(%rax)
    9ce8:	85 d2                	test   %edx,%edx
    9cea:	0f 84 e0 01 00 00    	je     9ed0 <__subtf3@@GCC_4.3.0+0x880>
    9cf0:	4d 85 db             	test   %r11,%r11
    9cf3:	0f 84 cf 03 00 00    	je     a0c8 <__subtf3@@GCC_4.3.0+0xa78>
    9cf9:	49 81 fc ff 7f 00 00 	cmp    $0x7fff,%r12
    9d00:	0f 84 80 0a 00 00    	je     a786 <__subtf3@@GCC_4.3.0+0x1136>
    9d06:	f7 da                	neg    %edx
    9d08:	48 0f ba e8 33       	bts    $0x33,%rax
    9d0d:	45 31 f6             	xor    %r14d,%r14d
    9d10:	83 fa 74             	cmp    $0x74,%edx
    9d13:	0f 8f a7 06 00 00    	jg     a3c0 <__subtf3@@GCC_4.3.0+0xd70>
    9d19:	83 fa 3f             	cmp    $0x3f,%edx
    9d1c:	0f 8f a2 08 00 00    	jg     a5c4 <__subtf3@@GCC_4.3.0+0xf74>
    9d22:	41 ba 40 00 00 00    	mov    $0x40,%r10d
    9d28:	49 89 c1             	mov    %rax,%r9
    9d2b:	49 89 f7             	mov    %rsi,%r15
    9d2e:	41 29 d2             	sub    %edx,%r10d
    9d31:	44 89 d1             	mov    %r10d,%ecx
    9d34:	49 d3 e1             	shl    %cl,%r9
    9d37:	89 d1                	mov    %edx,%ecx
    9d39:	49 d3 ef             	shr    %cl,%r15
    9d3c:	44 89 d1             	mov    %r10d,%ecx
    9d3f:	48 d3 e6             	shl    %cl,%rsi
    9d42:	4d 09 f9             	or     %r15,%r9
    9d45:	31 c9                	xor    %ecx,%ecx
    9d47:	48 85 f6             	test   %rsi,%rsi
    9d4a:	0f 95 c1             	setne  %cl
    9d4d:	49 09 c9             	or     %rcx,%r9
    9d50:	89 d1                	mov    %edx,%ecx
    9d52:	48 d3 e8             	shr    %cl,%rax
    9d55:	48 89 de             	mov    %rbx,%rsi
    9d58:	4d 89 e3             	mov    %r12,%r11
    9d5b:	4c 01 ce             	add    %r9,%rsi
    9d5e:	49 11 c0             	adc    %rax,%r8
    9d61:	4c 89 c0             	mov    %r8,%rax
    9d64:	e9 72 02 00 00       	jmpq   9fdb <__subtf3@@GCC_4.3.0+0x98b>
    9d69:	0f 1f 80 00 00 00 00 	nopl   0x0(%rax)
    9d70:	8b 4c 24 2c          	mov    0x2c(%rsp),%ecx
    9d74:	41 83 ce 28          	or     $0x28,%r14d
    9d78:	89 c8                	mov    %ecx,%eax
    9d7a:	25 00 60 00 00       	and    $0x6000,%eax
    9d7f:	0f 84 ff 00 00 00    	je     9e84 <__subtf3@@GCC_4.3.0+0x834>
    9d85:	48 85 ed             	test   %rbp,%rbp
    9d88:	75 0b                	jne    9d95 <__subtf3@@GCC_4.3.0+0x745>
    9d8a:	3d 00 40 00 00       	cmp    $0x4000,%eax
    9d8f:	0f 84 19 0b 00 00    	je     a8ae <__subtf3@@GCC_4.3.0+0x125e>
    9d95:	3d 00 20 00 00       	cmp    $0x2000,%eax
    9d9a:	0f 94 c2             	sete   %dl
    9d9d:	40 20 ea             	and    %bpl,%dl
    9da0:	0f 85 0f 0b 00 00    	jne    a8b5 <__subtf3@@GCC_4.3.0+0x1265>
    9da6:	3d 00 20 00 00       	cmp    $0x2000,%eax
    9dab:	74 39                	je     9de6 <__subtf3@@GCC_4.3.0+0x796>
    9dad:	3d 00 40 00 00       	cmp    $0x4000,%eax
    9db2:	0f 85 bc fe ff ff    	jne    9c74 <__subtf3@@GCC_4.3.0+0x624>
    9db8:	48 c7 c0 ff ff ff ff 	mov    $0xffffffffffffffff,%rax
    9dbf:	48 c7 c6 ff ff ff ff 	mov    $0xffffffffffffffff,%rsi
    9dc6:	41 bb fe 7f 00 00    	mov    $0x7ffe,%r11d
    9dcc:	31 d2                	xor    %edx,%edx
    9dce:	66 90                	xchg   %ax,%ax
    9dd0:	4d 85 ed             	test   %r13,%r13
    9dd3:	0f 85 0e fb ff ff    	jne    98e7 <__subtf3@@GCC_4.3.0+0x297>
    9dd9:	48 83 c6 08          	add    $0x8,%rsi
    9ddd:	48 83 d0 00          	adc    $0x0,%rax
    9de1:	e9 01 fb ff ff       	jmpq   98e7 <__subtf3@@GCC_4.3.0+0x297>
    9de6:	48 c7 c0 ff ff ff ff 	mov    $0xffffffffffffffff,%rax
    9ded:	48 c7 c6 ff ff ff ff 	mov    $0xffffffffffffffff,%rsi
    9df4:	41 bb fe 7f 00 00    	mov    $0x7ffe,%r11d
    9dfa:	31 d2                	xor    %edx,%edx
    9dfc:	0f 1f 40 00          	nopl   0x0(%rax)
    9e00:	4d 85 ed             	test   %r13,%r13
    9e03:	75 d4                	jne    9dd9 <__subtf3@@GCC_4.3.0+0x789>
    9e05:	e9 dd fa ff ff       	jmpq   98e7 <__subtf3@@GCC_4.3.0+0x297>
    9e0a:	66 0f 1f 44 00 00    	nopw   0x0(%rax,%rax,1)
    9e10:	48 89 f1             	mov    %rsi,%rcx
    9e13:	83 e1 0f             	and    $0xf,%ecx
    9e16:	48 83 f9 04          	cmp    $0x4,%rcx
    9e1a:	0f 84 c7 fa ff ff    	je     98e7 <__subtf3@@GCC_4.3.0+0x297>
    9e20:	48 83 c6 04          	add    $0x4,%rsi
    9e24:	48 83 d0 00          	adc    $0x0,%rax
    9e28:	e9 ba fa ff ff       	jmpq   98e7 <__subtf3@@GCC_4.3.0+0x297>
    9e2d:	0f 1f 00             	nopl   (%rax)
    9e30:	45 31 c9             	xor    %r9d,%r9d
    9e33:	49 09 d8             	or     %rbx,%r8
    9e36:	41 0f 95 c1          	setne  %r9b
    9e3a:	45 31 c0             	xor    %r8d,%r8d
    9e3d:	e9 5e f9 ff ff       	jmpq   97a0 <__subtf3@@GCC_4.3.0+0x150>
    9e42:	66 0f 1f 44 00 00    	nopw   0x0(%rax,%rax,1)
    9e48:	45 31 f6             	xor    %r14d,%r14d
    9e4b:	49 81 fb ff 7f 00 00 	cmp    $0x7fff,%r11
    9e52:	0f 85 db fd ff ff    	jne    9c33 <__subtf3@@GCC_4.3.0+0x5e3>
    9e58:	48 89 c3             	mov    %rax,%rbx
    9e5b:	48 09 f3             	or     %rsi,%rbx
    9e5e:	0f 84 04 05 00 00    	je     a368 <__subtf3@@GCC_4.3.0+0xd18>
    9e64:	49 89 c6             	mov    %rax,%r14
    9e67:	49 c1 ee 32          	shr    $0x32,%r14
    9e6b:	49 83 f6 01          	xor    $0x1,%r14
    9e6f:	41 83 e6 01          	and    $0x1,%r14d
    9e73:	e9 7c fd ff ff       	jmpq   9bf4 <__subtf3@@GCC_4.3.0+0x5a4>
    9e78:	0f 1f 84 00 00 00 00 	nopl   0x0(%rax,%rax,1)
    9e7f:	00 
    9e80:	41 83 ce 28          	or     $0x28,%r14d
    9e84:	48 c1 e7 3f          	shl    $0x3f,%rdi
    9e88:	48 c7 04 24 00 00 00 	movq   $0x0,(%rsp)
    9e8f:	00 
    9e90:	48 b8 00 00 00 00 00 	movabs $0x7fff000000000000,%rax
    9e97:	00 ff 7f 
    9e9a:	48 09 c7             	or     %rax,%rdi
    9e9d:	48 89 7c 24 08       	mov    %rdi,0x8(%rsp)
    9ea2:	66 0f 6f 04 24       	movdqa (%rsp),%xmm0
    9ea7:	44 89 f7             	mov    %r14d,%edi
    9eaa:	0f 29 04 24          	movaps %xmm0,(%rsp)
    9eae:	e8 4d cd ff ff       	callq  6c00 <__udivmodti4@@GCC_3.0+0x1d0>
    9eb3:	66 0f 6f 04 24       	movdqa (%rsp),%xmm0
    9eb8:	48 83 c4 38          	add    $0x38,%rsp
    9ebc:	5b                   	pop    %rbx
    9ebd:	5d                   	pop    %rbp
    9ebe:	41 5c                	pop    %r12
    9ec0:	41 5d                	pop    %r13
    9ec2:	41 5e                	pop    %r14
    9ec4:	41 5f                	pop    %r15
    9ec6:	c3                   	retq   
    9ec7:	66 0f 1f 84 00 00 00 	nopw   0x0(%rax,%rax,1)
    9ece:	00 00 
    9ed0:	49 8d 4b 01          	lea    0x1(%r11),%rcx
    9ed4:	f7 c1 fe 7f 00 00    	test   $0x7ffe,%ecx
    9eda:	0f 85 50 02 00 00    	jne    a130 <__subtf3@@GCC_4.3.0+0xae0>
    9ee0:	48 89 c1             	mov    %rax,%rcx
    9ee3:	48 09 f1             	or     %rsi,%rcx
    9ee6:	4d 85 db             	test   %r11,%r11
    9ee9:	0f 85 21 05 00 00    	jne    a410 <__subtf3@@GCC_4.3.0+0xdc0>
    9eef:	4c 89 c5             	mov    %r8,%rbp
    9ef2:	48 09 dd             	or     %rbx,%rbp
    9ef5:	48 85 c9             	test   %rcx,%rcx
    9ef8:	0f 84 5a 06 00 00    	je     a558 <__subtf3@@GCC_4.3.0+0xf08>
    9efe:	48 85 ed             	test   %rbp,%rbp
    9f01:	0f 84 79 03 00 00    	je     a280 <__subtf3@@GCC_4.3.0+0xc30>
    9f07:	48 01 de             	add    %rbx,%rsi
    9f0a:	4c 11 c0             	adc    %r8,%rax
    9f0d:	48 0f ba e0 33       	bt     $0x33,%rax
    9f12:	0f 82 d5 08 00 00    	jb     a7ed <__subtf3@@GCC_4.3.0+0x119d>
    9f18:	48 89 c5             	mov    %rax,%rbp
    9f1b:	41 be 02 00 00 00    	mov    $0x2,%r14d
    9f21:	48 09 f5             	or     %rsi,%rbp
    9f24:	e9 27 f9 ff ff       	jmpq   9850 <__subtf3@@GCC_4.3.0+0x200>
    9f29:	0f 1f 80 00 00 00 00 	nopl   0x0(%rax)
    9f30:	49 89 c1             	mov    %rax,%r9
    9f33:	48 89 f2             	mov    %rsi,%rdx
    9f36:	48 29 da             	sub    %rbx,%rdx
    9f39:	4d 19 c1             	sbb    %r8,%r9
    9f3c:	49 0f ba e1 33       	bt     $0x33,%r9
    9f41:	0f 82 29 02 00 00    	jb     a170 <__subtf3@@GCC_4.3.0+0xb20>
    9f47:	4c 89 c8             	mov    %r9,%rax
    9f4a:	48 09 d0             	or     %rdx,%rax
    9f4d:	0f 84 8d 03 00 00    	je     a2e0 <__subtf3@@GCC_4.3.0+0xc90>
    9f53:	48 89 d6             	mov    %rdx,%rsi
    9f56:	45 31 f6             	xor    %r14d,%r14d
    9f59:	e9 60 f8 ff ff       	jmpq   97be <__subtf3@@GCC_4.3.0+0x16e>
    9f5e:	66 90                	xchg   %ax,%ax
    9f60:	49 81 fc ff 7f 00 00 	cmp    $0x7fff,%r12
    9f67:	0f 84 63 05 00 00    	je     a4d0 <__subtf3@@GCC_4.3.0+0xe80>
    9f6d:	f7 da                	neg    %edx
    9f6f:	48 0f ba e8 33       	bts    $0x33,%rax
    9f74:	45 31 f6             	xor    %r14d,%r14d
    9f77:	83 fa 74             	cmp    $0x74,%edx
    9f7a:	0f 8f 20 01 00 00    	jg     a0a0 <__subtf3@@GCC_4.3.0+0xa50>
    9f80:	83 fa 3f             	cmp    $0x3f,%edx
    9f83:	0f 8f 4f 04 00 00    	jg     a3d8 <__subtf3@@GCC_4.3.0+0xd88>
    9f89:	41 ba 40 00 00 00    	mov    $0x40,%r10d
    9f8f:	49 89 c1             	mov    %rax,%r9
    9f92:	49 89 f3             	mov    %rsi,%r11
    9f95:	41 29 d2             	sub    %edx,%r10d
    9f98:	44 89 d1             	mov    %r10d,%ecx
    9f9b:	49 d3 e1             	shl    %cl,%r9
    9f9e:	89 d1                	mov    %edx,%ecx
    9fa0:	49 d3 eb             	shr    %cl,%r11
    9fa3:	44 89 d1             	mov    %r10d,%ecx
    9fa6:	48 d3 e6             	shl    %cl,%rsi
    9fa9:	4d 09 d9             	or     %r11,%r9
    9fac:	31 c9                	xor    %ecx,%ecx
    9fae:	48 85 f6             	test   %rsi,%rsi
    9fb1:	0f 95 c1             	setne  %cl
    9fb4:	49 09 c9             	or     %rcx,%r9
    9fb7:	89 d1                	mov    %edx,%ecx
    9fb9:	48 d3 e8             	shr    %cl,%rax
    9fbc:	e9 eb 00 00 00       	jmpq   a0ac <__subtf3@@GCC_4.3.0+0xa5c>
    9fc1:	0f 1f 80 00 00 00 00 	nopl   0x0(%rax)
    9fc8:	45 31 c9             	xor    %r9d,%r9d
    9fcb:	49 09 d8             	or     %rbx,%r8
    9fce:	41 0f 95 c1          	setne  %r9b
    9fd2:	45 31 c0             	xor    %r8d,%r8d
    9fd5:	4c 01 ce             	add    %r9,%rsi
    9fd8:	4c 11 c0             	adc    %r8,%rax
    9fdb:	48 0f ba e0 33       	bt     $0x33,%rax
    9fe0:	0f 83 4d fc ff ff    	jae    9c33 <__subtf3@@GCC_4.3.0+0x5e3>
    9fe6:	49 83 c3 01          	add    $0x1,%r11
    9fea:	49 81 fb ff 7f 00 00 	cmp    $0x7fff,%r11
    9ff1:	0f 84 79 fd ff ff    	je     9d70 <__subtf3@@GCC_4.3.0+0x720>
    9ff7:	48 89 f2             	mov    %rsi,%rdx
    9ffa:	83 e6 01             	and    $0x1,%esi
    9ffd:	48 89 c1             	mov    %rax,%rcx
    a000:	48 c1 e0 3f          	shl    $0x3f,%rax
    a004:	48 d1 ea             	shr    %rdx
    a007:	48 0f ba f1 33       	btr    $0x33,%rcx
    a00c:	48 09 f2             	or     %rsi,%rdx
    a00f:	48 09 d0             	or     %rdx,%rax
    a012:	83 e2 07             	and    $0x7,%edx
    a015:	48 89 c6             	mov    %rax,%rsi
    a018:	48 89 c8             	mov    %rcx,%rax
    a01b:	48 89 d5             	mov    %rdx,%rbp
    a01e:	31 d2                	xor    %edx,%edx
    a020:	48 d1 e8             	shr    %rax
    a023:	e9 88 f8 ff ff       	jmpq   98b0 <__subtf3@@GCC_4.3.0+0x260>
    a028:	0f 1f 84 00 00 00 00 	nopl   0x0(%rax,%rax,1)
    a02f:	00 
    a030:	83 e9 3f             	sub    $0x3f,%ecx
    a033:	48 89 c2             	mov    %rax,%rdx
    a036:	48 d3 ea             	shr    %cl,%rdx
    a039:	41 83 f8 40          	cmp    $0x40,%r8d
    a03d:	74 0e                	je     a04d <__subtf3@@GCC_4.3.0+0x9fd>
    a03f:	b9 80 00 00 00       	mov    $0x80,%ecx
    a044:	44 29 c1             	sub    %r8d,%ecx
    a047:	48 d3 e0             	shl    %cl,%rax
    a04a:	49 09 c1             	or     %rax,%r9
    a04d:	31 ed                	xor    %ebp,%ebp
    a04f:	4d 85 c9             	test   %r9,%r9
    a052:	40 0f 95 c5          	setne  %bpl
    a056:	31 c0                	xor    %eax,%eax
    a058:	48 09 d5             	or     %rdx,%rbp
    a05b:	48 89 ee             	mov    %rbp,%rsi
    a05e:	e9 ed f7 ff ff       	jmpq   9850 <__subtf3@@GCC_4.3.0+0x200>
    a063:	0f 1f 44 00 00       	nopl   0x0(%rax,%rax,1)
    a068:	8d 4a c0             	lea    -0x40(%rdx),%ecx
    a06b:	4d 89 c2             	mov    %r8,%r10
    a06e:	49 d3 ea             	shr    %cl,%r10
    a071:	83 fa 40             	cmp    $0x40,%edx
    a074:	74 0d                	je     a083 <__subtf3@@GCC_4.3.0+0xa33>
    a076:	b9 80 00 00 00       	mov    $0x80,%ecx
    a07b:	29 d1                	sub    %edx,%ecx
    a07d:	49 d3 e0             	shl    %cl,%r8
    a080:	4c 09 c3             	or     %r8,%rbx
    a083:	45 31 c9             	xor    %r9d,%r9d
    a086:	48 85 db             	test   %rbx,%rbx
    a089:	41 0f 95 c1          	setne  %r9b
    a08d:	45 31 c0             	xor    %r8d,%r8d
    a090:	4d 09 d1             	or     %r10,%r9
    a093:	e9 08 f7 ff ff       	jmpq   97a0 <__subtf3@@GCC_4.3.0+0x150>
    a098:	0f 1f 84 00 00 00 00 	nopl   0x0(%rax,%rax,1)
    a09f:	00 
    a0a0:	45 31 c9             	xor    %r9d,%r9d
    a0a3:	48 09 f0             	or     %rsi,%rax
    a0a6:	41 0f 95 c1          	setne  %r9b
    a0aa:	31 c0                	xor    %eax,%eax
    a0ac:	48 89 de             	mov    %rbx,%rsi
    a0af:	4d 89 e3             	mov    %r12,%r11
    a0b2:	4d 89 fd             	mov    %r15,%r13
    a0b5:	4c 29 ce             	sub    %r9,%rsi
    a0b8:	49 19 c0             	sbb    %rax,%r8
    a0bb:	4c 89 c0             	mov    %r8,%rax
    a0be:	e9 e3 f6 ff ff       	jmpq   97a6 <__subtf3@@GCC_4.3.0+0x156>
    a0c3:	0f 1f 44 00 00       	nopl   0x0(%rax,%rax,1)
    a0c8:	48 89 c1             	mov    %rax,%rcx
    a0cb:	48 09 f1             	or     %rsi,%rcx
    a0ce:	0f 84 64 04 00 00    	je     a538 <__subtf3@@GCC_4.3.0+0xee8>
    a0d4:	83 f2 ff             	xor    $0xffffffff,%edx
    a0d7:	0f 84 01 06 00 00    	je     a6de <__subtf3@@GCC_4.3.0+0x108e>
    a0dd:	41 be 02 00 00 00    	mov    $0x2,%r14d
    a0e3:	49 81 fc ff 7f 00 00 	cmp    $0x7fff,%r12
    a0ea:	0f 85 20 fc ff ff    	jne    9d10 <__subtf3@@GCC_4.3.0+0x6c0>
    a0f0:	e9 ea f8 ff ff       	jmpq   99df <__subtf3@@GCC_4.3.0+0x38f>
    a0f5:	0f 1f 00             	nopl   (%rax)
    a0f8:	41 ba 40 00 00 00    	mov    $0x40,%r10d
    a0fe:	4d 89 c1             	mov    %r8,%r9
    a101:	49 89 df             	mov    %rbx,%r15
    a104:	41 29 d2             	sub    %edx,%r10d
    a107:	44 89 d1             	mov    %r10d,%ecx
    a10a:	49 d3 e1             	shl    %cl,%r9
    a10d:	89 d1                	mov    %edx,%ecx
    a10f:	49 d3 ef             	shr    %cl,%r15
    a112:	44 89 d1             	mov    %r10d,%ecx
    a115:	48 d3 e3             	shl    %cl,%rbx
    a118:	4d 09 f9             	or     %r15,%r9
    a11b:	31 c9                	xor    %ecx,%ecx
    a11d:	48 85 db             	test   %rbx,%rbx
    a120:	0f 95 c1             	setne  %cl
    a123:	49 09 c9             	or     %rcx,%r9
    a126:	89 d1                	mov    %edx,%ecx
    a128:	49 d3 e8             	shr    %cl,%r8
    a12b:	e9 a5 fe ff ff       	jmpq   9fd5 <__subtf3@@GCC_4.3.0+0x985>
    a130:	48 01 de             	add    %rbx,%rsi
    a133:	4c 11 c0             	adc    %r8,%rax
    a136:	48 81 f9 ff 7f 00 00 	cmp    $0x7fff,%rcx
    a13d:	0f 84 b0 04 00 00    	je     a5f3 <__subtf3@@GCC_4.3.0+0xfa3>
    a143:	48 89 f5             	mov    %rsi,%rbp
    a146:	83 e6 01             	and    $0x1,%esi
    a149:	49 89 cb             	mov    %rcx,%r11
    a14c:	45 31 f6             	xor    %r14d,%r14d
    a14f:	48 d1 ed             	shr    %rbp
    a152:	48 09 f5             	or     %rsi,%rbp
    a155:	48 89 c6             	mov    %rax,%rsi
    a158:	48 d1 e8             	shr    %rax
    a15b:	48 c1 e6 3f          	shl    $0x3f,%rsi
    a15f:	48 09 ee             	or     %rbp,%rsi
    a162:	83 e5 07             	and    $0x7,%ebp
    a165:	e9 46 f7 ff ff       	jmpq   98b0 <__subtf3@@GCC_4.3.0+0x260>
    a16a:	66 0f 1f 44 00 00    	nopw   0x0(%rax,%rax,1)
    a170:	44 89 ff             	mov    %r15d,%edi
    a173:	4d 89 fd             	mov    %r15,%r13
    a176:	45 31 f6             	xor    %r14d,%r14d
    a179:	48 29 f3             	sub    %rsi,%rbx
    a17c:	49 19 c0             	sbb    %rax,%r8
    a17f:	83 e7 01             	and    $0x1,%edi
    a182:	4d 89 c1             	mov    %r8,%r9
    a185:	48 89 de             	mov    %rbx,%rsi
    a188:	e9 31 f6 ff ff       	jmpq   97be <__subtf3@@GCC_4.3.0+0x16e>
    a18d:	0f 1f 00             	nopl   (%rax)
    a190:	4c 89 c0             	mov    %r8,%rax
    a193:	49 81 fc ff 7f 00 00 	cmp    $0x7fff,%r12
    a19a:	0f 84 70 03 00 00    	je     a510 <__subtf3@@GCC_4.3.0+0xec0>
    a1a0:	48 89 de             	mov    %rbx,%rsi
    a1a3:	4d 89 e3             	mov    %r12,%r11
    a1a6:	4d 89 fd             	mov    %r15,%r13
    a1a9:	45 31 f6             	xor    %r14d,%r14d
    a1ac:	e9 82 fa ff ff       	jmpq   9c33 <__subtf3@@GCC_4.3.0+0x5e3>
    a1b1:	0f 1f 80 00 00 00 00 	nopl   0x0(%rax)
    a1b8:	49 81 fb ff 7f 00 00 	cmp    $0x7fff,%r11
    a1bf:	0f 84 ac 03 00 00    	je     a571 <__subtf3@@GCC_4.3.0+0xf21>
    a1c5:	49 81 fc ff 7f 00 00 	cmp    $0x7fff,%r12
    a1cc:	0f 84 79 04 00 00    	je     a64b <__subtf3@@GCC_4.3.0+0xffb>
    a1d2:	48 85 c9             	test   %rcx,%rcx
    a1d5:	0f 85 ba 03 00 00    	jne    a595 <__subtf3@@GCC_4.3.0+0xf45>
    a1db:	48 85 ed             	test   %rbp,%rbp
    a1de:	0f 85 dd 05 00 00    	jne    a7c1 <__subtf3@@GCC_4.3.0+0x1171>
    a1e4:	31 c9                	xor    %ecx,%ecx
    a1e6:	bf 01 00 00 00       	mov    $0x1,%edi
    a1eb:	48 be 00 00 00 00 00 	movabs $0x800000000000,%rsi
    a1f2:	80 00 00 
    a1f5:	41 be 01 00 00 00    	mov    $0x1,%r14d
    a1fb:	e9 2c f8 ff ff       	jmpq   9a2c <__subtf3@@GCC_4.3.0+0x3dc>
    a200:	41 be 02 00 00 00    	mov    $0x2,%r14d
    a206:	48 01 de             	add    %rbx,%rsi
    a209:	4c 11 c0             	adc    %r8,%rax
    a20c:	e9 ca fd ff ff       	jmpq   9fdb <__subtf3@@GCC_4.3.0+0x98b>
    a211:	0f 1f 80 00 00 00 00 	nopl   0x0(%rax)
    a218:	41 be 02 00 00 00    	mov    $0x2,%r14d
    a21e:	48 29 de             	sub    %rbx,%rsi
    a221:	4c 19 c0             	sbb    %r8,%rax
    a224:	e9 7d f5 ff ff       	jmpq   97a6 <__subtf3@@GCC_4.3.0+0x156>
    a229:	0f 1f 80 00 00 00 00 	nopl   0x0(%rax)
    a230:	48 c1 e7 3f          	shl    $0x3f,%rdi
    a234:	48 c7 04 24 00 00 00 	movq   $0x0,(%rsp)
    a23b:	00 
    a23c:	48 b8 00 00 00 00 00 	movabs $0x7fff000000000000,%rax
    a243:	00 ff 7f 
    a246:	48 09 c7             	or     %rax,%rdi
    a249:	48 89 7c 24 08       	mov    %rdi,0x8(%rsp)
    a24e:	66 0f 6f 04 24       	movdqa (%rsp),%xmm0
    a253:	e9 32 f7 ff ff       	jmpq   998a <__subtf3@@GCC_4.3.0+0x33a>
    a258:	0f 1f 84 00 00 00 00 	nopl   0x0(%rax,%rax,1)
    a25f:	00 
    a260:	48 85 ed             	test   %rbp,%rbp
    a263:	74 7b                	je     a2e0 <__subtf3@@GCC_4.3.0+0xc90>
    a265:	44 89 ff             	mov    %r15d,%edi
    a268:	31 ed                	xor    %ebp,%ebp
    a26a:	4c 89 c0             	mov    %r8,%rax
    a26d:	48 89 de             	mov    %rbx,%rsi
    a270:	83 e7 01             	and    $0x1,%edi
    a273:	4d 89 fd             	mov    %r15,%r13
    a276:	66 2e 0f 1f 84 00 00 	nopw   %cs:0x0(%rax,%rax,1)
    a27d:	00 00 00 
    a280:	41 be 02 00 00 00    	mov    $0x2,%r14d
    a286:	e9 d4 f5 ff ff       	jmpq   985f <__subtf3@@GCC_4.3.0+0x20f>
    a28b:	0f 1f 44 00 00       	nopl   0x0(%rax,%rax,1)
    a290:	4d 85 ed             	test   %r13,%r13
    a293:	0f 84 09 f6 ff ff    	je     98a2 <__subtf3@@GCC_4.3.0+0x252>
    a299:	49 83 c0 08          	add    $0x8,%r8
    a29d:	48 83 d2 00          	adc    $0x0,%rdx
    a2a1:	e9 fc f5 ff ff       	jmpq   98a2 <__subtf3@@GCC_4.3.0+0x252>
    a2a6:	66 2e 0f 1f 84 00 00 	nopw   %cs:0x0(%rax,%rax,1)
    a2ad:	00 00 00 
    a2b0:	4c 89 c1             	mov    %r8,%rcx
    a2b3:	83 e1 0f             	and    $0xf,%ecx
    a2b6:	48 83 f9 04          	cmp    $0x4,%rcx
    a2ba:	0f 84 e2 f5 ff ff    	je     98a2 <__subtf3@@GCC_4.3.0+0x252>
    a2c0:	49 83 c0 04          	add    $0x4,%r8
    a2c4:	48 83 d2 00          	adc    $0x0,%rdx
    a2c8:	e9 d5 f5 ff ff       	jmpq   98a2 <__subtf3@@GCC_4.3.0+0x252>
    a2cd:	0f 1f 00             	nopl   (%rax)
    a2d0:	4d 85 ed             	test   %r13,%r13
    a2d3:	0f 85 c9 f5 ff ff    	jne    98a2 <__subtf3@@GCC_4.3.0+0x252>
    a2d9:	eb be                	jmp    a299 <__subtf3@@GCC_4.3.0+0xc49>
    a2db:	0f 1f 44 00 00       	nopl   0x0(%rax,%rax,1)
    a2e0:	8b 44 24 2c          	mov    0x2c(%rsp),%eax
    a2e4:	25 00 60 00 00       	and    $0x6000,%eax
    a2e9:	3d 00 20 00 00       	cmp    $0x2000,%eax
    a2ee:	40 0f 94 c7          	sete   %dil
    a2f2:	45 31 f6             	xor    %r14d,%r14d
    a2f5:	31 c9                	xor    %ecx,%ecx
    a2f7:	31 ed                	xor    %ebp,%ebp
    a2f9:	45 31 db             	xor    %r11d,%r11d
    a2fc:	e9 54 f9 ff ff       	jmpq   9c55 <__subtf3@@GCC_4.3.0+0x605>
    a301:	0f 1f 80 00 00 00 00 	nopl   0x0(%rax)
    a308:	4d 85 ed             	test   %r13,%r13
    a30b:	0f 84 6f fb ff ff    	je     9e80 <__subtf3@@GCC_4.3.0+0x830>
    a311:	41 83 ce 28          	or     $0x28,%r14d
    a315:	e9 88 f9 ff ff       	jmpq   9ca2 <__subtf3@@GCC_4.3.0+0x652>
    a31a:	66 0f 1f 44 00 00    	nopw   0x0(%rax,%rax,1)
    a320:	48 09 c6             	or     %rax,%rsi
    a323:	0f 84 5b fb ff ff    	je     9e84 <__subtf3@@GCC_4.3.0+0x834>
    a329:	48 b9 ff ff ff ff ff 	movabs $0x1fffffffffffffff,%rcx
    a330:	ff ff 1f 
    a333:	48 89 c6             	mov    %rax,%rsi
    a336:	45 31 f6             	xor    %r14d,%r14d
    a339:	48 ba 00 00 00 00 00 	movabs $0x4000000000000,%rdx
    a340:	00 04 00 
    a343:	49 21 c9             	and    %rcx,%r9
    a346:	48 89 c1             	mov    %rax,%rcx
    a349:	48 c1 ee 03          	shr    $0x3,%rsi
    a34d:	48 c1 e1 3d          	shl    $0x3d,%rcx
    a351:	4c 09 c9             	or     %r9,%rcx
    a354:	48 85 d0             	test   %rdx,%rax
    a357:	41 0f 94 c6          	sete   %r14b
    a35b:	41 83 c6 02          	add    $0x2,%r14d
    a35f:	e9 bc f6 ff ff       	jmpq   9a20 <__subtf3@@GCC_4.3.0+0x3d0>
    a364:	0f 1f 40 00          	nopl   0x0(%rax)
    a368:	31 c9                	xor    %ecx,%ecx
    a36a:	31 f6                	xor    %esi,%esi
    a36c:	45 31 f6             	xor    %r14d,%r14d
    a36f:	e9 ac f6 ff ff       	jmpq   9a20 <__subtf3@@GCC_4.3.0+0x3d0>
    a374:	0f 1f 40 00          	nopl   0x0(%rax)
    a378:	48 89 c3             	mov    %rax,%rbx
    a37b:	48 09 f3             	or     %rsi,%rbx
    a37e:	0f 84 ac fe ff ff    	je     a230 <__subtf3@@GCC_4.3.0+0xbe0>
    a384:	48 0f ba e0 32       	bt     $0x32,%rax
    a389:	0f 82 65 f8 ff ff    	jb     9bf4 <__subtf3@@GCC_4.3.0+0x5a4>
    a38f:	48 b9 ff ff ff ff ff 	movabs $0x1fffffffffffffff,%rcx
    a396:	ff ff 1f 
    a399:	41 be 01 00 00 00    	mov    $0x1,%r14d
    a39f:	49 21 c9             	and    %rcx,%r9
    a3a2:	48 89 c1             	mov    %rax,%rcx
    a3a5:	48 c1 e8 03          	shr    $0x3,%rax
    a3a9:	48 c1 e1 3d          	shl    $0x3d,%rcx
    a3ad:	48 89 c6             	mov    %rax,%rsi
    a3b0:	4c 09 c9             	or     %r9,%rcx
    a3b3:	e9 68 f6 ff ff       	jmpq   9a20 <__subtf3@@GCC_4.3.0+0x3d0>
    a3b8:	0f 1f 84 00 00 00 00 	nopl   0x0(%rax,%rax,1)
    a3bf:	00 
    a3c0:	45 31 c9             	xor    %r9d,%r9d
    a3c3:	48 09 f0             	or     %rsi,%rax
    a3c6:	41 0f 95 c1          	setne  %r9b
    a3ca:	31 c0                	xor    %eax,%eax
    a3cc:	e9 84 f9 ff ff       	jmpq   9d55 <__subtf3@@GCC_4.3.0+0x705>
    a3d1:	0f 1f 80 00 00 00 00 	nopl   0x0(%rax)
    a3d8:	8d 4a c0             	lea    -0x40(%rdx),%ecx
    a3db:	49 89 c2             	mov    %rax,%r10
    a3de:	49 d3 ea             	shr    %cl,%r10
    a3e1:	83 fa 40             	cmp    $0x40,%edx
    a3e4:	74 0d                	je     a3f3 <__subtf3@@GCC_4.3.0+0xda3>
    a3e6:	b9 80 00 00 00       	mov    $0x80,%ecx
    a3eb:	29 d1                	sub    %edx,%ecx
    a3ed:	48 d3 e0             	shl    %cl,%rax
    a3f0:	48 09 c6             	or     %rax,%rsi
    a3f3:	45 31 c9             	xor    %r9d,%r9d
    a3f6:	48 85 f6             	test   %rsi,%rsi
    a3f9:	41 0f 95 c1          	setne  %r9b
    a3fd:	31 c0                	xor    %eax,%eax
    a3ff:	4d 09 d1             	or     %r10,%r9
    a402:	e9 a5 fc ff ff       	jmpq   a0ac <__subtf3@@GCC_4.3.0+0xa5c>
    a407:	66 0f 1f 84 00 00 00 	nopw   0x0(%rax,%rax,1)
    a40e:	00 00 
    a410:	49 81 fb ff 7f 00 00 	cmp    $0x7fff,%r11
    a417:	0f 84 db 02 00 00    	je     a6f8 <__subtf3@@GCC_4.3.0+0x10a8>
    a41d:	49 81 fc ff 7f 00 00 	cmp    $0x7fff,%r12
    a424:	0f 84 ec 03 00 00    	je     a816 <__subtf3@@GCC_4.3.0+0x11c6>
    a42a:	48 85 c9             	test   %rcx,%rcx
    a42d:	0f 84 10 03 00 00    	je     a743 <__subtf3@@GCC_4.3.0+0x10f3>
    a433:	4c 09 c3             	or     %r8,%rbx
    a436:	0f 84 ec 03 00 00    	je     a828 <__subtf3@@GCC_4.3.0+0x11d8>
    a43c:	48 b9 ff ff ff ff ff 	movabs $0x1fffffffffffffff,%rcx
    a443:	ff ff 1f 
    a446:	48 89 c6             	mov    %rax,%rsi
    a449:	48 c1 e8 03          	shr    $0x3,%rax
    a44d:	48 c1 e6 3d          	shl    $0x3d,%rsi
    a451:	49 21 c9             	and    %rcx,%r9
    a454:	49 09 f1             	or     %rsi,%r9
    a457:	4c 89 c6             	mov    %r8,%rsi
    a45a:	48 c1 ee 03          	shr    $0x3,%rsi
    a45e:	48 39 f0             	cmp    %rsi,%rax
    a461:	77 1f                	ja     a482 <__subtf3@@GCC_4.3.0+0xe32>
    a463:	4c 21 d1             	and    %r10,%rcx
    a466:	49 c1 e0 3d          	shl    $0x3d,%r8
    a46a:	4c 09 c1             	or     %r8,%rcx
    a46d:	48 39 f0             	cmp    %rsi,%rax
    a470:	0f 85 57 04 00 00    	jne    a8cd <__subtf3@@GCC_4.3.0+0x127d>
    a476:	48 89 f0             	mov    %rsi,%rax
    a479:	49 39 c9             	cmp    %rcx,%r9
    a47c:	0f 86 4b 04 00 00    	jbe    a8cd <__subtf3@@GCC_4.3.0+0x127d>
    a482:	48 be ff ff ff ff ff 	movabs $0x1fffffffffffffff,%rsi
    a489:	ff ff 1f 
    a48c:	4c 89 c9             	mov    %r9,%rcx
    a48f:	41 89 d6             	mov    %edx,%r14d
    a492:	48 c1 e9 3d          	shr    $0x3d,%rcx
    a496:	49 21 f1             	and    %rsi,%r9
    a499:	48 89 c6             	mov    %rax,%rsi
    a49c:	48 c1 e1 3d          	shl    $0x3d,%rcx
    a4a0:	4c 09 c9             	or     %r9,%rcx
    a4a3:	e9 78 f5 ff ff       	jmpq   9a20 <__subtf3@@GCC_4.3.0+0x3d0>
    a4a8:	0f 1f 84 00 00 00 00 	nopl   0x0(%rax,%rax,1)
    a4af:	00 
    a4b0:	48 29 f3             	sub    %rsi,%rbx
    a4b3:	49 19 c0             	sbb    %rax,%r8
    a4b6:	4d 89 e3             	mov    %r12,%r11
    a4b9:	4c 89 c0             	mov    %r8,%rax
    a4bc:	48 89 de             	mov    %rbx,%rsi
    a4bf:	4d 89 fd             	mov    %r15,%r13
    a4c2:	41 be 02 00 00 00    	mov    $0x2,%r14d
    a4c8:	e9 d9 f2 ff ff       	jmpq   97a6 <__subtf3@@GCC_4.3.0+0x156>
    a4cd:	0f 1f 00             	nopl   (%rax)
    a4d0:	4c 09 c3             	or     %r8,%rbx
    a4d3:	0f 84 57 fd ff ff    	je     a230 <__subtf3@@GCC_4.3.0+0xbe0>
    a4d9:	48 b9 ff ff ff ff ff 	movabs $0x1fffffffffffffff,%rcx
    a4e0:	ff ff 1f 
    a4e3:	4d 89 c6             	mov    %r8,%r14
    a4e6:	4c 89 c0             	mov    %r8,%rax
    a4e9:	4c 89 c6             	mov    %r8,%rsi
    a4ec:	49 c1 ee 32          	shr    $0x32,%r14
    a4f0:	49 21 ca             	and    %rcx,%r10
    a4f3:	48 c1 e0 3d          	shl    $0x3d,%rax
    a4f7:	49 83 f6 01          	xor    $0x1,%r14
    a4fb:	4c 09 d0             	or     %r10,%rax
    a4fe:	48 c1 ee 03          	shr    $0x3,%rsi
    a502:	41 83 e6 01          	and    $0x1,%r14d
    a506:	48 89 c1             	mov    %rax,%rcx
    a509:	e9 12 f5 ff ff       	jmpq   9a20 <__subtf3@@GCC_4.3.0+0x3d0>
    a50e:	66 90                	xchg   %ax,%ax
    a510:	48 09 d8             	or     %rbx,%rax
    a513:	0f 84 4f fe ff ff    	je     a368 <__subtf3@@GCC_4.3.0+0xd18>
    a519:	4d 89 c6             	mov    %r8,%r14
    a51c:	4c 89 c0             	mov    %r8,%rax
    a51f:	48 89 de             	mov    %rbx,%rsi
    a522:	49 c1 ee 32          	shr    $0x32,%r14
    a526:	49 83 f6 01          	xor    $0x1,%r14
    a52a:	41 83 e6 01          	and    $0x1,%r14d
    a52e:	e9 c1 f6 ff ff       	jmpq   9bf4 <__subtf3@@GCC_4.3.0+0x5a4>
    a533:	0f 1f 44 00 00       	nopl   0x0(%rax,%rax,1)
    a538:	4c 89 c0             	mov    %r8,%rax
    a53b:	49 81 fc ff 7f 00 00 	cmp    $0x7fff,%r12
    a542:	74 cc                	je     a510 <__subtf3@@GCC_4.3.0+0xec0>
    a544:	48 89 de             	mov    %rbx,%rsi
    a547:	4d 89 e3             	mov    %r12,%r11
    a54a:	45 31 f6             	xor    %r14d,%r14d
    a54d:	e9 e1 f6 ff ff       	jmpq   9c33 <__subtf3@@GCC_4.3.0+0x5e3>
    a552:	66 0f 1f 44 00 00    	nopw   0x0(%rax,%rax,1)
    a558:	45 31 f6             	xor    %r14d,%r14d
    a55b:	48 85 ed             	test   %rbp,%rbp
    a55e:	0f 84 f1 f6 ff ff    	je     9c55 <__subtf3@@GCC_4.3.0+0x605>
    a564:	31 ed                	xor    %ebp,%ebp
    a566:	4c 89 c0             	mov    %r8,%rax
    a569:	48 89 de             	mov    %rbx,%rsi
    a56c:	e9 0f fd ff ff       	jmpq   a280 <__subtf3@@GCC_4.3.0+0xc30>
    a571:	48 85 c9             	test   %rcx,%rcx
    a574:	0f 84 c4 00 00 00    	je     a63e <__subtf3@@GCC_4.3.0+0xfee>
    a57a:	48 89 c2             	mov    %rax,%rdx
    a57d:	48 c1 ea 32          	shr    $0x32,%rdx
    a581:	48 83 f2 01          	xor    $0x1,%rdx
    a585:	83 e2 01             	and    $0x1,%edx
    a588:	49 81 fc ff 7f 00 00 	cmp    $0x7fff,%r12
    a58f:	0f 84 b6 00 00 00    	je     a64b <__subtf3@@GCC_4.3.0+0xffb>
    a595:	48 89 c1             	mov    %rax,%rcx
    a598:	48 c1 e8 03          	shr    $0x3,%rax
    a59c:	48 c1 e1 3d          	shl    $0x3d,%rcx
    a5a0:	48 89 c6             	mov    %rax,%rsi
    a5a3:	48 85 ed             	test   %rbp,%rbp
    a5a6:	0f 85 d4 00 00 00    	jne    a680 <__subtf3@@GCC_4.3.0+0x1030>
    a5ac:	48 b8 ff ff ff ff ff 	movabs $0x1fffffffffffffff,%rax
    a5b3:	ff ff 1f 
    a5b6:	41 89 d6             	mov    %edx,%r14d
    a5b9:	49 21 c1             	and    %rax,%r9
    a5bc:	4c 09 c9             	or     %r9,%rcx
    a5bf:	e9 5c f4 ff ff       	jmpq   9a20 <__subtf3@@GCC_4.3.0+0x3d0>
    a5c4:	8d 4a c0             	lea    -0x40(%rdx),%ecx
    a5c7:	49 89 c2             	mov    %rax,%r10
    a5ca:	49 d3 ea             	shr    %cl,%r10
    a5cd:	83 fa 40             	cmp    $0x40,%edx
    a5d0:	74 0d                	je     a5df <__subtf3@@GCC_4.3.0+0xf8f>
    a5d2:	b9 80 00 00 00       	mov    $0x80,%ecx
    a5d7:	29 d1                	sub    %edx,%ecx
    a5d9:	48 d3 e0             	shl    %cl,%rax
    a5dc:	48 09 c6             	or     %rax,%rsi
    a5df:	45 31 c9             	xor    %r9d,%r9d
    a5e2:	48 85 f6             	test   %rsi,%rsi
    a5e5:	41 0f 95 c1          	setne  %r9b
    a5e9:	31 c0                	xor    %eax,%eax
    a5eb:	4d 09 d1             	or     %r10,%r9
    a5ee:	e9 62 f7 ff ff       	jmpq   9d55 <__subtf3@@GCC_4.3.0+0x705>
    a5f3:	8b 4c 24 2c          	mov    0x2c(%rsp),%ecx
    a5f7:	89 c8                	mov    %ecx,%eax
    a5f9:	25 00 60 00 00       	and    $0x6000,%eax
    a5fe:	0f 84 07 02 00 00    	je     a80b <__subtf3@@GCC_4.3.0+0x11bb>
    a604:	3d 00 40 00 00       	cmp    $0x4000,%eax
    a609:	0f 94 c2             	sete   %dl
    a60c:	83 f5 01             	xor    $0x1,%ebp
    a60f:	40 84 ea             	test   %bpl,%dl
    a612:	0f 85 f1 01 00 00    	jne    a809 <__subtf3@@GCC_4.3.0+0x11b9>
    a618:	41 be 28 00 00 00    	mov    $0x28,%r14d
    a61e:	3d 00 20 00 00       	cmp    $0x2000,%eax
    a623:	0f 85 84 f7 ff ff    	jne    9dad <__subtf3@@GCC_4.3.0+0x75d>
    a629:	31 ff                	xor    %edi,%edi
    a62b:	4d 85 ed             	test   %r13,%r13
    a62e:	0f 84 40 f6 ff ff    	je     9c74 <__subtf3@@GCC_4.3.0+0x624>
    a634:	bf 01 00 00 00       	mov    $0x1,%edi
    a639:	e9 46 f8 ff ff       	jmpq   9e84 <__subtf3@@GCC_4.3.0+0x834>
    a63e:	49 81 fc ff 7f 00 00 	cmp    $0x7fff,%r12
    a645:	0f 85 90 fb ff ff    	jne    a1db <__subtf3@@GCC_4.3.0+0xb8b>
    a64b:	48 85 ed             	test   %rbp,%rbp
    a64e:	0f 84 fd 01 00 00    	je     a851 <__subtf3@@GCC_4.3.0+0x1201>
    a654:	48 be 00 00 00 00 00 	movabs $0x4000000000000,%rsi
    a65b:	00 04 00 
    a65e:	49 85 f0             	test   %rsi,%r8
    a661:	be 01 00 00 00       	mov    $0x1,%esi
    a666:	0f 44 d6             	cmove  %esi,%edx
    a669:	48 85 c9             	test   %rcx,%rcx
    a66c:	0f 84 4f 01 00 00    	je     a7c1 <__subtf3@@GCC_4.3.0+0x1171>
    a672:	48 89 c1             	mov    %rax,%rcx
    a675:	48 c1 e8 03          	shr    $0x3,%rax
    a679:	48 c1 e1 3d          	shl    $0x3d,%rcx
    a67d:	48 89 c6             	mov    %rax,%rsi
    a680:	48 b8 ff ff ff ff ff 	movabs $0x1fffffffffffffff,%rax
    a687:	ff ff 1f 
    a68a:	49 21 c1             	and    %rax,%r9
    a68d:	4c 09 c9             	or     %r9,%rcx
    a690:	4d 89 c1             	mov    %r8,%r9
    a693:	49 c1 e9 03          	shr    $0x3,%r9
    a697:	49 39 f1             	cmp    %rsi,%r9
    a69a:	72 1f                	jb     a6bb <__subtf3@@GCC_4.3.0+0x106b>
    a69c:	4c 21 d0             	and    %r10,%rax
    a69f:	49 c1 e0 3d          	shl    $0x3d,%r8
    a6a3:	4c 09 c0             	or     %r8,%rax
    a6a6:	49 39 f1             	cmp    %rsi,%r9
    a6a9:	0f 85 0d 02 00 00    	jne    a8bc <__subtf3@@GCC_4.3.0+0x126c>
    a6af:	4c 89 ce             	mov    %r9,%rsi
    a6b2:	48 39 c1             	cmp    %rax,%rcx
    a6b5:	0f 86 01 02 00 00    	jbe    a8bc <__subtf3@@GCC_4.3.0+0x126c>
    a6bb:	49 b8 ff ff ff ff ff 	movabs $0x1fffffffffffffff,%r8
    a6c2:	ff ff 1f 
    a6c5:	48 89 c8             	mov    %rcx,%rax
    a6c8:	41 89 d6             	mov    %edx,%r14d
    a6cb:	48 c1 e8 3d          	shr    $0x3d,%rax
    a6cf:	4c 21 c1             	and    %r8,%rcx
    a6d2:	48 c1 e0 3d          	shl    $0x3d,%rax
    a6d6:	48 09 c1             	or     %rax,%rcx
    a6d9:	e9 42 f3 ff ff       	jmpq   9a20 <__subtf3@@GCC_4.3.0+0x3d0>
    a6de:	48 01 f3             	add    %rsi,%rbx
    a6e1:	49 11 c0             	adc    %rax,%r8
    a6e4:	4d 89 e3             	mov    %r12,%r11
    a6e7:	4c 89 c0             	mov    %r8,%rax
    a6ea:	48 89 de             	mov    %rbx,%rsi
    a6ed:	41 be 02 00 00 00    	mov    $0x2,%r14d
    a6f3:	e9 e3 f8 ff ff       	jmpq   9fdb <__subtf3@@GCC_4.3.0+0x98b>
    a6f8:	48 85 c9             	test   %rcx,%rcx
    a6fb:	0f 84 92 01 00 00    	je     a893 <__subtf3@@GCC_4.3.0+0x1243>
    a701:	48 89 c2             	mov    %rax,%rdx
    a704:	48 c1 ea 32          	shr    $0x32,%rdx
    a708:	48 83 f2 01          	xor    $0x1,%rdx
    a70c:	83 e2 01             	and    $0x1,%edx
    a70f:	49 81 fc ff 7f 00 00 	cmp    $0x7fff,%r12
    a716:	0f 85 17 fd ff ff    	jne    a433 <__subtf3@@GCC_4.3.0+0xde3>
    a71c:	4c 09 c3             	or     %r8,%rbx
    a71f:	0f 84 03 01 00 00    	je     a828 <__subtf3@@GCC_4.3.0+0x11d8>
    a725:	48 be 00 00 00 00 00 	movabs $0x4000000000000,%rsi
    a72c:	00 04 00 
    a72f:	49 85 f0             	test   %rsi,%r8
    a732:	be 01 00 00 00       	mov    $0x1,%esi
    a737:	0f 44 d6             	cmove  %esi,%edx
    a73a:	48 85 c9             	test   %rcx,%rcx
    a73d:	0f 85 f9 fc ff ff    	jne    a43c <__subtf3@@GCC_4.3.0+0xdec>
    a743:	48 b9 ff ff ff ff ff 	movabs $0x1fffffffffffffff,%rcx
    a74a:	ff ff 1f 
    a74d:	4c 89 c6             	mov    %r8,%rsi
    a750:	41 89 d6             	mov    %edx,%r14d
    a753:	49 21 ca             	and    %rcx,%r10
    a756:	4c 89 c1             	mov    %r8,%rcx
    a759:	48 c1 ee 03          	shr    $0x3,%rsi
    a75d:	48 c1 e1 3d          	shl    $0x3d,%rcx
    a761:	4c 09 d1             	or     %r10,%rcx
    a764:	e9 b7 f2 ff ff       	jmpq   9a20 <__subtf3@@GCC_4.3.0+0x3d0>
    a769:	48 89 d5             	mov    %rdx,%rbp
    a76c:	48 09 cd             	or     %rcx,%rbp
    a76f:	0f 84 ff 00 00 00    	je     a874 <__subtf3@@GCC_4.3.0+0x1224>
    a775:	48 89 cd             	mov    %rcx,%rbp
    a778:	48 89 d0             	mov    %rdx,%rax
    a77b:	48 89 ce             	mov    %rcx,%rsi
    a77e:	83 e5 07             	and    $0x7,%ebp
    a781:	e9 fa fa ff ff       	jmpq   a280 <__subtf3@@GCC_4.3.0+0xc30>
    a786:	4c 09 c3             	or     %r8,%rbx
    a789:	0f 84 a1 fa ff ff    	je     a230 <__subtf3@@GCC_4.3.0+0xbe0>
    a78f:	48 b9 ff ff ff ff ff 	movabs $0x1fffffffffffffff,%rcx
    a796:	ff ff 1f 
    a799:	4d 89 c6             	mov    %r8,%r14
    a79c:	4c 89 c6             	mov    %r8,%rsi
    a79f:	49 c1 ee 32          	shr    $0x32,%r14
    a7a3:	49 21 ca             	and    %rcx,%r10
    a7a6:	4c 89 c1             	mov    %r8,%rcx
    a7a9:	48 c1 ee 03          	shr    $0x3,%rsi
    a7ad:	49 83 f6 01          	xor    $0x1,%r14
    a7b1:	48 c1 e1 3d          	shl    $0x3d,%rcx
    a7b5:	41 83 e6 01          	and    $0x1,%r14d
    a7b9:	4c 09 d1             	or     %r10,%rcx
    a7bc:	e9 5f f2 ff ff       	jmpq   9a20 <__subtf3@@GCC_4.3.0+0x3d0>
    a7c1:	48 b9 ff ff ff ff ff 	movabs $0x1fffffffffffffff,%rcx
    a7c8:	ff ff 1f 
    a7cb:	4c 89 c6             	mov    %r8,%rsi
    a7ce:	44 89 ff             	mov    %r15d,%edi
    a7d1:	41 89 d6             	mov    %edx,%r14d
    a7d4:	49 21 ca             	and    %rcx,%r10
    a7d7:	4c 89 c1             	mov    %r8,%rcx
    a7da:	48 c1 ee 03          	shr    $0x3,%rsi
    a7de:	83 e7 01             	and    $0x1,%edi
    a7e1:	48 c1 e1 3d          	shl    $0x3d,%rcx
    a7e5:	4c 09 d1             	or     %r10,%rcx
    a7e8:	e9 33 f2 ff ff       	jmpq   9a20 <__subtf3@@GCC_4.3.0+0x3d0>
    a7ed:	48 89 f5             	mov    %rsi,%rbp
    a7f0:	48 0f ba f0 33       	btr    $0x33,%rax
    a7f5:	41 bb 01 00 00 00    	mov    $0x1,%r11d
    a7fb:	41 be 02 00 00 00    	mov    $0x2,%r14d
    a801:	83 e5 07             	and    $0x7,%ebp
    a804:	e9 a7 f0 ff ff       	jmpq   98b0 <__subtf3@@GCC_4.3.0+0x260>
    a809:	31 ff                	xor    %edi,%edi
    a80b:	41 be 28 00 00 00    	mov    $0x28,%r14d
    a811:	e9 6e f6 ff ff       	jmpq   9e84 <__subtf3@@GCC_4.3.0+0x834>
    a816:	4c 09 c3             	or     %r8,%rbx
    a819:	0f 85 06 ff ff ff    	jne    a725 <__subtf3@@GCC_4.3.0+0x10d5>
    a81f:	48 85 c9             	test   %rcx,%rcx
    a822:	0f 84 1b ff ff ff    	je     a743 <__subtf3@@GCC_4.3.0+0x10f3>
    a828:	48 b9 ff ff ff ff ff 	movabs $0x1fffffffffffffff,%rcx
    a82f:	ff ff 1f 
    a832:	48 89 c6             	mov    %rax,%rsi
    a835:	41 89 d6             	mov    %edx,%r14d
    a838:	48 c1 e8 03          	shr    $0x3,%rax
    a83c:	49 21 c9             	and    %rcx,%r9
    a83f:	48 c1 e6 3d          	shl    $0x3d,%rsi
    a843:	4c 09 ce             	or     %r9,%rsi
    a846:	48 89 f1             	mov    %rsi,%rcx
    a849:	48 89 c6             	mov    %rax,%rsi
    a84c:	e9 cf f1 ff ff       	jmpq   9a20 <__subtf3@@GCC_4.3.0+0x3d0>
    a851:	48 85 c9             	test   %rcx,%rcx
    a854:	0f 85 3b fd ff ff    	jne    a595 <__subtf3@@GCC_4.3.0+0xf45>
    a85a:	bf 01 00 00 00       	mov    $0x1,%edi
    a85f:	41 be 01 00 00 00    	mov    $0x1,%r14d
    a865:	48 be 00 00 00 00 00 	movabs $0x800000000000,%rsi
    a86c:	80 00 00 
    a86f:	e9 b8 f1 ff ff       	jmpq   9a2c <__subtf3@@GCC_4.3.0+0x3dc>
    a874:	8b 44 24 2c          	mov    0x2c(%rsp),%eax
    a878:	41 be 02 00 00 00    	mov    $0x2,%r14d
    a87e:	25 00 60 00 00       	and    $0x6000,%eax
    a883:	3d 00 20 00 00       	cmp    $0x2000,%eax
    a888:	40 0f 94 c7          	sete   %dil
    a88c:	31 c9                	xor    %ecx,%ecx
    a88e:	e9 c2 f3 ff ff       	jmpq   9c55 <__subtf3@@GCC_4.3.0+0x605>
    a893:	49 81 fc ff 7f 00 00 	cmp    $0x7fff,%r12
    a89a:	0f 85 a3 fe ff ff    	jne    a743 <__subtf3@@GCC_4.3.0+0x10f3>
    a8a0:	4c 09 c3             	or     %r8,%rbx
    a8a3:	0f 85 7c fe ff ff    	jne    a725 <__subtf3@@GCC_4.3.0+0x10d5>
    a8a9:	e9 95 fe ff ff       	jmpq   a743 <__subtf3@@GCC_4.3.0+0x10f3>
    a8ae:	31 ff                	xor    %edi,%edi
    a8b0:	e9 cf f5 ff ff       	jmpq   9e84 <__subtf3@@GCC_4.3.0+0x834>
    a8b5:	89 d7                	mov    %edx,%edi
    a8b7:	e9 c8 f5 ff ff       	jmpq   9e84 <__subtf3@@GCC_4.3.0+0x834>
    a8bc:	44 89 ff             	mov    %r15d,%edi
    a8bf:	4c 89 ce             	mov    %r9,%rsi
    a8c2:	48 89 c1             	mov    %rax,%rcx
    a8c5:	83 e7 01             	and    $0x1,%edi
    a8c8:	e9 ee fd ff ff       	jmpq   a6bb <__subtf3@@GCC_4.3.0+0x106b>
    a8cd:	44 89 ff             	mov    %r15d,%edi
    a8d0:	48 89 f0             	mov    %rsi,%rax
    a8d3:	49 89 c9             	mov    %rcx,%r9
    a8d6:	83 e7 01             	and    $0x1,%edi
    a8d9:	e9 a4 fb ff ff       	jmpq   a482 <__subtf3@@GCC_4.3.0+0xe32>
    a8de:	31 c9                	xor    %ecx,%ecx
    a8e0:	41 bb ff 7f 00 00    	mov    $0x7fff,%r11d
    a8e6:	31 d2                	xor    %edx,%edx
    a8e8:	e9 4b f0 ff ff       	jmpq   9938 <__subtf3@@GCC_4.3.0+0x2e8>
    a8ed:	b9 01 00 00 00       	mov    $0x1,%ecx
    a8f2:	48 c1 e1 33          	shl    $0x33,%rcx
    a8f6:	48 21 c1             	and    %rax,%rcx
    a8f9:	85 d2                	test   %edx,%edx
    a8fb:	0f 84 fb ef ff ff    	je     98fc <__subtf3@@GCC_4.3.0+0x2ac>
    a901:	41 f6 c6 20          	test   $0x20,%r14b
    a905:	0f 85 ed ef ff ff    	jne    98f8 <__subtf3@@GCC_4.3.0+0x2a8>
    a90b:	f6 44 24 2d 08       	testb  $0x8,0x2d(%rsp)
    a910:	0f 85 e6 ef ff ff    	jne    98fc <__subtf3@@GCC_4.3.0+0x2ac>
    a916:	e9 dd ef ff ff       	jmpq   98f8 <__subtf3@@GCC_4.3.0+0x2a8>
    a91b:	0f 1f 44 00 00       	nopl   0x0(%rax,%rax,1)

000000000000a920 <__unordtf2@@GCC_4.3.0>:
    a920:	f3 0f 1e fa          	endbr64 
    a924:	48 83 ec 38          	sub    $0x38,%rsp
    a928:	0f 29 04 24          	movaps %xmm0,(%rsp)
    a92c:	0f 29 4c 24 10       	movaps %xmm1,0x10(%rsp)
    a931:	0f ae 5c 24 2c       	stmxcsr 0x2c(%rsp)
    a936:	48 8b 44 24 08       	mov    0x8(%rsp),%rax
    a93b:	48 8b 54 24 18       	mov    0x18(%rsp),%rdx
    a940:	48 be ff ff ff ff ff 	movabs $0xffffffffffff,%rsi
    a947:	ff 00 00 
    a94a:	48 8b 0c 24          	mov    (%rsp),%rcx
    a94e:	48 8b 7c 24 10       	mov    0x10(%rsp),%rdi
    a953:	49 89 c1             	mov    %rax,%r9
    a956:	48 c1 e8 30          	shr    $0x30,%rax
    a95a:	49 21 f1             	and    %rsi,%r9
    a95d:	48 21 d6             	and    %rdx,%rsi
    a960:	48 c1 ea 30          	shr    $0x30,%rdx
    a964:	81 e2 ff 7f 00 00    	and    $0x7fff,%edx
    a96a:	25 ff 7f 00 00       	and    $0x7fff,%eax
    a96f:	75 37                	jne    a9a8 <__unordtf2@@GCC_4.3.0+0x88>
    a971:	4d 89 ca             	mov    %r9,%r10
    a974:	49 09 ca             	or     %rcx,%r10
    a977:	0f 84 ab 00 00 00    	je     aa28 <__unordtf2@@GCC_4.3.0+0x108>
    a97d:	41 b8 02 00 00 00    	mov    $0x2,%r8d
    a983:	48 81 fa ff 7f 00 00 	cmp    $0x7fff,%rdx
    a98a:	0f 84 ad 00 00 00    	je     aa3d <__unordtf2@@GCC_4.3.0+0x11d>
    a990:	44 89 c7             	mov    %r8d,%edi
    a993:	48 89 04 24          	mov    %rax,(%rsp)
    a997:	e8 64 c2 ff ff       	callq  6c00 <__udivmodti4@@GCC_3.0+0x1d0>
    a99c:	48 8b 04 24          	mov    (%rsp),%rax
    a9a0:	48 83 c4 38          	add    $0x38,%rsp
    a9a4:	c3                   	retq   
    a9a5:	0f 1f 00             	nopl   (%rax)
    a9a8:	48 85 d2             	test   %rdx,%rdx
    a9ab:	75 4b                	jne    a9f8 <__unordtf2@@GCC_4.3.0+0xd8>
    a9ad:	49 89 f3             	mov    %rsi,%r11
    a9b0:	45 31 c0             	xor    %r8d,%r8d
    a9b3:	49 09 fb             	or     %rdi,%r11
    a9b6:	41 0f 95 c0          	setne  %r8b
    a9ba:	45 01 c0             	add    %r8d,%r8d
    a9bd:	48 3d ff 7f 00 00    	cmp    $0x7fff,%rax
    a9c3:	0f 85 b7 00 00 00    	jne    aa80 <__unordtf2@@GCC_4.3.0+0x160>
    a9c9:	4c 09 c9             	or     %r9,%rcx
    a9cc:	0f 84 ae 00 00 00    	je     aa80 <__unordtf2@@GCC_4.3.0+0x160>
    a9d2:	b8 01 00 00 00       	mov    $0x1,%eax
    a9d7:	48 c1 e0 2f          	shl    $0x2f,%rax
    a9db:	49 85 c1             	test   %rax,%r9
    a9de:	0f 85 bc 00 00 00    	jne    aaa0 <__unordtf2@@GCC_4.3.0+0x180>
    a9e4:	0f 1f 40 00          	nopl   0x0(%rax)
    a9e8:	41 83 c8 01          	or     $0x1,%r8d
    a9ec:	b8 01 00 00 00       	mov    $0x1,%eax
    a9f1:	eb 9d                	jmp    a990 <__unordtf2@@GCC_4.3.0+0x70>
    a9f3:	0f 1f 44 00 00       	nopl   0x0(%rax,%rax,1)
    a9f8:	48 3d ff 7f 00 00    	cmp    $0x7fff,%rax
    a9fe:	0f 85 8c 00 00 00    	jne    aa90 <__unordtf2@@GCC_4.3.0+0x170>
    aa04:	4c 89 c8             	mov    %r9,%rax
    aa07:	48 09 c8             	or     %rcx,%rax
    aa0a:	0f 85 a8 00 00 00    	jne    aab8 <__unordtf2@@GCC_4.3.0+0x198>
    aa10:	48 81 fa ff 7f 00 00 	cmp    $0x7fff,%rdx
    aa17:	0f 84 e3 00 00 00    	je     ab00 <__unordtf2@@GCC_4.3.0+0x1e0>
    aa1d:	31 c0                	xor    %eax,%eax
    aa1f:	e9 7c ff ff ff       	jmpq   a9a0 <__unordtf2@@GCC_4.3.0+0x80>
    aa24:	0f 1f 40 00          	nopl   0x0(%rax)
    aa28:	48 85 d2             	test   %rdx,%rdx
    aa2b:	74 43                	je     aa70 <__unordtf2@@GCC_4.3.0+0x150>
    aa2d:	48 81 fa ff 7f 00 00 	cmp    $0x7fff,%rdx
    aa34:	0f 85 66 ff ff ff    	jne    a9a0 <__unordtf2@@GCC_4.3.0+0x80>
    aa3a:	45 31 c0             	xor    %r8d,%r8d
    aa3d:	49 89 f3             	mov    %rsi,%r11
    aa40:	49 09 fb             	or     %rdi,%r11
    aa43:	74 3b                	je     aa80 <__unordtf2@@GCC_4.3.0+0x160>
    aa45:	48 3d ff 7f 00 00    	cmp    $0x7fff,%rax
    aa4b:	0f 84 be 00 00 00    	je     ab0f <__unordtf2@@GCC_4.3.0+0x1ef>
    aa51:	48 b8 00 00 00 00 00 	movabs $0x800000000000,%rax
    aa58:	80 00 00 
    aa5b:	48 85 c6             	test   %rax,%rsi
    aa5e:	74 88                	je     a9e8 <__unordtf2@@GCC_4.3.0+0xc8>
    aa60:	b8 01 00 00 00       	mov    $0x1,%eax
    aa65:	eb 1b                	jmp    aa82 <__unordtf2@@GCC_4.3.0+0x162>
    aa67:	66 0f 1f 84 00 00 00 	nopw   0x0(%rax,%rax,1)
    aa6e:	00 00 
    aa70:	48 09 fe             	or     %rdi,%rsi
    aa73:	75 6b                	jne    aae0 <__unordtf2@@GCC_4.3.0+0x1c0>
    aa75:	45 31 c0             	xor    %r8d,%r8d
    aa78:	0f 1f 84 00 00 00 00 	nopl   0x0(%rax,%rax,1)
    aa7f:	00 
    aa80:	31 c0                	xor    %eax,%eax
    aa82:	45 85 c0             	test   %r8d,%r8d
    aa85:	0f 85 05 ff ff ff    	jne    a990 <__unordtf2@@GCC_4.3.0+0x70>
    aa8b:	48 83 c4 38          	add    $0x38,%rsp
    aa8f:	c3                   	retq   
    aa90:	48 81 fa ff 7f 00 00 	cmp    $0x7fff,%rdx
    aa97:	74 a1                	je     aa3a <__unordtf2@@GCC_4.3.0+0x11a>
    aa99:	31 c0                	xor    %eax,%eax
    aa9b:	e9 00 ff ff ff       	jmpq   a9a0 <__unordtf2@@GCC_4.3.0+0x80>
    aaa0:	b8 01 00 00 00       	mov    $0x1,%eax
    aaa5:	48 81 fa ff 7f 00 00 	cmp    $0x7fff,%rdx
    aaac:	75 d4                	jne    aa82 <__unordtf2@@GCC_4.3.0+0x162>
    aaae:	48 09 f7             	or     %rsi,%rdi
    aab1:	74 ad                	je     aa60 <__unordtf2@@GCC_4.3.0+0x140>
    aab3:	eb 9c                	jmp    aa51 <__unordtf2@@GCC_4.3.0+0x131>
    aab5:	0f 1f 00             	nopl   (%rax)
    aab8:	48 b8 00 00 00 00 00 	movabs $0x800000000000,%rax
    aabf:	80 00 00 
    aac2:	49 85 c1             	test   %rax,%r9
    aac5:	74 29                	je     aaf0 <__unordtf2@@GCC_4.3.0+0x1d0>
    aac7:	48 81 fa ff 7f 00 00 	cmp    $0x7fff,%rdx
    aace:	74 50                	je     ab20 <__unordtf2@@GCC_4.3.0+0x200>
    aad0:	b8 01 00 00 00       	mov    $0x1,%eax
    aad5:	e9 c6 fe ff ff       	jmpq   a9a0 <__unordtf2@@GCC_4.3.0+0x80>
    aada:	66 0f 1f 44 00 00    	nopw   0x0(%rax,%rax,1)
    aae0:	41 b8 02 00 00 00    	mov    $0x2,%r8d
    aae6:	e9 a5 fe ff ff       	jmpq   a990 <__unordtf2@@GCC_4.3.0+0x70>
    aaeb:	0f 1f 44 00 00       	nopl   0x0(%rax,%rax,1)
    aaf0:	45 31 c0             	xor    %r8d,%r8d
    aaf3:	e9 f0 fe ff ff       	jmpq   a9e8 <__unordtf2@@GCC_4.3.0+0xc8>
    aaf8:	0f 1f 84 00 00 00 00 	nopl   0x0(%rax,%rax,1)
    aaff:	00 
    ab00:	48 89 f0             	mov    %rsi,%rax
    ab03:	45 31 c0             	xor    %r8d,%r8d
    ab06:	48 09 f8             	or     %rdi,%rax
    ab09:	0f 84 71 ff ff ff    	je     aa80 <__unordtf2@@GCC_4.3.0+0x160>
    ab0f:	4c 09 c9             	or     %r9,%rcx
    ab12:	74 9a                	je     aaae <__unordtf2@@GCC_4.3.0+0x18e>
    ab14:	e9 b9 fe ff ff       	jmpq   a9d2 <__unordtf2@@GCC_4.3.0+0xb2>
    ab19:	0f 1f 80 00 00 00 00 	nopl   0x0(%rax)
    ab20:	48 09 f7             	or     %rsi,%rdi
    ab23:	74 ab                	je     aad0 <__unordtf2@@GCC_4.3.0+0x1b0>
    ab25:	45 31 c0             	xor    %r8d,%r8d
    ab28:	e9 24 ff ff ff       	jmpq   aa51 <__unordtf2@@GCC_4.3.0+0x131>
    ab2d:	0f 1f 00             	nopl   (%rax)

000000000000ab30 <__fixtfsi@@GCC_4.3.0>:
    ab30:	f3 0f 1e fa          	endbr64 
    ab34:	41 54                	push   %r12
    ab36:	48 83 ec 20          	sub    $0x20,%rsp
    ab3a:	0f 29 04 24          	movaps %xmm0,(%rsp)
    ab3e:	0f ae 5c 24 1c       	stmxcsr 0x1c(%rsp)
    ab43:	48 8b 54 24 08       	mov    0x8(%rsp),%rdx
    ab48:	48 8b 34 24          	mov    (%rsp),%rsi
    ab4c:	48 b8 ff ff ff ff ff 	movabs $0xffffffffffff,%rax
    ab53:	ff 00 00 
    ab56:	48 21 d0             	and    %rdx,%rax
    ab59:	48 89 c1             	mov    %rax,%rcx
    ab5c:	48 89 d0             	mov    %rdx,%rax
    ab5f:	48 c1 ea 3f          	shr    $0x3f,%rdx
    ab63:	48 c1 e8 30          	shr    $0x30,%rax
    ab67:	89 c7                	mov    %eax,%edi
    ab69:	25 ff 7f 00 00       	and    $0x7fff,%eax
    ab6e:	66 81 e7 ff 7f       	and    $0x7fff,%di
    ab73:	48 3d fe 3f 00 00    	cmp    $0x3ffe,%rax
    ab79:	7f 25                	jg     aba0 <__fixtfsi@@GCC_4.3.0+0x70>
    ab7b:	45 31 e4             	xor    %r12d,%r12d
    ab7e:	48 85 c0             	test   %rax,%rax
    ab81:	74 55                	je     abd8 <__fixtfsi@@GCC_4.3.0+0xa8>
    ab83:	bf 20 00 00 00       	mov    $0x20,%edi
    ab88:	e8 73 c0 ff ff       	callq  6c00 <__udivmodti4@@GCC_3.0+0x1d0>
    ab8d:	48 83 c4 20          	add    $0x20,%rsp
    ab91:	44 89 e0             	mov    %r12d,%eax
    ab94:	41 5c                	pop    %r12
    ab96:	c3                   	retq   
    ab97:	66 0f 1f 84 00 00 00 	nopw   0x0(%rax,%rax,1)
    ab9e:	00 00 
    aba0:	48 3d 1d 40 00 00    	cmp    $0x401d,%rax
    aba6:	7e 40                	jle    abe8 <__fixtfsi@@GCC_4.3.0+0xb8>
    aba8:	44 8d a2 ff ff ff 7f 	lea    0x7fffffff(%rdx),%r12d
    abaf:	48 3d 1e 40 00 00    	cmp    $0x401e,%rax
    abb5:	75 79                	jne    ac30 <__fixtfsi@@GCC_4.3.0+0x100>
    abb7:	84 d2                	test   %dl,%dl
    abb9:	74 75                	je     ac30 <__fixtfsi@@GCC_4.3.0+0x100>
    abbb:	48 89 c8             	mov    %rcx,%rax
    abbe:	48 c1 e8 11          	shr    $0x11,%rax
    abc2:	75 6c                	jne    ac30 <__fixtfsi@@GCC_4.3.0+0x100>
    abc4:	48 89 c8             	mov    %rcx,%rax
    abc7:	48 c1 e0 2f          	shl    $0x2f,%rax
    abcb:	48 09 f0             	or     %rsi,%rax
    abce:	75 b3                	jne    ab83 <__fixtfsi@@GCC_4.3.0+0x53>
    abd0:	eb bb                	jmp    ab8d <__fixtfsi@@GCC_4.3.0+0x5d>
    abd2:	66 0f 1f 44 00 00    	nopw   0x0(%rax,%rax,1)
    abd8:	48 09 ce             	or     %rcx,%rsi
    abdb:	74 b0                	je     ab8d <__fixtfsi@@GCC_4.3.0+0x5d>
    abdd:	bf 22 00 00 00       	mov    $0x22,%edi
    abe2:	eb a4                	jmp    ab88 <__fixtfsi@@GCC_4.3.0+0x58>
    abe4:	0f 1f 40 00          	nopl   0x0(%rax)
    abe8:	48 89 c8             	mov    %rcx,%rax
    abeb:	0f b7 ff             	movzwl %di,%edi
    abee:	48 0f ba e8 30       	bts    $0x30,%rax
    abf3:	8d 8f 11 c0 ff ff    	lea    -0x3fef(%rdi),%ecx
    abf9:	49 89 c0             	mov    %rax,%r8
    abfc:	49 d3 e0             	shl    %cl,%r8
    abff:	b9 2f 40 00 00       	mov    $0x402f,%ecx
    ac04:	29 f9                	sub    %edi,%ecx
    ac06:	48 d3 e8             	shr    %cl,%rax
    ac09:	41 89 c4             	mov    %eax,%r12d
    ac0c:	41 f7 dc             	neg    %r12d
    ac0f:	84 d2                	test   %dl,%dl
    ac11:	44 0f 44 e0          	cmove  %eax,%r12d
    ac15:	49 09 f0             	or     %rsi,%r8
    ac18:	0f 85 65 ff ff ff    	jne    ab83 <__fixtfsi@@GCC_4.3.0+0x53>
    ac1e:	48 83 c4 20          	add    $0x20,%rsp
    ac22:	44 89 e0             	mov    %r12d,%eax
    ac25:	41 5c                	pop    %r12
    ac27:	c3                   	retq   
    ac28:	0f 1f 84 00 00 00 00 	nopl   0x0(%rax,%rax,1)
    ac2f:	00 
    ac30:	bf 01 00 00 00       	mov    $0x1,%edi
    ac35:	e9 4e ff ff ff       	jmpq   ab88 <__fixtfsi@@GCC_4.3.0+0x58>
    ac3a:	66 0f 1f 44 00 00    	nopw   0x0(%rax,%rax,1)

000000000000ac40 <__fixunstfsi@@GCC_4.3.0>:
    ac40:	f3 0f 1e fa          	endbr64 
    ac44:	48 83 ec 28          	sub    $0x28,%rsp
    ac48:	0f 29 04 24          	movaps %xmm0,(%rsp)
    ac4c:	0f ae 5c 24 1c       	stmxcsr 0x1c(%rsp)
    ac51:	48 8b 44 24 08       	mov    0x8(%rsp),%rax
    ac56:	48 8b 34 24          	mov    (%rsp),%rsi
    ac5a:	48 ba ff ff ff ff ff 	movabs $0xffffffffffff,%rdx
    ac61:	ff 00 00 
    ac64:	48 89 d1             	mov    %rdx,%rcx
    ac67:	48 89 c2             	mov    %rax,%rdx
    ac6a:	48 21 c1             	and    %rax,%rcx
    ac6d:	48 c1 e8 3f          	shr    $0x3f,%rax
    ac71:	48 c1 ea 30          	shr    $0x30,%rdx
    ac75:	41 89 d0             	mov    %edx,%r8d
    ac78:	81 e2 ff 7f 00 00    	and    $0x7fff,%edx
    ac7e:	66 41 81 e0 ff 7f    	and    $0x7fff,%r8w
    ac84:	48 81 fa fe 3f 00 00 	cmp    $0x3ffe,%rdx
    ac8b:	7f 23                	jg     acb0 <__fixunstfsi@@GCC_4.3.0+0x70>
    ac8d:	31 c0                	xor    %eax,%eax
    ac8f:	48 85 d2             	test   %rdx,%rdx
    ac92:	74 44                	je     acd8 <__fixunstfsi@@GCC_4.3.0+0x98>
    ac94:	bf 20 00 00 00       	mov    $0x20,%edi
    ac99:	89 04 24             	mov    %eax,(%rsp)
    ac9c:	e8 5f bf ff ff       	callq  6c00 <__udivmodti4@@GCC_3.0+0x1d0>
    aca1:	8b 04 24             	mov    (%rsp),%eax
    aca4:	48 83 c4 28          	add    $0x28,%rsp
    aca8:	c3                   	retq   
    aca9:	0f 1f 80 00 00 00 00 	nopl   0x0(%rax)
    acb0:	48 89 c7             	mov    %rax,%rdi
    acb3:	44 0f b6 c8          	movzbl %al,%r9d
    acb7:	48 f7 df             	neg    %rdi
    acba:	48 81 c7 1f 40 00 00 	add    $0x401f,%rdi
    acc1:	48 39 d7             	cmp    %rdx,%rdi
    acc4:	7f 22                	jg     ace8 <__fixunstfsi@@GCC_4.3.0+0xa8>
    acc6:	83 f0 01             	xor    $0x1,%eax
    acc9:	bf 01 00 00 00       	mov    $0x1,%edi
    acce:	0f b6 c0             	movzbl %al,%eax
    acd1:	f7 d8                	neg    %eax
    acd3:	eb c4                	jmp    ac99 <__fixunstfsi@@GCC_4.3.0+0x59>
    acd5:	0f 1f 00             	nopl   (%rax)
    acd8:	48 09 ce             	or     %rcx,%rsi
    acdb:	74 c7                	je     aca4 <__fixunstfsi@@GCC_4.3.0+0x64>
    acdd:	bf 22 00 00 00       	mov    $0x22,%edi
    ace2:	eb b5                	jmp    ac99 <__fixunstfsi@@GCC_4.3.0+0x59>
    ace4:	0f 1f 40 00          	nopl   0x0(%rax)
    ace8:	4d 85 c9             	test   %r9,%r9
    aceb:	74 13                	je     ad00 <__fixunstfsi@@GCC_4.3.0+0xc0>
    aced:	31 c0                	xor    %eax,%eax
    acef:	bf 01 00 00 00       	mov    $0x1,%edi
    acf4:	eb a3                	jmp    ac99 <__fixunstfsi@@GCC_4.3.0+0x59>
    acf6:	66 2e 0f 1f 84 00 00 	nopw   %cs:0x0(%rax,%rax,1)
    acfd:	00 00 00 
    ad00:	48 0f ba e9 30       	bts    $0x30,%rcx
    ad05:	45 0f b7 c0          	movzwl %r8w,%r8d
    ad09:	48 89 ca             	mov    %rcx,%rdx
    ad0c:	b9 2f 40 00 00       	mov    $0x402f,%ecx
    ad11:	44 29 c1             	sub    %r8d,%ecx
    ad14:	48 89 d0             	mov    %rdx,%rax
    ad17:	48 d3 e8             	shr    %cl,%rax
    ad1a:	41 8d 88 11 c0 ff ff 	lea    -0x3fef(%r8),%ecx
    ad21:	48 d3 e2             	shl    %cl,%rdx
    ad24:	48 09 f2             	or     %rsi,%rdx
    ad27:	0f 85 67 ff ff ff    	jne    ac94 <__fixunstfsi@@GCC_4.3.0+0x54>
    ad2d:	e9 72 ff ff ff       	jmpq   aca4 <__fixunstfsi@@GCC_4.3.0+0x64>
    ad32:	66 2e 0f 1f 84 00 00 	nopw   %cs:0x0(%rax,%rax,1)
    ad39:	00 00 00 
    ad3c:	0f 1f 40 00          	nopl   0x0(%rax)

000000000000ad40 <__floatsitf@@GCC_4.3.0>:
    ad40:	f3 0f 1e fa          	endbr64 
    ad44:	85 ff                	test   %edi,%edi
    ad46:	0f 84 8c 00 00 00    	je     add8 <__floatsitf@@GCC_4.3.0+0x98>
    ad4c:	89 fa                	mov    %edi,%edx
    ad4e:	89 f8                	mov    %edi,%eax
    ad50:	c1 fa 1f             	sar    $0x1f,%edx
    ad53:	c1 e8 1f             	shr    $0x1f,%eax
    ad56:	31 d7                	xor    %edx,%edi
    ad58:	29 d7                	sub    %edx,%edi
    ad5a:	48 0f bd d7          	bsr    %rdi,%rdx
    ad5e:	48 83 f2 3f          	xor    $0x3f,%rdx
    ad62:	8d 4a f1             	lea    -0xf(%rdx),%ecx
    ad65:	48 d3 e7             	shl    %cl,%rdi
    ad68:	48 b9 ff ff ff ff ff 	movabs $0xffffffffffff,%rcx
    ad6f:	ff 00 00 
    ad72:	48 21 cf             	and    %rcx,%rdi
    ad75:	b9 3e 40 00 00       	mov    $0x403e,%ecx
    ad7a:	29 d1                	sub    %edx,%ecx
    ad7c:	66 81 e1 ff 7f       	and    $0x7fff,%cx
    ad81:	48 c7 44 24 f0 00 00 	movq   $0x0,-0x10(%rsp)
    ad88:	00 00 
    ad8a:	48 8b 74 24 f0       	mov    -0x10(%rsp),%rsi
    ad8f:	c1 e0 0f             	shl    $0xf,%eax
    ad92:	49 b8 ff ff ff ff ff 	movabs $0xffffffffffff,%r8
    ad99:	ff 00 00 
    ad9c:	48 ba 00 00 00 00 00 	movabs $0xffff000000000000,%rdx
    ada3:	00 ff ff 
    ada6:	4c 21 c7             	and    %r8,%rdi
    ada9:	09 c8                	or     %ecx,%eax
    adab:	48 c7 44 24 e8 00 00 	movq   $0x0,-0x18(%rsp)
    adb2:	00 00 
    adb4:	48 21 d6             	and    %rdx,%rsi
    adb7:	48 c1 e0 30          	shl    $0x30,%rax
    adbb:	48 09 fe             	or     %rdi,%rsi
    adbe:	48 89 f2             	mov    %rsi,%rdx
    adc1:	4c 21 c2             	and    %r8,%rdx
    adc4:	48 09 c2             	or     %rax,%rdx
    adc7:	48 89 54 24 f0       	mov    %rdx,-0x10(%rsp)
    adcc:	66 0f 6f 44 24 e8    	movdqa -0x18(%rsp),%xmm0
    add2:	c3                   	retq   
    add3:	0f 1f 44 00 00       	nopl   0x0(%rax,%rax,1)
    add8:	31 c0                	xor    %eax,%eax
    adda:	31 c9                	xor    %ecx,%ecx
    addc:	31 ff                	xor    %edi,%edi
    adde:	eb a1                	jmp    ad81 <__floatsitf@@GCC_4.3.0+0x41>

000000000000ade0 <__floatunsitf@@GCC_4.3.0>:
    ade0:	f3 0f 1e fa          	endbr64 
    ade4:	85 ff                	test   %edi,%edi
    ade6:	74 78                	je     ae60 <__floatunsitf@@GCC_4.3.0+0x80>
    ade8:	48 b8 ff ff ff ff ff 	movabs $0xffffffffffff,%rax
    adef:	ff 00 00 
    adf2:	89 ff                	mov    %edi,%edi
    adf4:	48 0f bd d7          	bsr    %rdi,%rdx
    adf8:	48 83 f2 3f          	xor    $0x3f,%rdx
    adfc:	8d 4a f1             	lea    -0xf(%rdx),%ecx
    adff:	48 d3 e7             	shl    %cl,%rdi
    ae02:	48 21 c7             	and    %rax,%rdi
    ae05:	b8 3e 40 00 00       	mov    $0x403e,%eax
    ae0a:	29 d0                	sub    %edx,%eax
    ae0c:	66 25 ff 7f          	and    $0x7fff,%ax
    ae10:	48 c7 44 24 f0 00 00 	movq   $0x0,-0x10(%rsp)
    ae17:	00 00 
    ae19:	48 8b 4c 24 f0       	mov    -0x10(%rsp),%rcx
    ae1e:	48 c1 e0 30          	shl    $0x30,%rax
    ae22:	48 be ff ff ff ff ff 	movabs $0xffffffffffff,%rsi
    ae29:	ff 00 00 
    ae2c:	48 ba 00 00 00 00 00 	movabs $0xffff000000000000,%rdx
    ae33:	00 ff ff 
    ae36:	48 21 f7             	and    %rsi,%rdi
    ae39:	48 c7 44 24 e8 00 00 	movq   $0x0,-0x18(%rsp)
    ae40:	00 00 
    ae42:	48 21 d1             	and    %rdx,%rcx
    ae45:	48 09 f9             	or     %rdi,%rcx
    ae48:	48 89 ca             	mov    %rcx,%rdx
    ae4b:	48 21 f2             	and    %rsi,%rdx
    ae4e:	48 09 c2             	or     %rax,%rdx
    ae51:	48 89 54 24 f0       	mov    %rdx,-0x10(%rsp)
    ae56:	66 0f 6f 44 24 e8    	movdqa -0x18(%rsp),%xmm0
    ae5c:	c3                   	retq   
    ae5d:	0f 1f 00             	nopl   (%rax)
    ae60:	31 c0                	xor    %eax,%eax
    ae62:	31 ff                	xor    %edi,%edi
    ae64:	eb aa                	jmp    ae10 <__floatunsitf@@GCC_4.3.0+0x30>
    ae66:	66 2e 0f 1f 84 00 00 	nopw   %cs:0x0(%rax,%rax,1)
    ae6d:	00 00 00 

000000000000ae70 <__fixtfdi@@GCC_4.3.0>:
    ae70:	f3 0f 1e fa          	endbr64 
    ae74:	48 83 ec 28          	sub    $0x28,%rsp
    ae78:	0f 29 04 24          	movaps %xmm0,(%rsp)
    ae7c:	0f ae 5c 24 1c       	stmxcsr 0x1c(%rsp)
    ae81:	48 8b 54 24 08       	mov    0x8(%rsp),%rdx
    ae86:	4c 8b 04 24          	mov    (%rsp),%r8
    ae8a:	48 b9 ff ff ff ff ff 	movabs $0xffffffffffff,%rcx
    ae91:	ff 00 00 
    ae94:	48 89 d0             	mov    %rdx,%rax
    ae97:	48 21 d1             	and    %rdx,%rcx
    ae9a:	48 c1 ea 3f          	shr    $0x3f,%rdx
    ae9e:	48 c1 e8 30          	shr    $0x30,%rax
    aea2:	89 c6                	mov    %eax,%esi
    aea4:	25 ff 7f 00 00       	and    $0x7fff,%eax
    aea9:	66 81 e6 ff 7f       	and    $0x7fff,%si
    aeae:	48 3d fe 3f 00 00    	cmp    $0x3ffe,%rax
    aeb4:	7f 2a                	jg     aee0 <__fixtfdi@@GCC_4.3.0+0x70>
    aeb6:	48 85 c0             	test   %rax,%rax
    aeb9:	0f 84 d1 00 00 00    	je     af90 <__fixtfdi@@GCC_4.3.0+0x120>
    aebf:	31 c0                	xor    %eax,%eax
    aec1:	bf 20 00 00 00       	mov    $0x20,%edi
    aec6:	48 89 04 24          	mov    %rax,(%rsp)
    aeca:	e8 31 bd ff ff       	callq  6c00 <__udivmodti4@@GCC_3.0+0x1d0>
    aecf:	48 8b 04 24          	mov    (%rsp),%rax
    aed3:	48 83 c4 28          	add    $0x28,%rsp
    aed7:	c3                   	retq   
    aed8:	0f 1f 84 00 00 00 00 	nopl   0x0(%rax,%rax,1)
    aedf:	00 
    aee0:	48 3d 3d 40 00 00    	cmp    $0x403d,%rax
    aee6:	7e 40                	jle    af28 <__fixtfdi@@GCC_4.3.0+0xb8>
    aee8:	48 3d 3e 40 00 00    	cmp    $0x403e,%rax
    aeee:	48 b8 ff ff ff ff ff 	movabs $0x7fffffffffffffff,%rax
    aef5:	ff ff 7f 
    aef8:	40 0f 94 c6          	sete   %sil
    aefc:	48 01 d0             	add    %rdx,%rax
    aeff:	40 84 d6             	test   %dl,%sil
    af02:	0f 84 a0 00 00 00    	je     afa8 <__fixtfdi@@GCC_4.3.0+0x138>
    af08:	4c 89 c2             	mov    %r8,%rdx
    af0b:	48 c1 e1 0f          	shl    $0xf,%rcx
    af0f:	48 c1 ea 31          	shr    $0x31,%rdx
    af13:	48 09 d1             	or     %rdx,%rcx
    af16:	0f 85 8c 00 00 00    	jne    afa8 <__fixtfdi@@GCC_4.3.0+0x138>
    af1c:	49 c1 e0 0f          	shl    $0xf,%r8
    af20:	75 60                	jne    af82 <__fixtfdi@@GCC_4.3.0+0x112>
    af22:	eb af                	jmp    aed3 <__fixtfdi@@GCC_4.3.0+0x63>
    af24:	0f 1f 40 00          	nopl   0x0(%rax)
    af28:	48 89 cf             	mov    %rcx,%rdi
    af2b:	b9 6f 40 00 00       	mov    $0x406f,%ecx
    af30:	0f b7 f6             	movzwl %si,%esi
    af33:	48 29 c1             	sub    %rax,%rcx
    af36:	48 0f ba ef 30       	bts    $0x30,%rdi
    af3b:	48 83 f9 3f          	cmp    $0x3f,%rcx
    af3f:	7e 77                	jle    afb8 <__fixtfdi@@GCC_4.3.0+0x148>
    af41:	48 83 f9 40          	cmp    $0x40,%rcx
    af45:	74 0f                	je     af56 <__fixtfdi@@GCC_4.3.0+0xe6>
    af47:	8d 8e 11 c0 ff ff    	lea    -0x3fef(%rsi),%ecx
    af4d:	48 89 f8             	mov    %rdi,%rax
    af50:	48 d3 e0             	shl    %cl,%rax
    af53:	49 09 c0             	or     %rax,%r8
    af56:	45 31 c9             	xor    %r9d,%r9d
    af59:	b9 2f 40 00 00       	mov    $0x402f,%ecx
    af5e:	4d 85 c0             	test   %r8,%r8
    af61:	41 0f 95 c1          	setne  %r9b
    af65:	29 f1                	sub    %esi,%ecx
    af67:	48 d3 ef             	shr    %cl,%rdi
    af6a:	48 89 f9             	mov    %rdi,%rcx
    af6d:	48 89 c8             	mov    %rcx,%rax
    af70:	48 f7 d8             	neg    %rax
    af73:	84 d2                	test   %dl,%dl
    af75:	48 0f 44 c1          	cmove  %rcx,%rax
    af79:	45 85 c9             	test   %r9d,%r9d
    af7c:	0f 84 51 ff ff ff    	je     aed3 <__fixtfdi@@GCC_4.3.0+0x63>
    af82:	bf 20 00 00 00       	mov    $0x20,%edi
    af87:	e9 3a ff ff ff       	jmpq   aec6 <__fixtfdi@@GCC_4.3.0+0x56>
    af8c:	0f 1f 40 00          	nopl   0x0(%rax)
    af90:	49 09 c8             	or     %rcx,%r8
    af93:	0f 84 3a ff ff ff    	je     aed3 <__fixtfdi@@GCC_4.3.0+0x63>
    af99:	bf 22 00 00 00       	mov    $0x22,%edi
    af9e:	e9 23 ff ff ff       	jmpq   aec6 <__fixtfdi@@GCC_4.3.0+0x56>
    afa3:	0f 1f 44 00 00       	nopl   0x0(%rax,%rax,1)
    afa8:	bf 01 00 00 00       	mov    $0x1,%edi
    afad:	e9 14 ff ff ff       	jmpq   aec6 <__fixtfdi@@GCC_4.3.0+0x56>
    afb2:	66 0f 1f 44 00 00    	nopw   0x0(%rax,%rax,1)
    afb8:	44 8d 96 d1 bf ff ff 	lea    -0x402f(%rsi),%r10d
    afbf:	4c 89 c0             	mov    %r8,%rax
    afc2:	45 31 c9             	xor    %r9d,%r9d
    afc5:	44 89 d1             	mov    %r10d,%ecx
    afc8:	48 d3 e0             	shl    %cl,%rax
    afcb:	b9 6f 40 00 00       	mov    $0x406f,%ecx
    afd0:	48 85 c0             	test   %rax,%rax
    afd3:	4c 89 c0             	mov    %r8,%rax
    afd6:	41 0f 95 c1          	setne  %r9b
    afda:	29 f1                	sub    %esi,%ecx
    afdc:	48 d3 e8             	shr    %cl,%rax
    afdf:	44 89 d1             	mov    %r10d,%ecx
    afe2:	48 d3 e7             	shl    %cl,%rdi
    afe5:	48 89 f9             	mov    %rdi,%rcx
    afe8:	48 09 c1             	or     %rax,%rcx
    afeb:	eb 80                	jmp    af6d <__fixtfdi@@GCC_4.3.0+0xfd>
    afed:	0f 1f 00             	nopl   (%rax)

000000000000aff0 <__fixunstfdi@@GCC_4.3.0>:
    aff0:	f3 0f 1e fa          	endbr64 
    aff4:	48 83 ec 28          	sub    $0x28,%rsp
    aff8:	0f 29 04 24          	movaps %xmm0,(%rsp)
    affc:	0f ae 5c 24 1c       	stmxcsr 0x1c(%rsp)
    b001:	48 8b 44 24 08       	mov    0x8(%rsp),%rax
    b006:	48 8b 34 24          	mov    (%rsp),%rsi
    b00a:	48 ba ff ff ff ff ff 	movabs $0xffffffffffff,%rdx
    b011:	ff 00 00 
    b014:	48 89 c1             	mov    %rax,%rcx
    b017:	48 21 c2             	and    %rax,%rdx
    b01a:	48 c1 e8 3f          	shr    $0x3f,%rax
    b01e:	48 c1 e9 30          	shr    $0x30,%rcx
    b022:	41 89 c8             	mov    %ecx,%r8d
    b025:	81 e1 ff 7f 00 00    	and    $0x7fff,%ecx
    b02b:	66 41 81 e0 ff 7f    	and    $0x7fff,%r8w
    b031:	48 81 f9 fe 3f 00 00 	cmp    $0x3ffe,%rcx
    b038:	7f 2e                	jg     b068 <__fixunstfdi@@GCC_4.3.0+0x78>
    b03a:	48 85 c9             	test   %rcx,%rcx
    b03d:	0f 85 a5 00 00 00    	jne    b0e8 <__fixunstfdi@@GCC_4.3.0+0xf8>
    b043:	48 89 f0             	mov    %rsi,%rax
    b046:	48 09 d0             	or     %rdx,%rax
    b049:	74 14                	je     b05f <__fixunstfdi@@GCC_4.3.0+0x6f>
    b04b:	31 c0                	xor    %eax,%eax
    b04d:	bf 22 00 00 00       	mov    $0x22,%edi
    b052:	48 89 04 24          	mov    %rax,(%rsp)
    b056:	e8 a5 bb ff ff       	callq  6c00 <__udivmodti4@@GCC_3.0+0x1d0>
    b05b:	48 8b 04 24          	mov    (%rsp),%rax
    b05f:	48 83 c4 28          	add    $0x28,%rsp
    b063:	c3                   	retq   
    b064:	0f 1f 40 00          	nopl   0x0(%rax)
    b068:	bf 3f 40 00 00       	mov    $0x403f,%edi
    b06d:	44 0f b6 c8          	movzbl %al,%r9d
    b071:	48 29 c7             	sub    %rax,%rdi
    b074:	48 39 cf             	cmp    %rcx,%rdi
    b077:	7f 1f                	jg     b098 <__fixunstfdi@@GCC_4.3.0+0xa8>
    b079:	48 83 e8 01          	sub    $0x1,%rax
    b07d:	bf 01 00 00 00       	mov    $0x1,%edi
    b082:	48 89 04 24          	mov    %rax,(%rsp)
    b086:	e8 75 bb ff ff       	callq  6c00 <__udivmodti4@@GCC_3.0+0x1d0>
    b08b:	48 8b 04 24          	mov    (%rsp),%rax
    b08f:	eb ce                	jmp    b05f <__fixunstfdi@@GCC_4.3.0+0x6f>
    b091:	0f 1f 80 00 00 00 00 	nopl   0x0(%rax)
    b098:	4d 85 c9             	test   %r9,%r9
    b09b:	75 5b                	jne    b0f8 <__fixunstfdi@@GCC_4.3.0+0x108>
    b09d:	48 89 d0             	mov    %rdx,%rax
    b0a0:	ba 6f 40 00 00       	mov    $0x406f,%edx
    b0a5:	45 0f b7 c0          	movzwl %r8w,%r8d
    b0a9:	48 29 ca             	sub    %rcx,%rdx
    b0ac:	48 0f ba e8 30       	bts    $0x30,%rax
    b0b1:	48 83 fa 3f          	cmp    $0x3f,%rdx
    b0b5:	7f 51                	jg     b108 <__fixunstfdi@@GCC_4.3.0+0x118>
    b0b7:	b9 6f 40 00 00       	mov    $0x406f,%ecx
    b0bc:	48 89 f7             	mov    %rsi,%rdi
    b0bf:	41 8d 90 d1 bf ff ff 	lea    -0x402f(%r8),%edx
    b0c6:	44 29 c1             	sub    %r8d,%ecx
    b0c9:	48 d3 ef             	shr    %cl,%rdi
    b0cc:	89 d1                	mov    %edx,%ecx
    b0ce:	48 d3 e0             	shl    %cl,%rax
    b0d1:	48 d3 e6             	shl    %cl,%rsi
    b0d4:	48 09 f8             	or     %rdi,%rax
    b0d7:	48 85 f6             	test   %rsi,%rsi
    b0da:	74 83                	je     b05f <__fixunstfdi@@GCC_4.3.0+0x6f>
    b0dc:	bf 20 00 00 00       	mov    $0x20,%edi
    b0e1:	eb 9f                	jmp    b082 <__fixunstfdi@@GCC_4.3.0+0x92>
    b0e3:	0f 1f 44 00 00       	nopl   0x0(%rax,%rax,1)
    b0e8:	31 c0                	xor    %eax,%eax
    b0ea:	bf 20 00 00 00       	mov    $0x20,%edi
    b0ef:	eb 91                	jmp    b082 <__fixunstfdi@@GCC_4.3.0+0x92>
    b0f1:	0f 1f 80 00 00 00 00 	nopl   0x0(%rax)
    b0f8:	31 c0                	xor    %eax,%eax
    b0fa:	bf 01 00 00 00       	mov    $0x1,%edi
    b0ff:	eb 81                	jmp    b082 <__fixunstfdi@@GCC_4.3.0+0x92>
    b101:	0f 1f 80 00 00 00 00 	nopl   0x0(%rax)
    b108:	48 83 fa 40          	cmp    $0x40,%rdx
    b10c:	74 10                	je     b11e <__fixunstfdi@@GCC_4.3.0+0x12e>
    b10e:	41 8d 88 11 c0 ff ff 	lea    -0x3fef(%r8),%ecx
    b115:	48 89 c2             	mov    %rax,%rdx
    b118:	48 d3 e2             	shl    %cl,%rdx
    b11b:	48 09 d6             	or     %rdx,%rsi
    b11e:	b9 2f 40 00 00       	mov    $0x402f,%ecx
    b123:	44 29 c1             	sub    %r8d,%ecx
    b126:	48 d3 e8             	shr    %cl,%rax
    b129:	48 85 f6             	test   %rsi,%rsi
    b12c:	75 ae                	jne    b0dc <__fixunstfdi@@GCC_4.3.0+0xec>
    b12e:	e9 2c ff ff ff       	jmpq   b05f <__fixunstfdi@@GCC_4.3.0+0x6f>
    b133:	66 2e 0f 1f 84 00 00 	nopw   %cs:0x0(%rax,%rax,1)
    b13a:	00 00 00 
    b13d:	0f 1f 00             	nopl   (%rax)

000000000000b140 <__floatditf@@GCC_4.3.0>:
    b140:	f3 0f 1e fa          	endbr64 
    b144:	48 85 ff             	test   %rdi,%rdi
    b147:	74 67                	je     b1b0 <__floatditf@@GCC_4.3.0+0x70>
    b149:	48 89 fa             	mov    %rdi,%rdx
    b14c:	48 89 f8             	mov    %rdi,%rax
    b14f:	b9 6f 40 00 00       	mov    $0x406f,%ecx
    b154:	48 c1 fa 3f          	sar    $0x3f,%rdx
    b158:	48 c1 e8 3f          	shr    $0x3f,%rax
    b15c:	48 31 d7             	xor    %rdx,%rdi
    b15f:	48 29 d7             	sub    %rdx,%rdi
    b162:	ba 3e 40 00 00       	mov    $0x403e,%edx
    b167:	48 0f bd f7          	bsr    %rdi,%rsi
    b16b:	48 83 f6 3f          	xor    $0x3f,%rsi
    b16f:	29 f2                	sub    %esi,%edx
    b171:	41 89 d0             	mov    %edx,%r8d
    b174:	48 63 d2             	movslq %edx,%rdx
    b177:	48 29 d1             	sub    %rdx,%rcx
    b17a:	66 41 81 e0 ff 7f    	and    $0x7fff,%r8w
    b180:	48 83 f9 3f          	cmp    $0x3f,%rcx
    b184:	0f 8f 86 00 00 00    	jg     b210 <__floatditf@@GCC_4.3.0+0xd0>
    b18a:	8d 4e 31             	lea    0x31(%rsi),%ecx
    b18d:	49 89 f9             	mov    %rdi,%r9
    b190:	48 89 fa             	mov    %rdi,%rdx
    b193:	49 d3 e1             	shl    %cl,%r9
    b196:	b9 0f 00 00 00       	mov    $0xf,%ecx
    b19b:	29 f1                	sub    %esi,%ecx
    b19d:	48 d3 ea             	shr    %cl,%rdx
    b1a0:	48 b9 ff ff ff ff ff 	movabs $0xffffffffffff,%rcx
    b1a7:	ff 00 00 
    b1aa:	48 21 ca             	and    %rcx,%rdx
    b1ad:	eb 0b                	jmp    b1ba <__floatditf@@GCC_4.3.0+0x7a>
    b1af:	90                   	nop
    b1b0:	31 c0                	xor    %eax,%eax
    b1b2:	45 31 c0             	xor    %r8d,%r8d
    b1b5:	31 d2                	xor    %edx,%edx
    b1b7:	45 31 c9             	xor    %r9d,%r9d
    b1ba:	48 c7 44 24 f0 00 00 	movq   $0x0,-0x10(%rsp)
    b1c1:	00 00 
    b1c3:	48 8b 7c 24 f0       	mov    -0x10(%rsp),%rdi
    b1c8:	c1 e0 0f             	shl    $0xf,%eax
    b1cb:	48 b9 ff ff ff ff ff 	movabs $0xffffffffffff,%rcx
    b1d2:	ff 00 00 
    b1d5:	48 be 00 00 00 00 00 	movabs $0xffff000000000000,%rsi
    b1dc:	00 ff ff 
    b1df:	48 21 ca             	and    %rcx,%rdx
    b1e2:	44 09 c0             	or     %r8d,%eax
    b1e5:	4c 89 4c 24 e8       	mov    %r9,-0x18(%rsp)
    b1ea:	48 21 f7             	and    %rsi,%rdi
    b1ed:	48 c1 e0 30          	shl    $0x30,%rax
    b1f1:	48 09 d7             	or     %rdx,%rdi
    b1f4:	48 21 cf             	and    %rcx,%rdi
    b1f7:	48 09 c7             	or     %rax,%rdi
    b1fa:	48 89 7c 24 f0       	mov    %rdi,-0x10(%rsp)
    b1ff:	66 0f 6f 44 24 e8    	movdqa -0x18(%rsp),%xmm0
    b205:	c3                   	retq   
    b206:	66 2e 0f 1f 84 00 00 	nopw   %cs:0x0(%rax,%rax,1)
    b20d:	00 00 00 
    b210:	8d 4e f1             	lea    -0xf(%rsi),%ecx
    b213:	48 89 fa             	mov    %rdi,%rdx
    b216:	45 31 c9             	xor    %r9d,%r9d
    b219:	48 d3 e2             	shl    %cl,%rdx
    b21c:	48 b9 ff ff ff ff ff 	movabs $0xffffffffffff,%rcx
    b223:	ff 00 00 
    b226:	48 21 ca             	and    %rcx,%rdx
    b229:	eb 8f                	jmp    b1ba <__floatditf@@GCC_4.3.0+0x7a>
    b22b:	0f 1f 44 00 00       	nopl   0x0(%rax,%rax,1)

000000000000b230 <__floatunditf@@GCC_4.3.0>:
    b230:	f3 0f 1e fa          	endbr64 
    b234:	48 85 ff             	test   %rdi,%rdi
    b237:	74 4f                	je     b288 <__floatunditf@@GCC_4.3.0+0x58>
    b239:	48 0f bd c7          	bsr    %rdi,%rax
    b23d:	ba 3e 40 00 00       	mov    $0x403e,%edx
    b242:	b9 6f 40 00 00       	mov    $0x406f,%ecx
    b247:	48 83 f0 3f          	xor    $0x3f,%rax
    b24b:	29 c2                	sub    %eax,%edx
    b24d:	89 d6                	mov    %edx,%esi
    b24f:	48 63 d2             	movslq %edx,%rdx
    b252:	48 29 d1             	sub    %rdx,%rcx
    b255:	66 81 e6 ff 7f       	and    $0x7fff,%si
    b25a:	48 83 f9 3f          	cmp    $0x3f,%rcx
    b25e:	7f 78                	jg     b2d8 <__floatunditf@@GCC_4.3.0+0xa8>
    b260:	b9 0f 00 00 00       	mov    $0xf,%ecx
    b265:	48 89 fa             	mov    %rdi,%rdx
    b268:	29 c1                	sub    %eax,%ecx
    b26a:	48 d3 ea             	shr    %cl,%rdx
    b26d:	8d 48 31             	lea    0x31(%rax),%ecx
    b270:	48 b8 ff ff ff ff ff 	movabs $0xffffffffffff,%rax
    b277:	ff 00 00 
    b27a:	48 d3 e7             	shl    %cl,%rdi
    b27d:	48 21 c2             	and    %rax,%rdx
    b280:	eb 0a                	jmp    b28c <__floatunditf@@GCC_4.3.0+0x5c>
    b282:	66 0f 1f 44 00 00    	nopw   0x0(%rax,%rax,1)
    b288:	31 f6                	xor    %esi,%esi
    b28a:	31 d2                	xor    %edx,%edx
    b28c:	48 c7 44 24 f0 00 00 	movq   $0x0,-0x10(%rsp)
    b293:	00 00 
    b295:	48 8b 44 24 f0       	mov    -0x10(%rsp),%rax
    b29a:	48 c1 e6 30          	shl    $0x30,%rsi
    b29e:	48 b9 ff ff ff ff ff 	movabs $0xffffffffffff,%rcx
    b2a5:	ff 00 00 
    b2a8:	48 89 7c 24 e8       	mov    %rdi,-0x18(%rsp)
    b2ad:	48 21 ca             	and    %rcx,%rdx
    b2b0:	48 bf 00 00 00 00 00 	movabs $0xffff000000000000,%rdi
    b2b7:	00 ff ff 
    b2ba:	48 21 f8             	and    %rdi,%rax
    b2bd:	48 09 d0             	or     %rdx,%rax
    b2c0:	48 21 c8             	and    %rcx,%rax
    b2c3:	48 09 f0             	or     %rsi,%rax
    b2c6:	48 89 44 24 f0       	mov    %rax,-0x10(%rsp)
    b2cb:	66 0f 6f 44 24 e8    	movdqa -0x18(%rsp),%xmm0
    b2d1:	c3                   	retq   
    b2d2:	66 0f 1f 44 00 00    	nopw   0x0(%rax,%rax,1)
    b2d8:	8d 48 f1             	lea    -0xf(%rax),%ecx
    b2db:	48 89 fa             	mov    %rdi,%rdx
    b2de:	31 ff                	xor    %edi,%edi
    b2e0:	48 b8 ff ff ff ff ff 	movabs $0xffffffffffff,%rax
    b2e7:	ff 00 00 
    b2ea:	48 d3 e2             	shl    %cl,%rdx
    b2ed:	48 21 c2             	and    %rax,%rdx
    b2f0:	eb 9a                	jmp    b28c <__floatunditf@@GCC_4.3.0+0x5c>
    b2f2:	66 2e 0f 1f 84 00 00 	nopw   %cs:0x0(%rax,%rax,1)
    b2f9:	00 00 00 
    b2fc:	0f 1f 40 00          	nopl   0x0(%rax)

000000000000b300 <__fixtfti@@GCC_4.3.0>:
    b300:	f3 0f 1e fa          	endbr64 
    b304:	41 55                	push   %r13
    b306:	41 54                	push   %r12
    b308:	48 83 ec 28          	sub    $0x28,%rsp
    b30c:	0f 29 04 24          	movaps %xmm0,(%rsp)
    b310:	0f ae 5c 24 1c       	stmxcsr 0x1c(%rsp)
    b315:	48 8b 44 24 08       	mov    0x8(%rsp),%rax
    b31a:	48 8b 34 24          	mov    (%rsp),%rsi
    b31e:	48 ba ff ff ff ff ff 	movabs $0xffffffffffff,%rdx
    b325:	ff 00 00 
    b328:	48 89 d7             	mov    %rdx,%rdi
    b32b:	48 89 c2             	mov    %rax,%rdx
    b32e:	48 21 c7             	and    %rax,%rdi
    b331:	48 c1 e8 3f          	shr    $0x3f,%rax
    b335:	48 c1 ea 30          	shr    $0x30,%rdx
    b339:	41 89 d0             	mov    %edx,%r8d
    b33c:	81 e2 ff 7f 00 00    	and    $0x7fff,%edx
    b342:	66 41 81 e0 ff 7f    	and    $0x7fff,%r8w
    b348:	48 81 fa fe 3f 00 00 	cmp    $0x3ffe,%rdx
    b34f:	7f 2f                	jg     b380 <__fixtfti@@GCC_4.3.0+0x80>
    b351:	45 31 e4             	xor    %r12d,%r12d
    b354:	45 31 ed             	xor    %r13d,%r13d
    b357:	48 85 d2             	test   %rdx,%rdx
    b35a:	0f 84 00 01 00 00    	je     b460 <__fixtfti@@GCC_4.3.0+0x160>
    b360:	bf 20 00 00 00       	mov    $0x20,%edi
    b365:	e8 96 b8 ff ff       	callq  6c00 <__udivmodti4@@GCC_3.0+0x1d0>
    b36a:	48 83 c4 28          	add    $0x28,%rsp
    b36e:	4c 89 e0             	mov    %r12,%rax
    b371:	4c 89 ea             	mov    %r13,%rdx
    b374:	41 5c                	pop    %r12
    b376:	41 5d                	pop    %r13
    b378:	c3                   	retq   
    b379:	0f 1f 80 00 00 00 00 	nopl   0x0(%rax)
    b380:	48 89 c1             	mov    %rax,%rcx
    b383:	44 0f b6 c8          	movzbl %al,%r9d
    b387:	48 81 fa 7d 40 00 00 	cmp    $0x407d,%rdx
    b38e:	7e 40                	jle    b3d0 <__fixtfti@@GCC_4.3.0+0xd0>
    b390:	b8 01 00 00 00       	mov    $0x1,%eax
    b395:	45 31 e4             	xor    %r12d,%r12d
    b398:	49 bd 00 00 00 00 00 	movabs $0x8000000000000000,%r13
    b39f:	00 00 80 
    b3a2:	4c 29 c8             	sub    %r9,%rax
    b3a5:	49 89 c0             	mov    %rax,%r8
    b3a8:	48 c1 f8 3f          	sar    $0x3f,%rax
    b3ac:	4d 29 c4             	sub    %r8,%r12
    b3af:	49 19 c5             	sbb    %rax,%r13
    b3b2:	48 81 fa 7e 40 00 00 	cmp    $0x407e,%rdx
    b3b9:	75 09                	jne    b3c4 <__fixtfti@@GCC_4.3.0+0xc4>
    b3bb:	84 c9                	test   %cl,%cl
    b3bd:	74 05                	je     b3c4 <__fixtfti@@GCC_4.3.0+0xc4>
    b3bf:	48 09 f7             	or     %rsi,%rdi
    b3c2:	74 a6                	je     b36a <__fixtfti@@GCC_4.3.0+0x6a>
    b3c4:	bf 01 00 00 00       	mov    $0x1,%edi
    b3c9:	eb 9a                	jmp    b365 <__fixtfti@@GCC_4.3.0+0x65>
    b3cb:	0f 1f 44 00 00       	nopl   0x0(%rax,%rax,1)
    b3d0:	48 0f ba ef 30       	bts    $0x30,%rdi
    b3d5:	45 0f b7 c0          	movzwl %r8w,%r8d
    b3d9:	48 81 fa 6e 40 00 00 	cmp    $0x406e,%rdx
    b3e0:	0f 8f 92 00 00 00    	jg     b478 <__fixtfti@@GCC_4.3.0+0x178>
    b3e6:	b8 6f 40 00 00       	mov    $0x406f,%eax
    b3eb:	48 29 d0             	sub    %rdx,%rax
    b3ee:	48 83 f8 3f          	cmp    $0x3f,%rax
    b3f2:	0f 8f c8 00 00 00    	jg     b4c0 <__fixtfti@@GCC_4.3.0+0x1c0>
    b3f8:	41 8d 88 d1 bf ff ff 	lea    -0x402f(%r8),%ecx
    b3ff:	48 89 f0             	mov    %rsi,%rax
    b402:	45 31 d2             	xor    %r10d,%r10d
    b405:	41 bb 6f 40 00 00    	mov    $0x406f,%r11d
    b40b:	48 d3 e0             	shl    %cl,%rax
    b40e:	48 85 c0             	test   %rax,%rax
    b411:	48 89 f8             	mov    %rdi,%rax
    b414:	41 0f 95 c2          	setne  %r10b
    b418:	45 29 c3             	sub    %r8d,%r11d
    b41b:	48 d3 e0             	shl    %cl,%rax
    b41e:	44 89 d9             	mov    %r11d,%ecx
    b421:	48 d3 ee             	shr    %cl,%rsi
    b424:	48 d3 ef             	shr    %cl,%rdi
    b427:	48 09 c6             	or     %rax,%rsi
    b42a:	48 89 fa             	mov    %rdi,%rdx
    b42d:	31 c0                	xor    %eax,%eax
    b42f:	49 89 f4             	mov    %rsi,%r12
    b432:	45 31 ed             	xor    %r13d,%r13d
    b435:	49 01 c4             	add    %rax,%r12
    b438:	49 11 d5             	adc    %rdx,%r13
    b43b:	4d 85 c9             	test   %r9,%r9
    b43e:	74 0a                	je     b44a <__fixtfti@@GCC_4.3.0+0x14a>
    b440:	49 f7 dc             	neg    %r12
    b443:	49 83 d5 00          	adc    $0x0,%r13
    b447:	49 f7 dd             	neg    %r13
    b44a:	bf 20 00 00 00       	mov    $0x20,%edi
    b44f:	45 85 d2             	test   %r10d,%r10d
    b452:	0f 85 0d ff ff ff    	jne    b365 <__fixtfti@@GCC_4.3.0+0x65>
    b458:	e9 0d ff ff ff       	jmpq   b36a <__fixtfti@@GCC_4.3.0+0x6a>
    b45d:	0f 1f 00             	nopl   (%rax)
    b460:	48 09 f7             	or     %rsi,%rdi
    b463:	0f 84 01 ff ff ff    	je     b36a <__fixtfti@@GCC_4.3.0+0x6a>
    b469:	bf 22 00 00 00       	mov    $0x22,%edi
    b46e:	e9 f2 fe ff ff       	jmpq   b365 <__fixtfti@@GCC_4.3.0+0x65>
    b473:	0f 1f 44 00 00       	nopl   0x0(%rax,%rax,1)
    b478:	31 c0                	xor    %eax,%eax
    b47a:	49 89 f4             	mov    %rsi,%r12
    b47d:	41 8d 88 91 bf ff ff 	lea    -0x406f(%r8),%ecx
    b484:	45 31 ed             	xor    %r13d,%r13d
    b487:	49 01 c4             	add    %rax,%r12
    b48a:	49 11 fd             	adc    %rdi,%r13
    b48d:	31 c0                	xor    %eax,%eax
    b48f:	4d 0f a5 e5          	shld   %cl,%r12,%r13
    b493:	49 d3 e4             	shl    %cl,%r12
    b496:	83 e1 40             	and    $0x40,%ecx
    b499:	4d 0f 45 ec          	cmovne %r12,%r13
    b49d:	4c 0f 45 e0          	cmovne %rax,%r12
    b4a1:	4d 85 c9             	test   %r9,%r9
    b4a4:	0f 84 c0 fe ff ff    	je     b36a <__fixtfti@@GCC_4.3.0+0x6a>
    b4aa:	49 f7 dc             	neg    %r12
    b4ad:	49 83 d5 00          	adc    $0x0,%r13
    b4b1:	49 f7 dd             	neg    %r13
    b4b4:	e9 b1 fe ff ff       	jmpq   b36a <__fixtfti@@GCC_4.3.0+0x6a>
    b4b9:	0f 1f 80 00 00 00 00 	nopl   0x0(%rax)
    b4c0:	48 83 f8 40          	cmp    $0x40,%rax
    b4c4:	74 10                	je     b4d6 <__fixtfti@@GCC_4.3.0+0x1d6>
    b4c6:	41 8d 88 11 c0 ff ff 	lea    -0x3fef(%r8),%ecx
    b4cd:	48 89 f8             	mov    %rdi,%rax
    b4d0:	48 d3 e0             	shl    %cl,%rax
    b4d3:	48 09 c6             	or     %rax,%rsi
    b4d6:	45 31 d2             	xor    %r10d,%r10d
    b4d9:	b9 2f 40 00 00       	mov    $0x402f,%ecx
    b4de:	48 85 f6             	test   %rsi,%rsi
    b4e1:	48 89 fe             	mov    %rdi,%rsi
    b4e4:	41 0f 95 c2          	setne  %r10b
    b4e8:	44 29 c1             	sub    %r8d,%ecx
    b4eb:	31 c0                	xor    %eax,%eax
    b4ed:	31 d2                	xor    %edx,%edx
    b4ef:	48 d3 ee             	shr    %cl,%rsi
    b4f2:	e9 38 ff ff ff       	jmpq   b42f <__fixtfti@@GCC_4.3.0+0x12f>
    b4f7:	66 0f 1f 84 00 00 00 	nopw   0x0(%rax,%rax,1)
    b4fe:	00 00 

000000000000b500 <__fixunstfti@@GCC_4.3.0>:
    b500:	f3 0f 1e fa          	endbr64 
    b504:	48 83 ec 28          	sub    $0x28,%rsp
    b508:	0f 29 04 24          	movaps %xmm0,(%rsp)
    b50c:	0f ae 5c 24 1c       	stmxcsr 0x1c(%rsp)
    b511:	48 8b 44 24 08       	mov    0x8(%rsp),%rax
    b516:	48 8b 34 24          	mov    (%rsp),%rsi
    b51a:	48 ba ff ff ff ff ff 	movabs $0xffffffffffff,%rdx
    b521:	ff 00 00 
    b524:	48 89 d1             	mov    %rdx,%rcx
    b527:	48 89 c2             	mov    %rax,%rdx
    b52a:	48 21 c1             	and    %rax,%rcx
    b52d:	48 c1 e8 3f          	shr    $0x3f,%rax
    b531:	48 c1 ea 30          	shr    $0x30,%rdx
    b535:	41 89 d0             	mov    %edx,%r8d
    b538:	81 e2 ff 7f 00 00    	and    $0x7fff,%edx
    b53e:	66 41 81 e0 ff 7f    	and    $0x7fff,%r8w
    b544:	48 81 fa fe 3f 00 00 	cmp    $0x3ffe,%rdx
    b54b:	7f 33                	jg     b580 <__fixunstfti@@GCC_4.3.0+0x80>
    b54d:	31 c0                	xor    %eax,%eax
    b54f:	48 85 d2             	test   %rdx,%rdx
    b552:	ba 00 00 00 00       	mov    $0x0,%edx
    b557:	74 57                	je     b5b0 <__fixunstfti@@GCC_4.3.0+0xb0>
    b559:	bf 20 00 00 00       	mov    $0x20,%edi
    b55e:	48 89 04 24          	mov    %rax,(%rsp)
    b562:	48 89 54 24 08       	mov    %rdx,0x8(%rsp)
    b567:	e8 94 b6 ff ff       	callq  6c00 <__udivmodti4@@GCC_3.0+0x1d0>
    b56c:	48 8b 04 24          	mov    (%rsp),%rax
    b570:	48 8b 54 24 08       	mov    0x8(%rsp),%rdx
    b575:	48 83 c4 28          	add    $0x28,%rsp
    b579:	c3                   	retq   
    b57a:	66 0f 1f 44 00 00    	nopw   0x0(%rax,%rax,1)
    b580:	bf 7f 40 00 00       	mov    $0x407f,%edi
    b585:	44 0f b6 c8          	movzbl %al,%r9d
    b589:	48 29 c7             	sub    %rax,%rdi
    b58c:	48 39 d7             	cmp    %rdx,%rdi
    b58f:	7f 2f                	jg     b5c0 <__fixunstfti@@GCC_4.3.0+0xc0>
    b591:	31 ff                	xor    %edi,%edi
    b593:	48 83 f0 01          	xor    $0x1,%rax
    b597:	48 89 fa             	mov    %rdi,%rdx
    b59a:	48 f7 d8             	neg    %rax
    b59d:	bf 01 00 00 00       	mov    $0x1,%edi
    b5a2:	48 83 d2 00          	adc    $0x0,%rdx
    b5a6:	48 f7 da             	neg    %rdx
    b5a9:	eb b3                	jmp    b55e <__fixunstfti@@GCC_4.3.0+0x5e>
    b5ab:	0f 1f 44 00 00       	nopl   0x0(%rax,%rax,1)
    b5b0:	48 09 f1             	or     %rsi,%rcx
    b5b3:	74 c0                	je     b575 <__fixunstfti@@GCC_4.3.0+0x75>
    b5b5:	bf 22 00 00 00       	mov    $0x22,%edi
    b5ba:	eb a2                	jmp    b55e <__fixunstfti@@GCC_4.3.0+0x5e>
    b5bc:	0f 1f 40 00          	nopl   0x0(%rax)
    b5c0:	4d 85 c9             	test   %r9,%r9
    b5c3:	75 4b                	jne    b610 <__fixunstfti@@GCC_4.3.0+0x110>
    b5c5:	48 89 cf             	mov    %rcx,%rdi
    b5c8:	45 0f b7 c0          	movzwl %r8w,%r8d
    b5cc:	48 0f ba ef 30       	bts    $0x30,%rdi
    b5d1:	48 81 fa 6e 40 00 00 	cmp    $0x406e,%rdx
    b5d8:	7e 46                	jle    b620 <__fixunstfti@@GCC_4.3.0+0x120>
    b5da:	48 89 f0             	mov    %rsi,%rax
    b5dd:	45 31 d2             	xor    %r10d,%r10d
    b5e0:	41 8d 88 91 bf ff ff 	lea    -0x406f(%r8),%ecx
    b5e7:	31 d2                	xor    %edx,%edx
    b5e9:	4c 01 d0             	add    %r10,%rax
    b5ec:	48 11 fa             	adc    %rdi,%rdx
    b5ef:	31 f6                	xor    %esi,%esi
    b5f1:	48 0f a5 c2          	shld   %cl,%rax,%rdx
    b5f5:	48 d3 e0             	shl    %cl,%rax
    b5f8:	83 e1 40             	and    $0x40,%ecx
    b5fb:	48 0f 45 d0          	cmovne %rax,%rdx
    b5ff:	48 0f 45 c6          	cmovne %rsi,%rax
    b603:	e9 6d ff ff ff       	jmpq   b575 <__fixunstfti@@GCC_4.3.0+0x75>
    b608:	0f 1f 84 00 00 00 00 	nopl   0x0(%rax,%rax,1)
    b60f:	00 
    b610:	31 c0                	xor    %eax,%eax
    b612:	31 d2                	xor    %edx,%edx
    b614:	bf 01 00 00 00       	mov    $0x1,%edi
    b619:	e9 40 ff ff ff       	jmpq   b55e <__fixunstfti@@GCC_4.3.0+0x5e>
    b61e:	66 90                	xchg   %ax,%ax
    b620:	b8 6f 40 00 00       	mov    $0x406f,%eax
    b625:	48 29 d0             	sub    %rdx,%rax
    b628:	48 83 f8 3f          	cmp    $0x3f,%rax
    b62c:	7e 52                	jle    b680 <__fixunstfti@@GCC_4.3.0+0x180>
    b62e:	48 83 f8 40          	cmp    $0x40,%rax
    b632:	74 10                	je     b644 <__fixunstfti@@GCC_4.3.0+0x144>
    b634:	41 8d 88 11 c0 ff ff 	lea    -0x3fef(%r8),%ecx
    b63b:	48 89 f8             	mov    %rdi,%rax
    b63e:	48 d3 e0             	shl    %cl,%rax
    b641:	48 09 c6             	or     %rax,%rsi
    b644:	45 31 d2             	xor    %r10d,%r10d
    b647:	b9 2f 40 00 00       	mov    $0x402f,%ecx
    b64c:	48 85 f6             	test   %rsi,%rsi
    b64f:	48 89 fe             	mov    %rdi,%rsi
    b652:	41 0f 95 c2          	setne  %r10b
    b656:	44 29 c1             	sub    %r8d,%ecx
    b659:	45 31 c9             	xor    %r9d,%r9d
    b65c:	45 31 c0             	xor    %r8d,%r8d
    b65f:	48 d3 ee             	shr    %cl,%rsi
    b662:	48 89 f0             	mov    %rsi,%rax
    b665:	31 d2                	xor    %edx,%edx
    b667:	4c 01 c0             	add    %r8,%rax
    b66a:	4c 11 ca             	adc    %r9,%rdx
    b66d:	45 85 d2             	test   %r10d,%r10d
    b670:	0f 85 e3 fe ff ff    	jne    b559 <__fixunstfti@@GCC_4.3.0+0x59>
    b676:	e9 fa fe ff ff       	jmpq   b575 <__fixunstfti@@GCC_4.3.0+0x75>
    b67b:	0f 1f 44 00 00       	nopl   0x0(%rax,%rax,1)
    b680:	41 8d 88 d1 bf ff ff 	lea    -0x402f(%r8),%ecx
    b687:	48 89 f0             	mov    %rsi,%rax
    b68a:	45 31 d2             	xor    %r10d,%r10d
    b68d:	ba 6f 40 00 00       	mov    $0x406f,%edx
    b692:	48 d3 e0             	shl    %cl,%rax
    b695:	48 85 c0             	test   %rax,%rax
    b698:	48 89 f8             	mov    %rdi,%rax
    b69b:	41 0f 95 c2          	setne  %r10b
    b69f:	44 29 c2             	sub    %r8d,%edx
    b6a2:	48 d3 e0             	shl    %cl,%rax
    b6a5:	45 31 c0             	xor    %r8d,%r8d
    b6a8:	89 d1                	mov    %edx,%ecx
    b6aa:	48 d3 ee             	shr    %cl,%rsi
    b6ad:	48 d3 ef             	shr    %cl,%rdi
    b6b0:	48 09 c6             	or     %rax,%rsi
    b6b3:	49 89 f9             	mov    %rdi,%r9
    b6b6:	eb aa                	jmp    b662 <__fixunstfti@@GCC_4.3.0+0x162>
    b6b8:	0f 1f 84 00 00 00 00 	nopl   0x0(%rax,%rax,1)
    b6bf:	00 

000000000000b6c0 <__floattitf@@GCC_4.3.0>:
    b6c0:	f3 0f 1e fa          	endbr64 
    b6c4:	41 55                	push   %r13
    b6c6:	48 89 f9             	mov    %rdi,%rcx
    b6c9:	41 54                	push   %r12
    b6cb:	53                   	push   %rbx
    b6cc:	48 83 ec 20          	sub    $0x20,%rsp
    b6d0:	0f ae 5c 24 1c       	stmxcsr 0x1c(%rsp)
    b6d5:	48 89 f0             	mov    %rsi,%rax
    b6d8:	48 09 f8             	or     %rdi,%rax
    b6db:	0f 84 4f 01 00 00    	je     b830 <__floattitf@@GCC_4.3.0+0x170>
    b6e1:	49 89 f0             	mov    %rsi,%r8
    b6e4:	48 89 f7             	mov    %rsi,%rdi
    b6e7:	48 89 f2             	mov    %rsi,%rdx
    b6ea:	48 89 c8             	mov    %rcx,%rax
    b6ed:	49 c1 e8 3f          	shr    $0x3f,%r8
    b6f1:	44 89 c6             	mov    %r8d,%esi
    b6f4:	48 85 ff             	test   %rdi,%rdi
    b6f7:	0f 88 fb 01 00 00    	js     b8f8 <__floattitf@@GCC_4.3.0+0x238>
    b6fd:	49 89 d2             	mov    %rdx,%r10
    b700:	48 85 d2             	test   %rdx,%rdx
    b703:	0f 84 87 01 00 00    	je     b890 <__floattitf@@GCC_4.3.0+0x1d0>
    b709:	48 0f bd ca          	bsr    %rdx,%rcx
    b70d:	41 bb 7e 40 00 00    	mov    $0x407e,%r11d
    b713:	48 83 f1 3f          	xor    $0x3f,%rcx
    b717:	41 29 cb             	sub    %ecx,%r11d
    b71a:	89 cb                	mov    %ecx,%ebx
    b71c:	4d 63 cb             	movslq %r11d,%r9
    b71f:	41 81 fb 6f 40 00 00 	cmp    $0x406f,%r11d
    b726:	0f 8e ce 02 00 00    	jle    b9fa <__floattitf@@GCC_4.3.0+0x33a>
    b72c:	41 81 fb 72 40 00 00 	cmp    $0x4072,%r11d
    b733:	0f 8f d7 01 00 00    	jg     b910 <__floattitf@@GCC_4.3.0+0x250>
    b739:	49 81 f9 72 40 00 00 	cmp    $0x4072,%r9
    b740:	74 21                	je     b763 <__floattitf@@GCC_4.3.0+0xa3>
    b742:	b9 4c 00 00 00       	mov    $0x4c,%ecx
    b747:	49 89 c3             	mov    %rax,%r11
    b74a:	8d 73 f4             	lea    -0xc(%rbx),%esi
    b74d:	4c 89 d2             	mov    %r10,%rdx
    b750:	29 d9                	sub    %ebx,%ecx
    b752:	49 d3 eb             	shr    %cl,%r11
    b755:	89 f1                	mov    %esi,%ecx
    b757:	48 d3 e2             	shl    %cl,%rdx
    b75a:	48 d3 e0             	shl    %cl,%rax
    b75d:	49 09 d3             	or     %rdx,%r11
    b760:	4d 89 da             	mov    %r11,%r10
    b763:	4c 89 d2             	mov    %r10,%rdx
    b766:	45 31 d2             	xor    %r10d,%r10d
    b769:	48 0f ba f2 33       	btr    $0x33,%rdx
    b76e:	a8 07                	test   $0x7,%al
    b770:	74 30                	je     b7a2 <__floattitf@@GCC_4.3.0+0xe2>
    b772:	8b 4c 24 1c          	mov    0x1c(%rsp),%ecx
    b776:	41 ba 20 00 00 00    	mov    $0x20,%r10d
    b77c:	81 e1 00 60 00 00    	and    $0x6000,%ecx
    b782:	81 f9 00 20 00 00    	cmp    $0x2000,%ecx
    b788:	0f 84 f2 01 00 00    	je     b980 <__floattitf@@GCC_4.3.0+0x2c0>
    b78e:	81 f9 00 40 00 00    	cmp    $0x4000,%ecx
    b794:	0f 84 56 02 00 00    	je     b9f0 <__floattitf@@GCC_4.3.0+0x330>
    b79a:	85 c9                	test   %ecx,%ecx
    b79c:	0f 84 1e 02 00 00    	je     b9c0 <__floattitf@@GCC_4.3.0+0x300>
    b7a2:	48 c1 e8 03          	shr    $0x3,%rax
    b7a6:	48 89 d1             	mov    %rdx,%rcx
    b7a9:	48 c1 e2 0d          	shl    $0xd,%rdx
    b7ad:	48 c7 44 24 08 00 00 	movq   $0x0,0x8(%rsp)
    b7b4:	00 00 
    b7b6:	48 c1 e1 3d          	shl    $0x3d,%rcx
    b7ba:	49 c1 e0 3f          	shl    $0x3f,%r8
    b7be:	48 09 c1             	or     %rax,%rcx
    b7c1:	48 89 d0             	mov    %rdx,%rax
    b7c4:	48 8b 54 24 08       	mov    0x8(%rsp),%rdx
    b7c9:	48 89 0c 24          	mov    %rcx,(%rsp)
    b7cd:	48 c1 e8 10          	shr    $0x10,%rax
    b7d1:	48 b9 00 00 00 00 00 	movabs $0xffff000000000000,%rcx
    b7d8:	00 ff ff 
    b7db:	48 21 ca             	and    %rcx,%rdx
    b7de:	48 b9 ff ff ff ff ff 	movabs $0x8000ffffffffffff,%rcx
    b7e5:	ff 00 80 
    b7e8:	48 09 c2             	or     %rax,%rdx
    b7eb:	4c 89 c8             	mov    %r9,%rax
    b7ee:	25 ff 7f 00 00       	and    $0x7fff,%eax
    b7f3:	48 21 ca             	and    %rcx,%rdx
    b7f6:	48 c1 e0 30          	shl    $0x30,%rax
    b7fa:	48 09 d0             	or     %rdx,%rax
    b7fd:	48 0f ba f0 3f       	btr    $0x3f,%rax
    b802:	4c 09 c0             	or     %r8,%rax
    b805:	48 89 44 24 08       	mov    %rax,0x8(%rsp)
    b80a:	66 0f 6f 04 24       	movdqa (%rsp),%xmm0
    b80f:	45 85 d2             	test   %r10d,%r10d
    b812:	74 6e                	je     b882 <__floattitf@@GCC_4.3.0+0x1c2>
    b814:	44 89 d7             	mov    %r10d,%edi
    b817:	0f 29 04 24          	movaps %xmm0,(%rsp)
    b81b:	e8 e0 b3 ff ff       	callq  6c00 <__udivmodti4@@GCC_3.0+0x1d0>
    b820:	66 0f 6f 04 24       	movdqa (%rsp),%xmm0
    b825:	48 83 c4 20          	add    $0x20,%rsp
    b829:	5b                   	pop    %rbx
    b82a:	41 5c                	pop    %r12
    b82c:	41 5d                	pop    %r13
    b82e:	c3                   	retq   
    b82f:	90                   	nop
    b830:	31 f6                	xor    %esi,%esi
    b832:	45 31 c0             	xor    %r8d,%r8d
    b835:	31 d2                	xor    %edx,%edx
    b837:	31 c0                	xor    %eax,%eax
    b839:	48 c7 44 24 08 00 00 	movq   $0x0,0x8(%rsp)
    b840:	00 00 
    b842:	c1 e6 0f             	shl    $0xf,%esi
    b845:	48 b9 ff ff ff ff ff 	movabs $0xffffffffffff,%rcx
    b84c:	ff 00 00 
    b84f:	48 bf 00 00 00 00 00 	movabs $0xffff000000000000,%rdi
    b856:	00 ff ff 
    b859:	48 89 04 24          	mov    %rax,(%rsp)
    b85d:	48 8b 44 24 08       	mov    0x8(%rsp),%rax
    b862:	48 21 ca             	and    %rcx,%rdx
    b865:	44 09 c6             	or     %r8d,%esi
    b868:	48 c1 e6 30          	shl    $0x30,%rsi
    b86c:	48 21 f8             	and    %rdi,%rax
    b86f:	48 09 d0             	or     %rdx,%rax
    b872:	48 21 c8             	and    %rcx,%rax
    b875:	48 09 f0             	or     %rsi,%rax
    b878:	48 89 44 24 08       	mov    %rax,0x8(%rsp)
    b87d:	66 0f 6f 04 24       	movdqa (%rsp),%xmm0
    b882:	48 83 c4 20          	add    $0x20,%rsp
    b886:	5b                   	pop    %rbx
    b887:	41 5c                	pop    %r12
    b889:	41 5d                	pop    %r13
    b88b:	c3                   	retq   
    b88c:	0f 1f 40 00          	nopl   0x0(%rax)
    b890:	48 0f bd f8          	bsr    %rax,%rdi
    b894:	ba 7e 40 00 00       	mov    $0x407e,%edx
    b899:	41 b9 6f 40 00 00    	mov    $0x406f,%r9d
    b89f:	48 83 f7 3f          	xor    $0x3f,%rdi
    b8a3:	8d 4f 40             	lea    0x40(%rdi),%ecx
    b8a6:	29 ca                	sub    %ecx,%edx
    b8a8:	41 89 d0             	mov    %edx,%r8d
    b8ab:	48 63 d2             	movslq %edx,%rdx
    b8ae:	49 29 d1             	sub    %rdx,%r9
    b8b1:	66 41 81 e0 ff 7f    	and    $0x7fff,%r8w
    b8b7:	49 83 f9 3f          	cmp    $0x3f,%r9
    b8bb:	0f 8f 9f 00 00 00    	jg     b960 <__floattitf@@GCC_4.3.0+0x2a0>
    b8c1:	ba 4f 00 00 00       	mov    $0x4f,%edx
    b8c6:	44 8d 49 f1          	lea    -0xf(%rcx),%r9d
    b8ca:	48 89 c7             	mov    %rax,%rdi
    b8cd:	29 ca                	sub    %ecx,%edx
    b8cf:	89 d1                	mov    %edx,%ecx
    b8d1:	4c 89 d2             	mov    %r10,%rdx
    b8d4:	48 d3 ef             	shr    %cl,%rdi
    b8d7:	44 89 c9             	mov    %r9d,%ecx
    b8da:	48 d3 e2             	shl    %cl,%rdx
    b8dd:	48 d3 e0             	shl    %cl,%rax
    b8e0:	48 b9 ff ff ff ff ff 	movabs $0xffffffffffff,%rcx
    b8e7:	ff 00 00 
    b8ea:	48 09 fa             	or     %rdi,%rdx
    b8ed:	48 21 ca             	and    %rcx,%rdx
    b8f0:	e9 44 ff ff ff       	jmpq   b839 <__floattitf@@GCC_4.3.0+0x179>
    b8f5:	0f 1f 00             	nopl   (%rax)
    b8f8:	48 f7 d8             	neg    %rax
    b8fb:	48 83 d2 00          	adc    $0x0,%rdx
    b8ff:	48 f7 da             	neg    %rdx
    b902:	49 89 d2             	mov    %rdx,%r10
    b905:	48 85 d2             	test   %rdx,%rdx
    b908:	74 86                	je     b890 <__floattitf@@GCC_4.3.0+0x1d0>
    b90a:	e9 fa fd ff ff       	jmpq   b709 <__floattitf@@GCC_4.3.0+0x49>
    b90f:	90                   	nop
    b910:	b9 0c 00 00 00       	mov    $0xc,%ecx
    b915:	49 89 c4             	mov    %rax,%r12
    b918:	49 89 d5             	mov    %rdx,%r13
    b91b:	31 f6                	xor    %esi,%esi
    b91d:	29 d9                	sub    %ebx,%ecx
    b91f:	49 0f ad d4          	shrd   %cl,%rdx,%r12
    b923:	49 d3 ed             	shr    %cl,%r13
    b926:	f6 c1 40             	test   $0x40,%cl
    b929:	8d 4b 74             	lea    0x74(%rbx),%ecx
    b92c:	4d 0f 45 e5          	cmovne %r13,%r12
    b930:	4c 0f 45 ee          	cmovne %rsi,%r13
    b934:	48 0f a5 c2          	shld   %cl,%rax,%rdx
    b938:	45 31 d2             	xor    %r10d,%r10d
    b93b:	48 d3 e0             	shl    %cl,%rax
    b93e:	f6 c1 40             	test   $0x40,%cl
    b941:	48 0f 45 d0          	cmovne %rax,%rdx
    b945:	49 0f 45 c2          	cmovne %r10,%rax
    b949:	4d 89 ea             	mov    %r13,%r10
    b94c:	48 89 c6             	mov    %rax,%rsi
    b94f:	31 c0                	xor    %eax,%eax
    b951:	48 09 d6             	or     %rdx,%rsi
    b954:	0f 95 c0             	setne  %al
    b957:	4c 09 e0             	or     %r12,%rax
    b95a:	e9 04 fe ff ff       	jmpq   b763 <__floattitf@@GCC_4.3.0+0xa3>
    b95f:	90                   	nop
    b960:	8d 4f f1             	lea    -0xf(%rdi),%ecx
    b963:	48 d3 e0             	shl    %cl,%rax
    b966:	48 89 c2             	mov    %rax,%rdx
    b969:	48 b8 ff ff ff ff ff 	movabs $0xffffffffffff,%rax
    b970:	ff 00 00 
    b973:	48 21 c2             	and    %rax,%rdx
    b976:	31 c0                	xor    %eax,%eax
    b978:	e9 bc fe ff ff       	jmpq   b839 <__floattitf@@GCC_4.3.0+0x179>
    b97d:	0f 1f 00             	nopl   (%rax)
    b980:	48 85 ff             	test   %rdi,%rdi
    b983:	0f 89 19 fe ff ff    	jns    b7a2 <__floattitf@@GCC_4.3.0+0xe2>
    b989:	48 b9 00 00 00 00 00 	movabs $0x8000000000000,%rcx
    b990:	00 08 00 
    b993:	48 83 c0 08          	add    $0x8,%rax
    b997:	48 83 d2 00          	adc    $0x0,%rdx
    b99b:	48 21 d1             	and    %rdx,%rcx
    b99e:	48 85 c9             	test   %rcx,%rcx
    b9a1:	74 71                	je     ba14 <__floattitf@@GCC_4.3.0+0x354>
    b9a3:	41 b9 7f 40 00 00    	mov    $0x407f,%r9d
    b9a9:	48 0f ba f2 33       	btr    $0x33,%rdx
    b9ae:	41 ba 20 00 00 00    	mov    $0x20,%r10d
    b9b4:	41 29 d9             	sub    %ebx,%r9d
    b9b7:	4d 63 c9             	movslq %r9d,%r9
    b9ba:	e9 e3 fd ff ff       	jmpq   b7a2 <__floattitf@@GCC_4.3.0+0xe2>
    b9bf:	90                   	nop
    b9c0:	48 89 c1             	mov    %rax,%rcx
    b9c3:	83 e1 0f             	and    $0xf,%ecx
    b9c6:	48 83 f9 04          	cmp    $0x4,%rcx
    b9ca:	0f 84 d2 fd ff ff    	je     b7a2 <__floattitf@@GCC_4.3.0+0xe2>
    b9d0:	48 b9 00 00 00 00 00 	movabs $0x8000000000000,%rcx
    b9d7:	00 08 00 
    b9da:	48 83 c0 04          	add    $0x4,%rax
    b9de:	48 83 d2 00          	adc    $0x0,%rdx
    b9e2:	48 21 d1             	and    %rdx,%rcx
    b9e5:	eb b7                	jmp    b99e <__floattitf@@GCC_4.3.0+0x2de>
    b9e7:	66 0f 1f 84 00 00 00 	nopw   0x0(%rax,%rax,1)
    b9ee:	00 00 
    b9f0:	48 85 ff             	test   %rdi,%rdi
    b9f3:	79 94                	jns    b989 <__floattitf@@GCC_4.3.0+0x2c9>
    b9f5:	e9 a8 fd ff ff       	jmpq   b7a2 <__floattitf@@GCC_4.3.0+0xe2>
    b9fa:	75 23                	jne    ba1f <__floattitf@@GCC_4.3.0+0x35f>
    b9fc:	48 ba ff ff ff ff ff 	movabs $0xffffffffffff,%rdx
    ba03:	ff 00 00 
    ba06:	41 b8 6f 40 00 00    	mov    $0x406f,%r8d
    ba0c:	4c 21 d2             	and    %r10,%rdx
    ba0f:	e9 25 fe ff ff       	jmpq   b839 <__floattitf@@GCC_4.3.0+0x179>
    ba14:	41 ba 20 00 00 00    	mov    $0x20,%r10d
    ba1a:	e9 83 fd ff ff       	jmpq   b7a2 <__floattitf@@GCC_4.3.0+0xe2>
    ba1f:	45 89 d8             	mov    %r11d,%r8d
    ba22:	66 41 81 e0 ff 7f    	and    $0x7fff,%r8w
    ba28:	e9 94 fe ff ff       	jmpq   b8c1 <__floattitf@@GCC_4.3.0+0x201>
    ba2d:	0f 1f 00             	nopl   (%rax)

000000000000ba30 <__floatuntitf@@GCC_4.3.0>:
    ba30:	f3 0f 1e fa          	endbr64 
    ba34:	55                   	push   %rbp
    ba35:	48 89 f8             	mov    %rdi,%rax
    ba38:	48 83 ec 20          	sub    $0x20,%rsp
    ba3c:	0f ae 5c 24 1c       	stmxcsr 0x1c(%rsp)
    ba41:	48 89 f7             	mov    %rsi,%rdi
    ba44:	48 09 c7             	or     %rax,%rdi
    ba47:	0f 84 33 01 00 00    	je     bb80 <__floatuntitf@@GCC_4.3.0+0x150>
    ba4d:	48 89 f7             	mov    %rsi,%rdi
    ba50:	48 85 f6             	test   %rsi,%rsi
    ba53:	0f 84 77 01 00 00    	je     bbd0 <__floatuntitf@@GCC_4.3.0+0x1a0>
    ba59:	4c 0f bd c6          	bsr    %rsi,%r8
    ba5d:	b9 7e 40 00 00       	mov    $0x407e,%ecx
    ba62:	49 83 f0 3f          	xor    $0x3f,%r8
    ba66:	44 29 c1             	sub    %r8d,%ecx
    ba69:	45 89 c2             	mov    %r8d,%r10d
    ba6c:	4c 63 c9             	movslq %ecx,%r9
    ba6f:	81 f9 6f 40 00 00    	cmp    $0x406f,%ecx
    ba75:	0f 8e 74 02 00 00    	jle    bcef <__floatuntitf@@GCC_4.3.0+0x2bf>
    ba7b:	81 f9 72 40 00 00    	cmp    $0x4072,%ecx
    ba81:	0f 8f b1 01 00 00    	jg     bc38 <__floatuntitf@@GCC_4.3.0+0x208>
    ba87:	49 81 f9 72 40 00 00 	cmp    $0x4072,%r9
    ba8e:	74 23                	je     bab3 <__floatuntitf@@GCC_4.3.0+0x83>
    ba90:	b9 4c 00 00 00       	mov    $0x4c,%ecx
    ba95:	49 89 c0             	mov    %rax,%r8
    ba98:	41 8d 72 f4          	lea    -0xc(%r10),%esi
    ba9c:	48 89 fa             	mov    %rdi,%rdx
    ba9f:	44 29 d1             	sub    %r10d,%ecx
    baa2:	49 d3 e8             	shr    %cl,%r8
    baa5:	89 f1                	mov    %esi,%ecx
    baa7:	48 d3 e2             	shl    %cl,%rdx
    baaa:	4c 89 c7             	mov    %r8,%rdi
    baad:	48 d3 e0             	shl    %cl,%rax
    bab0:	48 09 d7             	or     %rdx,%rdi
    bab3:	48 89 fa             	mov    %rdi,%rdx
    bab6:	31 ff                	xor    %edi,%edi
    bab8:	48 0f ba f2 33       	btr    $0x33,%rdx
    babd:	a8 07                	test   $0x7,%al
    babf:	74 50                	je     bb11 <__floatuntitf@@GCC_4.3.0+0xe1>
    bac1:	8b 4c 24 1c          	mov    0x1c(%rsp),%ecx
    bac5:	81 e1 00 60 00 00    	and    $0x6000,%ecx
    bacb:	0f 84 ef 01 00 00    	je     bcc0 <__floatuntitf@@GCC_4.3.0+0x290>
    bad1:	81 f9 00 40 00 00    	cmp    $0x4000,%ecx
    bad7:	0f 85 d3 01 00 00    	jne    bcb0 <__floatuntitf@@GCC_4.3.0+0x280>
    badd:	48 b9 00 00 00 00 00 	movabs $0x8000000000000,%rcx
    bae4:	00 08 00 
    bae7:	48 83 c0 08          	add    $0x8,%rax
    baeb:	48 83 d2 00          	adc    $0x0,%rdx
    baef:	48 21 d1             	and    %rdx,%rcx
    baf2:	48 85 c9             	test   %rcx,%rcx
    baf5:	0f 84 b5 01 00 00    	je     bcb0 <__floatuntitf@@GCC_4.3.0+0x280>
    bafb:	41 b9 7f 40 00 00    	mov    $0x407f,%r9d
    bb01:	48 0f ba f2 33       	btr    $0x33,%rdx
    bb06:	bf 20 00 00 00       	mov    $0x20,%edi
    bb0b:	45 29 d1             	sub    %r10d,%r9d
    bb0e:	4d 63 c9             	movslq %r9d,%r9
    bb11:	48 c1 e8 03          	shr    $0x3,%rax
    bb15:	48 89 d1             	mov    %rdx,%rcx
    bb18:	48 c7 44 24 08 00 00 	movq   $0x0,0x8(%rsp)
    bb1f:	00 00 
    bb21:	48 c1 ea 03          	shr    $0x3,%rdx
    bb25:	48 c1 e1 3d          	shl    $0x3d,%rcx
    bb29:	49 c1 e1 30          	shl    $0x30,%r9
    bb2d:	48 be 00 00 00 00 00 	movabs $0xffff000000000000,%rsi
    bb34:	00 ff ff 
    bb37:	48 09 c1             	or     %rax,%rcx
    bb3a:	48 8b 44 24 08       	mov    0x8(%rsp),%rax
    bb3f:	48 89 0c 24          	mov    %rcx,(%rsp)
    bb43:	48 b9 ff ff ff ff ff 	movabs $0xffffffffffff,%rcx
    bb4a:	ff 00 00 
    bb4d:	48 21 ca             	and    %rcx,%rdx
    bb50:	48 21 f0             	and    %rsi,%rax
    bb53:	48 09 c2             	or     %rax,%rdx
    bb56:	48 21 ca             	and    %rcx,%rdx
    bb59:	4c 09 ca             	or     %r9,%rdx
    bb5c:	48 89 54 24 08       	mov    %rdx,0x8(%rsp)
    bb61:	66 0f 6f 04 24       	movdqa (%rsp),%xmm0
    bb66:	85 ff                	test   %edi,%edi
    bb68:	74 5f                	je     bbc9 <__floatuntitf@@GCC_4.3.0+0x199>
    bb6a:	0f 29 04 24          	movaps %xmm0,(%rsp)
    bb6e:	e8 8d b0 ff ff       	callq  6c00 <__udivmodti4@@GCC_3.0+0x1d0>
    bb73:	66 0f 6f 04 24       	movdqa (%rsp),%xmm0
    bb78:	48 83 c4 20          	add    $0x20,%rsp
    bb7c:	5d                   	pop    %rbp
    bb7d:	c3                   	retq   
    bb7e:	66 90                	xchg   %ax,%ax
    bb80:	31 d2                	xor    %edx,%edx
    bb82:	31 c9                	xor    %ecx,%ecx
    bb84:	31 c0                	xor    %eax,%eax
    bb86:	48 c7 44 24 08 00 00 	movq   $0x0,0x8(%rsp)
    bb8d:	00 00 
    bb8f:	48 8b 74 24 08       	mov    0x8(%rsp),%rsi
    bb94:	48 c1 e2 30          	shl    $0x30,%rdx
    bb98:	48 bf 00 00 00 00 00 	movabs $0xffff000000000000,%rdi
    bb9f:	00 ff ff 
    bba2:	48 89 04 24          	mov    %rax,(%rsp)
    bba6:	48 b8 ff ff ff ff ff 	movabs $0xffffffffffff,%rax
    bbad:	ff 00 00 
    bbb0:	48 21 c1             	and    %rax,%rcx
    bbb3:	48 21 fe             	and    %rdi,%rsi
    bbb6:	48 09 ce             	or     %rcx,%rsi
    bbb9:	48 21 c6             	and    %rax,%rsi
    bbbc:	48 09 d6             	or     %rdx,%rsi
    bbbf:	48 89 74 24 08       	mov    %rsi,0x8(%rsp)
    bbc4:	66 0f 6f 04 24       	movdqa (%rsp),%xmm0
    bbc9:	48 83 c4 20          	add    $0x20,%rsp
    bbcd:	5d                   	pop    %rbp
    bbce:	c3                   	retq   
    bbcf:	90                   	nop
    bbd0:	48 0f bd c8          	bsr    %rax,%rcx
    bbd4:	bf 7e 40 00 00       	mov    $0x407e,%edi
    bbd9:	41 b9 6f 40 00 00    	mov    $0x406f,%r9d
    bbdf:	48 83 f1 3f          	xor    $0x3f,%rcx
    bbe3:	44 8d 41 40          	lea    0x40(%rcx),%r8d
    bbe7:	44 29 c7             	sub    %r8d,%edi
    bbea:	89 fa                	mov    %edi,%edx
    bbec:	48 63 ff             	movslq %edi,%rdi
    bbef:	49 29 f9             	sub    %rdi,%r9
    bbf2:	66 81 e2 ff 7f       	and    $0x7fff,%dx
    bbf7:	49 83 f9 3f          	cmp    $0x3f,%r9
    bbfb:	0f 8f 8f 00 00 00    	jg     bc90 <__floatuntitf@@GCC_4.3.0+0x260>
    bc01:	b9 4f 00 00 00       	mov    $0x4f,%ecx
    bc06:	48 89 c7             	mov    %rax,%rdi
    bc09:	45 8d 48 f1          	lea    -0xf(%r8),%r9d
    bc0d:	44 29 c1             	sub    %r8d,%ecx
    bc10:	48 d3 ef             	shr    %cl,%rdi
    bc13:	44 89 c9             	mov    %r9d,%ecx
    bc16:	48 d3 e6             	shl    %cl,%rsi
    bc19:	48 d3 e0             	shl    %cl,%rax
    bc1c:	48 b9 ff ff ff ff ff 	movabs $0xffffffffffff,%rcx
    bc23:	ff 00 00 
    bc26:	48 09 fe             	or     %rdi,%rsi
    bc29:	48 21 f1             	and    %rsi,%rcx
    bc2c:	e9 55 ff ff ff       	jmpq   bb86 <__floatuntitf@@GCC_4.3.0+0x156>
    bc31:	0f 1f 80 00 00 00 00 	nopl   0x0(%rax)
    bc38:	41 8d 48 74          	lea    0x74(%r8),%ecx
    bc3c:	48 89 f2             	mov    %rsi,%rdx
    bc3f:	48 89 c6             	mov    %rax,%rsi
    bc42:	45 31 c0             	xor    %r8d,%r8d
    bc45:	48 0f a5 c7          	shld   %cl,%rax,%rdi
    bc49:	48 d3 e6             	shl    %cl,%rsi
    bc4c:	f6 c1 40             	test   $0x40,%cl
    bc4f:	48 0f 45 fe          	cmovne %rsi,%rdi
    bc53:	49 0f 45 f0          	cmovne %r8,%rsi
    bc57:	48 89 f1             	mov    %rsi,%rcx
    bc5a:	31 f6                	xor    %esi,%esi
    bc5c:	48 09 f9             	or     %rdi,%rcx
    bc5f:	b9 0c 00 00 00       	mov    $0xc,%ecx
    bc64:	40 0f 95 c6          	setne  %sil
    bc68:	44 29 d1             	sub    %r10d,%ecx
    bc6b:	45 31 db             	xor    %r11d,%r11d
    bc6e:	48 0f ad d0          	shrd   %cl,%rdx,%rax
    bc72:	48 d3 ea             	shr    %cl,%rdx
    bc75:	f6 c1 40             	test   $0x40,%cl
    bc78:	48 0f 45 c2          	cmovne %rdx,%rax
    bc7c:	49 0f 45 d3          	cmovne %r11,%rdx
    bc80:	48 09 f0             	or     %rsi,%rax
    bc83:	48 89 d7             	mov    %rdx,%rdi
    bc86:	e9 28 fe ff ff       	jmpq   bab3 <__floatuntitf@@GCC_4.3.0+0x83>
    bc8b:	0f 1f 44 00 00       	nopl   0x0(%rax,%rax,1)
    bc90:	83 e9 0f             	sub    $0xf,%ecx
    bc93:	48 d3 e0             	shl    %cl,%rax
    bc96:	48 89 c1             	mov    %rax,%rcx
    bc99:	48 b8 ff ff ff ff ff 	movabs $0xffffffffffff,%rax
    bca0:	ff 00 00 
    bca3:	48 21 c1             	and    %rax,%rcx
    bca6:	31 c0                	xor    %eax,%eax
    bca8:	e9 d9 fe ff ff       	jmpq   bb86 <__floatuntitf@@GCC_4.3.0+0x156>
    bcad:	0f 1f 00             	nopl   (%rax)
    bcb0:	bf 20 00 00 00       	mov    $0x20,%edi
    bcb5:	e9 57 fe ff ff       	jmpq   bb11 <__floatuntitf@@GCC_4.3.0+0xe1>
    bcba:	66 0f 1f 44 00 00    	nopw   0x0(%rax,%rax,1)
    bcc0:	48 89 c1             	mov    %rax,%rcx
    bcc3:	bf 20 00 00 00       	mov    $0x20,%edi
    bcc8:	83 e1 0f             	and    $0xf,%ecx
    bccb:	48 83 f9 04          	cmp    $0x4,%rcx
    bccf:	0f 84 3c fe ff ff    	je     bb11 <__floatuntitf@@GCC_4.3.0+0xe1>
    bcd5:	48 b9 00 00 00 00 00 	movabs $0x8000000000000,%rcx
    bcdc:	00 08 00 
    bcdf:	48 83 c0 04          	add    $0x4,%rax
    bce3:	48 83 d2 00          	adc    $0x0,%rdx
    bce7:	48 21 d1             	and    %rdx,%rcx
    bcea:	e9 03 fe ff ff       	jmpq   baf2 <__floatuntitf@@GCC_4.3.0+0xc2>
    bcef:	75 17                	jne    bd08 <__floatuntitf@@GCC_4.3.0+0x2d8>
    bcf1:	48 b9 ff ff ff ff ff 	movabs $0xffffffffffff,%rcx
    bcf8:	ff 00 00 
    bcfb:	ba 6f 40 00 00       	mov    $0x406f,%edx
    bd00:	48 21 f1             	and    %rsi,%rcx
    bd03:	e9 7e fe ff ff       	jmpq   bb86 <__floatuntitf@@GCC_4.3.0+0x156>
    bd08:	89 ca                	mov    %ecx,%edx
    bd0a:	66 81 e2 ff 7f       	and    $0x7fff,%dx
    bd0f:	e9 ed fe ff ff       	jmpq   bc01 <__floatuntitf@@GCC_4.3.0+0x1d1>
    bd14:	66 2e 0f 1f 84 00 00 	nopw   %cs:0x0(%rax,%rax,1)
    bd1b:	00 00 00 
    bd1e:	66 90                	xchg   %ax,%ax

000000000000bd20 <__extendsftf2@@GCC_4.3.0>:
    bd20:	f3 0f 1e fa          	endbr64 
    bd24:	48 83 ec 28          	sub    $0x28,%rsp
    bd28:	0f ae 5c 24 1c       	stmxcsr 0x1c(%rsp)
    bd2d:	66 0f 7e c6          	movd   %xmm0,%esi
    bd31:	66 0f 7e c2          	movd   %xmm0,%edx
    bd35:	66 0f 7e c7          	movd   %xmm0,%edi
    bd39:	c1 ee 17             	shr    $0x17,%esi
    bd3c:	81 e2 ff ff 7f 00    	and    $0x7fffff,%edx
    bd42:	c1 ef 1f             	shr    $0x1f,%edi
    bd45:	40 0f b6 f6          	movzbl %sil,%esi
    bd49:	48 8d 46 01          	lea    0x1(%rsi),%rax
    bd4d:	a8 fe                	test   $0xfe,%al
    bd4f:	74 67                	je     bdb8 <__extendsftf2@@GCC_4.3.0+0x98>
    bd51:	48 89 d1             	mov    %rdx,%rcx
    bd54:	8d 86 80 3f 00 00    	lea    0x3f80(%rsi),%eax
    bd5a:	48 c1 e1 19          	shl    $0x19,%rcx
    bd5e:	48 c1 e0 30          	shl    $0x30,%rax
    bd62:	48 c1 e7 3f          	shl    $0x3f,%rdi
    bd66:	48 c7 04 24 00 00 00 	movq   $0x0,(%rsp)
    bd6d:	00 
    bd6e:	48 be 00 00 00 00 00 	movabs $0xffff000000000000,%rsi
    bd75:	00 ff ff 
    bd78:	48 c7 44 24 08 00 00 	movq   $0x0,0x8(%rsp)
    bd7f:	00 00 
    bd81:	48 8b 54 24 08       	mov    0x8(%rsp),%rdx
    bd86:	48 21 f2             	and    %rsi,%rdx
    bd89:	48 09 ca             	or     %rcx,%rdx
    bd8c:	48 b9 ff ff ff ff ff 	movabs $0x8000ffffffffffff,%rcx
    bd93:	ff 00 80 
    bd96:	48 21 ca             	and    %rcx,%rdx
    bd99:	48 09 d0             	or     %rdx,%rax
    bd9c:	48 0f ba f0 3f       	btr    $0x3f,%rax
    bda1:	48 09 f8             	or     %rdi,%rax
    bda4:	48 89 44 24 08       	mov    %rax,0x8(%rsp)
    bda9:	66 0f 6f 04 24       	movdqa (%rsp),%xmm0
    bdae:	48 83 c4 28          	add    $0x28,%rsp
    bdb2:	c3                   	retq   
    bdb3:	0f 1f 44 00 00       	nopl   0x0(%rax,%rax,1)
    bdb8:	48 85 f6             	test   %rsi,%rsi
    bdbb:	0f 85 9f 00 00 00    	jne    be60 <__extendsftf2@@GCC_4.3.0+0x140>
    bdc1:	48 85 d2             	test   %rdx,%rdx
    bdc4:	0f 84 0e 01 00 00    	je     bed8 <__extendsftf2@@GCC_4.3.0+0x1b8>
    bdca:	48 0f bd f2          	bsr    %rdx,%rsi
    bdce:	48 c1 e7 3f          	shl    $0x3f,%rdi
    bdd2:	48 c7 04 24 00 00 00 	movq   $0x0,(%rsp)
    bdd9:	00 
    bdda:	48 b8 ff ff ff ff ff 	movabs $0xffffffffffff,%rax
    bde1:	ff 00 00 
    bde4:	48 c7 44 24 08 00 00 	movq   $0x0,0x8(%rsp)
    bdeb:	00 00 
    bded:	48 83 f6 3f          	xor    $0x3f,%rsi
    bdf1:	8d 4e f1             	lea    -0xf(%rsi),%ecx
    bdf4:	48 d3 e2             	shl    %cl,%rdx
    bdf7:	48 b9 00 00 00 00 00 	movabs $0xffff000000000000,%rcx
    bdfe:	00 ff ff 
    be01:	48 21 c2             	and    %rax,%rdx
    be04:	48 8b 44 24 08       	mov    0x8(%rsp),%rax
    be09:	48 21 c8             	and    %rcx,%rax
    be0c:	48 b9 ff ff ff ff ff 	movabs $0x8000ffffffffffff,%rcx
    be13:	ff 00 80 
    be16:	48 09 c2             	or     %rax,%rdx
    be19:	b8 a9 3f 00 00       	mov    $0x3fa9,%eax
    be1e:	29 f0                	sub    %esi,%eax
    be20:	48 21 ca             	and    %rcx,%rdx
    be23:	25 ff 7f 00 00       	and    $0x7fff,%eax
    be28:	48 c1 e0 30          	shl    $0x30,%rax
    be2c:	48 09 c2             	or     %rax,%rdx
    be2f:	48 0f ba f2 3f       	btr    $0x3f,%rdx
    be34:	48 09 fa             	or     %rdi,%rdx
    be37:	bf 02 00 00 00       	mov    $0x2,%edi
    be3c:	48 89 54 24 08       	mov    %rdx,0x8(%rsp)
    be41:	66 0f 6f 04 24       	movdqa (%rsp),%xmm0
    be46:	0f 29 04 24          	movaps %xmm0,(%rsp)
    be4a:	e8 b1 ad ff ff       	callq  6c00 <__udivmodti4@@GCC_3.0+0x1d0>
    be4f:	66 0f 6f 04 24       	movdqa (%rsp),%xmm0
    be54:	48 83 c4 28          	add    $0x28,%rsp
    be58:	c3                   	retq   
    be59:	0f 1f 80 00 00 00 00 	nopl   0x0(%rax)
    be60:	48 85 d2             	test   %rdx,%rdx
    be63:	0f 84 7f 00 00 00    	je     bee8 <__extendsftf2@@GCC_4.3.0+0x1c8>
    be69:	48 c1 e2 19          	shl    $0x19,%rdx
    be6d:	66 0f 7e c1          	movd   %xmm0,%ecx
    be71:	48 c1 e7 3f          	shl    $0x3f,%rdi
    be75:	48 c7 44 24 08 00 00 	movq   $0x0,0x8(%rsp)
    be7c:	00 00 
    be7e:	48 8b 44 24 08       	mov    0x8(%rsp),%rax
    be83:	48 0f ba ea 2f       	bts    $0x2f,%rdx
    be88:	48 be 00 00 00 00 00 	movabs $0xffff000000000000,%rsi
    be8f:	00 ff ff 
    be92:	48 c7 04 24 00 00 00 	movq   $0x0,(%rsp)
    be99:	00 
    be9a:	48 21 f0             	and    %rsi,%rax
    be9d:	48 09 c2             	or     %rax,%rdx
    bea0:	48 b8 00 00 00 00 00 	movabs $0x7fff000000000000,%rax
    bea7:	00 ff 7f 
    beaa:	48 09 c2             	or     %rax,%rdx
    bead:	48 0f ba f2 3f       	btr    $0x3f,%rdx
    beb2:	48 09 fa             	or     %rdi,%rdx
    beb5:	81 e1 00 00 40 00    	and    $0x400000,%ecx
    bebb:	48 89 54 24 08       	mov    %rdx,0x8(%rsp)
    bec0:	66 0f 6f 04 24       	movdqa (%rsp),%xmm0
    bec5:	0f 85 e3 fe ff ff    	jne    bdae <__extendsftf2@@GCC_4.3.0+0x8e>
    becb:	bf 01 00 00 00       	mov    $0x1,%edi
    bed0:	e9 71 ff ff ff       	jmpq   be46 <__extendsftf2@@GCC_4.3.0+0x126>
    bed5:	0f 1f 00             	nopl   (%rax)
    bed8:	31 c0                	xor    %eax,%eax
    beda:	31 c9                	xor    %ecx,%ecx
    bedc:	e9 7d fe ff ff       	jmpq   bd5e <__extendsftf2@@GCC_4.3.0+0x3e>
    bee1:	0f 1f 80 00 00 00 00 	nopl   0x0(%rax)
    bee8:	b8 ff 7f 00 00       	mov    $0x7fff,%eax
    beed:	31 c9                	xor    %ecx,%ecx
    beef:	e9 6a fe ff ff       	jmpq   bd5e <__extendsftf2@@GCC_4.3.0+0x3e>
    bef4:	66 2e 0f 1f 84 00 00 	nopw   %cs:0x0(%rax,%rax,1)
    befb:	00 00 00 
    befe:	66 90                	xchg   %ax,%ax

000000000000bf00 <__extenddftf2@@GCC_4.3.0>:
    bf00:	f3 0f 1e fa          	endbr64 
    bf04:	48 83 ec 28          	sub    $0x28,%rsp
    bf08:	66 48 0f 7e c0       	movq   %xmm0,%rax
    bf0d:	0f ae 5c 24 1c       	stmxcsr 0x1c(%rsp)
    bf12:	48 ba ff ff ff ff ff 	movabs $0xfffffffffffff,%rdx
    bf19:	ff 0f 00 
    bf1c:	66 48 0f 7e c1       	movq   %xmm0,%rcx
    bf21:	48 c1 e9 34          	shr    $0x34,%rcx
    bf25:	48 21 c2             	and    %rax,%rdx
    bf28:	48 c1 e8 3f          	shr    $0x3f,%rax
    bf2c:	81 e1 ff 07 00 00    	and    $0x7ff,%ecx
    bf32:	48 89 c6             	mov    %rax,%rsi
    bf35:	48 89 d7             	mov    %rdx,%rdi
    bf38:	48 8d 41 01          	lea    0x1(%rcx),%rax
    bf3c:	a9 fe 07 00 00       	test   $0x7fe,%eax
    bf41:	74 65                	je     bfa8 <__extenddftf2@@GCC_4.3.0+0xa8>
    bf43:	48 c1 ea 04          	shr    $0x4,%rdx
    bf47:	48 c1 e7 3c          	shl    $0x3c,%rdi
    bf4b:	8d 81 00 3c 00 00    	lea    0x3c00(%rcx),%eax
    bf51:	49 89 d0             	mov    %rdx,%r8
    bf54:	48 c1 e0 30          	shl    $0x30,%rax
    bf58:	48 c1 e6 3f          	shl    $0x3f,%rsi
    bf5c:	48 89 3c 24          	mov    %rdi,(%rsp)
    bf60:	48 b9 00 00 00 00 00 	movabs $0xffff000000000000,%rcx
    bf67:	00 ff ff 
    bf6a:	48 c7 44 24 08 00 00 	movq   $0x0,0x8(%rsp)
    bf71:	00 00 
    bf73:	48 8b 54 24 08       	mov    0x8(%rsp),%rdx
    bf78:	48 21 ca             	and    %rcx,%rdx
    bf7b:	48 b9 ff ff ff ff ff 	movabs $0x8000ffffffffffff,%rcx
    bf82:	ff 00 80 
    bf85:	4c 09 c2             	or     %r8,%rdx
    bf88:	48 21 ca             	and    %rcx,%rdx
    bf8b:	48 09 d0             	or     %rdx,%rax
    bf8e:	48 0f ba f0 3f       	btr    $0x3f,%rax
    bf93:	48 09 f0             	or     %rsi,%rax
    bf96:	48 89 44 24 08       	mov    %rax,0x8(%rsp)
    bf9b:	66 0f 6f 04 24       	movdqa (%rsp),%xmm0
    bfa0:	48 83 c4 28          	add    $0x28,%rsp
    bfa4:	c3                   	retq   
    bfa5:	0f 1f 00             	nopl   (%rax)
    bfa8:	48 85 c9             	test   %rcx,%rcx
    bfab:	0f 85 b7 00 00 00    	jne    c068 <__extenddftf2@@GCC_4.3.0+0x168>
    bfb1:	48 85 d2             	test   %rdx,%rdx
    bfb4:	0f 84 36 01 00 00    	je     c0f0 <__extenddftf2@@GCC_4.3.0+0x1f0>
    bfba:	48 0f bd fa          	bsr    %rdx,%rdi
    bfbe:	48 83 f7 3f          	xor    $0x3f,%rdi
    bfc2:	41 89 f8             	mov    %edi,%r8d
    bfc5:	83 ff 0e             	cmp    $0xe,%edi
    bfc8:	0f 8f 42 01 00 00    	jg     c110 <__extenddftf2@@GCC_4.3.0+0x210>
    bfce:	b9 0f 00 00 00       	mov    $0xf,%ecx
    bfd3:	48 89 d0             	mov    %rdx,%rax
    bfd6:	29 f9                	sub    %edi,%ecx
    bfd8:	48 d3 e8             	shr    %cl,%rax
    bfdb:	8d 4f 31             	lea    0x31(%rdi),%ecx
    bfde:	48 d3 e2             	shl    %cl,%rdx
    bfe1:	48 89 14 24          	mov    %rdx,(%rsp)
    bfe5:	bf 02 00 00 00       	mov    $0x2,%edi
    bfea:	48 ba ff ff ff ff ff 	movabs $0xffffffffffff,%rdx
    bff1:	ff 00 00 
    bff4:	48 b9 00 00 00 00 00 	movabs $0xffff000000000000,%rcx
    bffb:	00 ff ff 
    bffe:	48 c7 44 24 08 00 00 	movq   $0x0,0x8(%rsp)
    c005:	00 00 
    c007:	48 21 c2             	and    %rax,%rdx
    c00a:	48 8b 44 24 08       	mov    0x8(%rsp),%rax
    c00f:	48 21 c8             	and    %rcx,%rax
    c012:	48 b9 ff ff ff ff ff 	movabs $0x8000ffffffffffff,%rcx
    c019:	ff 00 80 
    c01c:	48 09 d0             	or     %rdx,%rax
    c01f:	ba 0c 3c 00 00       	mov    $0x3c0c,%edx
    c024:	44 29 c2             	sub    %r8d,%edx
    c027:	48 21 c8             	and    %rcx,%rax
    c02a:	81 e2 ff 7f 00 00    	and    $0x7fff,%edx
    c030:	48 c1 e2 30          	shl    $0x30,%rdx
    c034:	48 09 c2             	or     %rax,%rdx
    c037:	48 89 f0             	mov    %rsi,%rax
    c03a:	48 c1 e0 3f          	shl    $0x3f,%rax
    c03e:	48 0f ba f2 3f       	btr    $0x3f,%rdx
    c043:	48 09 c2             	or     %rax,%rdx
    c046:	48 89 54 24 08       	mov    %rdx,0x8(%rsp)
    c04b:	66 0f 6f 04 24       	movdqa (%rsp),%xmm0
    c050:	0f 29 04 24          	movaps %xmm0,(%rsp)
    c054:	e8 a7 ab ff ff       	callq  6c00 <__udivmodti4@@GCC_3.0+0x1d0>
    c059:	66 0f 6f 04 24       	movdqa (%rsp),%xmm0
    c05e:	48 83 c4 28          	add    $0x28,%rsp
    c062:	c3                   	retq   
    c063:	0f 1f 44 00 00       	nopl   0x0(%rax,%rax,1)
    c068:	48 85 d2             	test   %rdx,%rdx
    c06b:	0f 84 8f 00 00 00    	je     c100 <__extenddftf2@@GCC_4.3.0+0x200>
    c071:	48 c7 44 24 08 00 00 	movq   $0x0,0x8(%rsp)
    c078:	00 00 
    c07a:	48 89 d0             	mov    %rdx,%rax
    c07d:	48 89 d1             	mov    %rdx,%rcx
    c080:	48 bf 00 00 00 00 00 	movabs $0xffff000000000000,%rdi
    c087:	00 ff ff 
    c08a:	48 c1 e0 3c          	shl    $0x3c,%rax
    c08e:	48 c1 e9 04          	shr    $0x4,%rcx
    c092:	48 89 04 24          	mov    %rax,(%rsp)
    c096:	48 89 c8             	mov    %rcx,%rax
    c099:	48 8b 4c 24 08       	mov    0x8(%rsp),%rcx
    c09e:	48 0f ba e8 2f       	bts    $0x2f,%rax
    c0a3:	48 21 f9             	and    %rdi,%rcx
    c0a6:	48 09 c1             	or     %rax,%rcx
    c0a9:	48 b8 00 00 00 00 00 	movabs $0x7fff000000000000,%rax
    c0b0:	00 ff 7f 
    c0b3:	48 09 c1             	or     %rax,%rcx
    c0b6:	48 89 f0             	mov    %rsi,%rax
    c0b9:	48 c1 e0 3f          	shl    $0x3f,%rax
    c0bd:	48 0f ba f1 3f       	btr    $0x3f,%rcx
    c0c2:	48 09 c1             	or     %rax,%rcx
    c0c5:	48 b8 00 00 00 00 00 	movabs $0x8000000000000,%rax
    c0cc:	00 08 00 
    c0cf:	48 89 4c 24 08       	mov    %rcx,0x8(%rsp)
    c0d4:	66 0f 6f 04 24       	movdqa (%rsp),%xmm0
    c0d9:	48 85 c2             	test   %rax,%rdx
    c0dc:	0f 85 be fe ff ff    	jne    bfa0 <__extenddftf2@@GCC_4.3.0+0xa0>
    c0e2:	bf 01 00 00 00       	mov    $0x1,%edi
    c0e7:	e9 64 ff ff ff       	jmpq   c050 <__extenddftf2@@GCC_4.3.0+0x150>
    c0ec:	0f 1f 40 00          	nopl   0x0(%rax)
    c0f0:	31 c0                	xor    %eax,%eax
    c0f2:	45 31 c0             	xor    %r8d,%r8d
    c0f5:	e9 5a fe ff ff       	jmpq   bf54 <__extenddftf2@@GCC_4.3.0+0x54>
    c0fa:	66 0f 1f 44 00 00    	nopw   0x0(%rax,%rax,1)
    c100:	b8 ff 7f 00 00       	mov    $0x7fff,%eax
    c105:	45 31 c0             	xor    %r8d,%r8d
    c108:	e9 47 fe ff ff       	jmpq   bf54 <__extenddftf2@@GCC_4.3.0+0x54>
    c10d:	0f 1f 00             	nopl   (%rax)
    c110:	48 89 d0             	mov    %rdx,%rax
    c113:	8d 4f f1             	lea    -0xf(%rdi),%ecx
    c116:	31 d2                	xor    %edx,%edx
    c118:	48 d3 e0             	shl    %cl,%rax
    c11b:	e9 c1 fe ff ff       	jmpq   bfe1 <__extenddftf2@@GCC_4.3.0+0xe1>

000000000000c120 <__extendxftf2@@GCC_4.3.0>:
    c120:	f3 0f 1e fa          	endbr64 
    c124:	48 83 ec 38          	sub    $0x38,%rsp
    c128:	48 8b 44 24 40       	mov    0x40(%rsp),%rax
    c12d:	8b 54 24 48          	mov    0x48(%rsp),%edx
    c131:	0f ae 5c 24 1c       	stmxcsr 0x1c(%rsp)
    c136:	89 54 24 28          	mov    %edx,0x28(%rsp)
    c13a:	48 89 c6             	mov    %rax,%rsi
    c13d:	48 89 c2             	mov    %rax,%rdx
    c140:	0f b6 4c 24 29       	movzbl 0x29(%rsp),%ecx
    c145:	48 bf ff ff ff ff ff 	movabs $0x7fffffffffffffff,%rdi
    c14c:	ff ff 7f 
    c14f:	48 89 44 24 20       	mov    %rax,0x20(%rsp)
    c154:	0f b7 44 24 28       	movzwl 0x28(%rsp),%eax
    c159:	48 21 fe             	and    %rdi,%rsi
    c15c:	c0 e9 07             	shr    $0x7,%cl
    c15f:	25 ff 7f 00 00       	and    $0x7fff,%eax
    c164:	4c 8d 40 01          	lea    0x1(%rax),%r8
    c168:	41 f7 c0 fe 7f 00 00 	test   $0x7ffe,%r8d
    c16f:	74 5f                	je     c1d0 <__extendxftf2@@GCC_4.3.0+0xb0>
    c171:	48 89 f2             	mov    %rsi,%rdx
    c174:	48 c1 e6 31          	shl    $0x31,%rsi
    c178:	48 c1 ea 0f          	shr    $0xf,%rdx
    c17c:	48 89 d7             	mov    %rdx,%rdi
    c17f:	48 89 34 24          	mov    %rsi,(%rsp)
    c183:	48 c1 e0 30          	shl    $0x30,%rax
    c187:	48 c1 e1 3f          	shl    $0x3f,%rcx
    c18b:	48 be 00 00 00 00 00 	movabs $0xffff000000000000,%rsi
    c192:	00 ff ff 
    c195:	48 c7 44 24 08 00 00 	movq   $0x0,0x8(%rsp)
    c19c:	00 00 
    c19e:	48 8b 54 24 08       	mov    0x8(%rsp),%rdx
    c1a3:	48 21 f2             	and    %rsi,%rdx
    c1a6:	48 be ff ff ff ff ff 	movabs $0x8000ffffffffffff,%rsi
    c1ad:	ff 00 80 
    c1b0:	48 09 fa             	or     %rdi,%rdx
    c1b3:	48 21 f2             	and    %rsi,%rdx
    c1b6:	48 09 d0             	or     %rdx,%rax
    c1b9:	48 0f ba f0 3f       	btr    $0x3f,%rax
    c1be:	48 09 c8             	or     %rcx,%rax
    c1c1:	48 89 44 24 08       	mov    %rax,0x8(%rsp)
    c1c6:	66 0f 6f 04 24       	movdqa (%rsp),%xmm0
    c1cb:	48 83 c4 38          	add    $0x38,%rsp
    c1cf:	c3                   	retq   
    c1d0:	48 85 c0             	test   %rax,%rax
    c1d3:	0f 85 87 00 00 00    	jne    c260 <__extendxftf2@@GCC_4.3.0+0x140>
    c1d9:	48 85 f6             	test   %rsi,%rsi
    c1dc:	0f 84 fe 00 00 00    	je     c2e0 <__extendxftf2@@GCC_4.3.0+0x1c0>
    c1e2:	48 c7 44 24 08 00 00 	movq   $0x0,0x8(%rsp)
    c1e9:	00 00 
    c1eb:	8b 44 24 1c          	mov    0x1c(%rsp),%eax
    c1ef:	48 ba 00 00 00 00 00 	movabs $0xffff000000000000,%rdx
    c1f6:	00 ff ff 
    c1f9:	25 00 08 00 00       	and    $0x800,%eax
    c1fe:	83 f8 01             	cmp    $0x1,%eax
    c201:	48 89 f0             	mov    %rsi,%rax
    c204:	45 19 c0             	sbb    %r8d,%r8d
    c207:	48 c1 e0 31          	shl    $0x31,%rax
    c20b:	48 01 f6             	add    %rsi,%rsi
    c20e:	48 89 04 24          	mov    %rax,(%rsp)
    c212:	48 c1 ee 10          	shr    $0x10,%rsi
    c216:	48 c1 e1 3f          	shl    $0x3f,%rcx
    c21a:	41 83 e0 10          	and    $0x10,%r8d
    c21e:	48 8b 44 24 08       	mov    0x8(%rsp),%rax
    c223:	41 83 c0 02          	add    $0x2,%r8d
    c227:	48 21 d0             	and    %rdx,%rax
    c22a:	48 09 c6             	or     %rax,%rsi
    c22d:	48 b8 ff ff ff ff ff 	movabs $0x8000ffffffffffff,%rax
    c234:	ff 00 80 
    c237:	48 21 c6             	and    %rax,%rsi
    c23a:	48 21 fe             	and    %rdi,%rsi
    c23d:	48 09 ce             	or     %rcx,%rsi
    c240:	48 89 74 24 08       	mov    %rsi,0x8(%rsp)
    c245:	66 0f 6f 04 24       	movdqa (%rsp),%xmm0
    c24a:	44 89 c7             	mov    %r8d,%edi
    c24d:	0f 29 04 24          	movaps %xmm0,(%rsp)
    c251:	e8 aa a9 ff ff       	callq  6c00 <__udivmodti4@@GCC_3.0+0x1d0>
    c256:	66 0f 6f 04 24       	movdqa (%rsp),%xmm0
    c25b:	48 83 c4 38          	add    $0x38,%rsp
    c25f:	c3                   	retq   
    c260:	48 85 f6             	test   %rsi,%rsi
    c263:	0f 84 87 00 00 00    	je     c2f0 <__extendxftf2@@GCC_4.3.0+0x1d0>
    c269:	48 c7 44 24 08 00 00 	movq   $0x0,0x8(%rsp)
    c270:	00 00 
    c272:	48 89 f0             	mov    %rsi,%rax
    c275:	48 c1 ee 0f          	shr    $0xf,%rsi
    c279:	49 b8 00 00 00 00 00 	movabs $0xffff000000000000,%r8
    c280:	00 ff ff 
    c283:	48 c1 e0 31          	shl    $0x31,%rax
    c287:	48 0f ba ee 2f       	bts    $0x2f,%rsi
    c28c:	48 c1 e1 3f          	shl    $0x3f,%rcx
    c290:	48 89 04 24          	mov    %rax,(%rsp)
    c294:	48 b8 ff ff ff ff ff 	movabs $0xffffffffffff,%rax
    c29b:	ff 00 00 
    c29e:	48 21 c6             	and    %rax,%rsi
    c2a1:	48 8b 44 24 08       	mov    0x8(%rsp),%rax
    c2a6:	4c 21 c0             	and    %r8,%rax
    c2a9:	48 09 c6             	or     %rax,%rsi
    c2ac:	48 b8 00 00 00 00 00 	movabs $0x7fff000000000000,%rax
    c2b3:	00 ff 7f 
    c2b6:	48 09 c6             	or     %rax,%rsi
    c2b9:	48 21 fe             	and    %rdi,%rsi
    c2bc:	48 09 ce             	or     %rcx,%rsi
    c2bf:	48 0f ba e2 3e       	bt     $0x3e,%rdx
    c2c4:	48 89 74 24 08       	mov    %rsi,0x8(%rsp)
    c2c9:	66 0f 6f 04 24       	movdqa (%rsp),%xmm0
    c2ce:	0f 82 f7 fe ff ff    	jb     c1cb <__extendxftf2@@GCC_4.3.0+0xab>
    c2d4:	41 b8 01 00 00 00    	mov    $0x1,%r8d
    c2da:	e9 6b ff ff ff       	jmpq   c24a <__extendxftf2@@GCC_4.3.0+0x12a>
    c2df:	90                   	nop
    c2e0:	31 ff                	xor    %edi,%edi
    c2e2:	e9 98 fe ff ff       	jmpq   c17f <__extendxftf2@@GCC_4.3.0+0x5f>
    c2e7:	66 0f 1f 84 00 00 00 	nopw   0x0(%rax,%rax,1)
    c2ee:	00 00 
    c2f0:	31 ff                	xor    %edi,%edi
    c2f2:	b8 ff 7f 00 00       	mov    $0x7fff,%eax
    c2f7:	e9 83 fe ff ff       	jmpq   c17f <__extendxftf2@@GCC_4.3.0+0x5f>
    c2fc:	0f 1f 40 00          	nopl   0x0(%rax)

000000000000c300 <__trunctfsf2@@GCC_4.3.0>:
    c300:	f3 0f 1e fa          	endbr64 
    c304:	48 83 ec 28          	sub    $0x28,%rsp
    c308:	0f 29 04 24          	movaps %xmm0,(%rsp)
    c30c:	0f ae 5c 24 1c       	stmxcsr 0x1c(%rsp)
    c311:	48 8b 54 24 08       	mov    0x8(%rsp),%rdx
    c316:	48 8b 0c 24          	mov    (%rsp),%rcx
    c31a:	48 bf ff ff ff ff ff 	movabs $0xffffffffffff,%rdi
    c321:	ff 00 00 
    c324:	48 89 d0             	mov    %rdx,%rax
    c327:	48 89 d6             	mov    %rdx,%rsi
    c32a:	48 21 fa             	and    %rdi,%rdx
    c32d:	48 8d 3c d5 00 00 00 	lea    0x0(,%rdx,8),%rdi
    c334:	00 
    c335:	48 c1 e8 30          	shr    $0x30,%rax
    c339:	48 89 ca             	mov    %rcx,%rdx
    c33c:	48 c1 ee 3f          	shr    $0x3f,%rsi
    c340:	25 ff 7f 00 00       	and    $0x7fff,%eax
    c345:	48 c1 ea 3d          	shr    $0x3d,%rdx
    c349:	49 89 f0             	mov    %rsi,%r8
    c34c:	48 09 fa             	or     %rdi,%rdx
    c34f:	48 8d 3c cd 00 00 00 	lea    0x0(,%rcx,8),%rdi
    c356:	00 
    c357:	48 8d 48 01          	lea    0x1(%rax),%rcx
    c35b:	f7 c1 fe 7f 00 00    	test   $0x7ffe,%ecx
    c361:	0f 84 49 01 00 00    	je     c4b0 <__trunctfsf2@@GCC_4.3.0+0x1b0>
    c367:	4c 8d 90 80 c0 ff ff 	lea    -0x3f80(%rax),%r10
    c36e:	49 81 fa fe 00 00 00 	cmp    $0xfe,%r10
    c375:	0f 8e bd 00 00 00    	jle    c438 <__trunctfsf2@@GCC_4.3.0+0x138>
    c37b:	8b 44 24 1c          	mov    0x1c(%rsp),%eax
    c37f:	25 00 60 00 00       	and    $0x6000,%eax
    c384:	0f 84 d6 01 00 00    	je     c560 <__trunctfsf2@@GCC_4.3.0+0x260>
    c38a:	3d 00 40 00 00       	cmp    $0x4000,%eax
    c38f:	0f 84 bb 03 00 00    	je     c750 <__trunctfsf2@@GCC_4.3.0+0x450>
    c395:	3d 00 20 00 00       	cmp    $0x2000,%eax
    c39a:	0f 85 20 02 00 00    	jne    c5c0 <__trunctfsf2@@GCC_4.3.0+0x2c0>
    c3a0:	40 84 f6             	test   %sil,%sil
    c3a3:	0f 85 b7 01 00 00    	jne    c560 <__trunctfsf2@@GCC_4.3.0+0x260>
    c3a9:	3d 00 20 00 00       	cmp    $0x2000,%eax
    c3ae:	0f 85 0c 02 00 00    	jne    c5c0 <__trunctfsf2@@GCC_4.3.0+0x2c0>
    c3b4:	bf 28 00 00 00       	mov    $0x28,%edi
    c3b9:	31 c9                	xor    %ecx,%ecx
    c3bb:	48 c7 c2 ff ff ff ff 	mov    $0xffffffffffffffff,%rdx
    c3c2:	41 ba fe 00 00 00    	mov    $0xfe,%r10d
    c3c8:	0f 1f 84 00 00 00 00 	nopl   0x0(%rax,%rax,1)
    c3cf:	00 
    c3d0:	4a 8d 14 c2          	lea    (%rdx,%r8,8),%rdx
    c3d4:	48 89 d0             	mov    %rdx,%rax
    c3d7:	25 00 00 00 04       	and    $0x4000000,%eax
    c3dc:	85 c9                	test   %ecx,%ecx
    c3de:	74 03                	je     c3e3 <__trunctfsf2@@GCC_4.3.0+0xe3>
    c3e0:	83 cf 10             	or     $0x10,%edi
    c3e3:	48 85 c0             	test   %rax,%rax
    c3e6:	0f 84 d7 02 00 00    	je     c6c3 <__trunctfsf2@@GCC_4.3.0+0x3c3>
    c3ec:	48 c1 ea 03          	shr    $0x3,%rdx
    c3f0:	49 8d 42 01          	lea    0x1(%r10),%rax
    c3f4:	48 b9 ff ff 7f ff ff 	movabs $0x1fffffffff7fffff,%rcx
    c3fb:	ff ff 1f 
    c3fe:	48 21 ca             	and    %rcx,%rdx
    c401:	49 81 fa fe 00 00 00 	cmp    $0xfe,%r10
    c408:	0f 84 1a 02 00 00    	je     c628 <__trunctfsf2@@GCC_4.3.0+0x328>
    c40e:	0f b6 c0             	movzbl %al,%eax
    c411:	81 e2 ff ff 7f 00    	and    $0x7fffff,%edx
    c417:	c1 e6 1f             	shl    $0x1f,%esi
    c41a:	c1 e0 17             	shl    $0x17,%eax
    c41d:	09 d0                	or     %edx,%eax
    c41f:	09 f0                	or     %esi,%eax
    c421:	66 0f 6e c0          	movd   %eax,%xmm0
    c425:	85 ff                	test   %edi,%edi
    c427:	0f 85 c3 02 00 00    	jne    c6f0 <__trunctfsf2@@GCC_4.3.0+0x3f0>
    c42d:	48 83 c4 28          	add    $0x28,%rsp
    c431:	c3                   	retq   
    c432:	66 0f 1f 44 00 00    	nopw   0x0(%rax,%rax,1)
    c438:	4d 85 d2             	test   %r10,%r10
    c43b:	0f 8e 67 01 00 00    	jle    c5a8 <__trunctfsf2@@GCC_4.3.0+0x2a8>
    c441:	48 89 d0             	mov    %rdx,%rax
    c444:	48 c1 e0 27          	shl    $0x27,%rax
    c448:	48 09 f8             	or     %rdi,%rax
    c44b:	0f 95 c0             	setne  %al
    c44e:	48 c1 ea 19          	shr    $0x19,%rdx
    c452:	31 ff                	xor    %edi,%edi
    c454:	0f b6 c0             	movzbl %al,%eax
    c457:	48 09 c2             	or     %rax,%rdx
    c45a:	f6 c2 07             	test   $0x7,%dl
    c45d:	0f 84 60 02 00 00    	je     c6c3 <__trunctfsf2@@GCC_4.3.0+0x3c3>
    c463:	44 8b 4c 24 1c       	mov    0x1c(%rsp),%r9d
    c468:	31 c9                	xor    %ecx,%ecx
    c46a:	31 ff                	xor    %edi,%edi
    c46c:	41 81 e1 00 60 00 00 	and    $0x6000,%r9d
    c473:	83 cf 20             	or     $0x20,%edi
    c476:	41 81 f9 00 20 00 00 	cmp    $0x2000,%r9d
    c47d:	0f 84 4d ff ff ff    	je     c3d0 <__trunctfsf2@@GCC_4.3.0+0xd0>
    c483:	41 81 f9 00 40 00 00 	cmp    $0x4000,%r9d
    c48a:	0f 84 78 02 00 00    	je     c708 <__trunctfsf2@@GCC_4.3.0+0x408>
    c490:	45 85 c9             	test   %r9d,%r9d
    c493:	0f 84 cf 01 00 00    	je     c668 <__trunctfsf2@@GCC_4.3.0+0x368>
    c499:	31 c0                	xor    %eax,%eax
    c49b:	85 c9                	test   %ecx,%ecx
    c49d:	0f 85 3d ff ff ff    	jne    c3e0 <__trunctfsf2@@GCC_4.3.0+0xe0>
    c4a3:	e9 1b 02 00 00       	jmpq   c6c3 <__trunctfsf2@@GCC_4.3.0+0x3c3>
    c4a8:	0f 1f 84 00 00 00 00 	nopl   0x0(%rax,%rax,1)
    c4af:	00 
    c4b0:	48 09 d7             	or     %rdx,%rdi
    c4b3:	48 89 f9             	mov    %rdi,%rcx
    c4b6:	48 85 c0             	test   %rax,%rax
    c4b9:	0f 85 89 00 00 00    	jne    c548 <__trunctfsf2@@GCC_4.3.0+0x248>
    c4bf:	bf 22 00 00 00       	mov    $0x22,%edi
    c4c4:	48 85 c9             	test   %rcx,%rcx
    c4c7:	0f 84 85 00 00 00    	je     c552 <__trunctfsf2@@GCC_4.3.0+0x252>
    c4cd:	b8 01 00 00 00       	mov    $0x1,%eax
    c4d2:	ba 01 00 00 00       	mov    $0x1,%edx
    c4d7:	b9 02 00 00 00       	mov    $0x2,%ecx
    c4dc:	44 8b 4c 24 1c       	mov    0x1c(%rsp),%r9d
    c4e1:	45 89 ca             	mov    %r9d,%r10d
    c4e4:	41 81 e2 00 60 00 00 	and    $0x6000,%r10d
    c4eb:	41 81 fa 00 20 00 00 	cmp    $0x2000,%r10d
    c4f2:	0f 84 98 01 00 00    	je     c690 <__trunctfsf2@@GCC_4.3.0+0x390>
    c4f8:	41 81 fa 00 40 00 00 	cmp    $0x4000,%r10d
    c4ff:	0f 84 3b 02 00 00    	je     c740 <__trunctfsf2@@GCC_4.3.0+0x440>
    c505:	45 85 d2             	test   %r10d,%r10d
    c508:	0f 84 12 02 00 00    	je     c720 <__trunctfsf2@@GCC_4.3.0+0x420>
    c50e:	48 c1 e9 1b          	shr    $0x1b,%rcx
    c512:	44 8b 4c 24 1c       	mov    0x1c(%rsp),%r9d
    c517:	45 31 d2             	xor    %r10d,%r10d
    c51a:	48 83 f1 01          	xor    $0x1,%rcx
    c51e:	83 e1 01             	and    $0x1,%ecx
    c521:	48 85 c0             	test   %rax,%rax
    c524:	0f 85 42 ff ff ff    	jne    c46c <__trunctfsf2@@GCC_4.3.0+0x16c>
    c52a:	40 f6 c7 20          	test   $0x20,%dil
    c52e:	75 0b                	jne    c53b <__trunctfsf2@@GCC_4.3.0+0x23b>
    c530:	f6 44 24 1d 08       	testb  $0x8,0x1d(%rsp)
    c535:	0f 85 85 01 00 00    	jne    c6c0 <__trunctfsf2@@GCC_4.3.0+0x3c0>
    c53b:	31 c0                	xor    %eax,%eax
    c53d:	45 31 d2             	xor    %r10d,%r10d
    c540:	e9 9b fe ff ff       	jmpq   c3e0 <__trunctfsf2@@GCC_4.3.0+0xe0>
    c545:	0f 1f 00             	nopl   (%rax)
    c548:	48 85 ff             	test   %rdi,%rdi
    c54b:	75 2b                	jne    c578 <__trunctfsf2@@GCC_4.3.0+0x278>
    c54d:	b8 ff 00 00 00       	mov    $0xff,%eax
    c552:	31 ff                	xor    %edi,%edi
    c554:	31 d2                	xor    %edx,%edx
    c556:	e9 b3 fe ff ff       	jmpq   c40e <__trunctfsf2@@GCC_4.3.0+0x10e>
    c55b:	0f 1f 44 00 00       	nopl   0x0(%rax,%rax,1)
    c560:	b8 ff 00 00 00       	mov    $0xff,%eax
    c565:	bf 28 00 00 00       	mov    $0x28,%edi
    c56a:	31 d2                	xor    %edx,%edx
    c56c:	e9 9d fe ff ff       	jmpq   c40e <__trunctfsf2@@GCC_4.3.0+0x10e>
    c571:	0f 1f 80 00 00 00 00 	nopl   0x0(%rax)
    c578:	48 89 d7             	mov    %rdx,%rdi
    c57b:	48 c1 ef 32          	shr    $0x32,%rdi
    c57f:	83 f7 01             	xor    $0x1,%edi
    c582:	48 3d ff 7f 00 00    	cmp    $0x7fff,%rax
    c588:	b8 00 00 00 00       	mov    $0x0,%eax
    c58d:	0f 45 f8             	cmovne %eax,%edi
    c590:	48 c1 ea 1c          	shr    $0x1c,%rdx
    c594:	b8 ff ff ff ff       	mov    $0xffffffff,%eax
    c599:	48 81 ca 00 00 40 00 	or     $0x400000,%rdx
    c5a0:	e9 69 fe ff ff       	jmpq   c40e <__trunctfsf2@@GCC_4.3.0+0x10e>
    c5a5:	0f 1f 00             	nopl   (%rax)
    c5a8:	49 83 fa e9          	cmp    $0xffffffffffffffe9,%r10
    c5ac:	7d 32                	jge    c5e0 <__trunctfsf2@@GCC_4.3.0+0x2e0>
    c5ae:	bf 20 00 00 00       	mov    $0x20,%edi
    c5b3:	e9 15 ff ff ff       	jmpq   c4cd <__trunctfsf2@@GCC_4.3.0+0x1cd>
    c5b8:	0f 1f 84 00 00 00 00 	nopl   0x0(%rax,%rax,1)
    c5bf:	00 
    c5c0:	48 c7 c2 ff ff ff ff 	mov    $0xffffffffffffffff,%rdx
    c5c7:	41 ba fe 00 00 00    	mov    $0xfe,%r10d
    c5cd:	bf 28 00 00 00       	mov    $0x28,%edi
    c5d2:	e9 15 fe ff ff       	jmpq   c3ec <__trunctfsf2@@GCC_4.3.0+0xec>
    c5d7:	66 0f 1f 84 00 00 00 	nopw   0x0(%rax,%rax,1)
    c5de:	00 00 
    c5e0:	48 0f ba ea 33       	bts    $0x33,%rdx
    c5e5:	41 8d 4a 26          	lea    0x26(%r10),%ecx
    c5e9:	48 89 d0             	mov    %rdx,%rax
    c5ec:	48 d3 e0             	shl    %cl,%rax
    c5ef:	b9 1a 00 00 00       	mov    $0x1a,%ecx
    c5f4:	48 09 f8             	or     %rdi,%rax
    c5f7:	0f 95 c0             	setne  %al
    c5fa:	44 29 d1             	sub    %r10d,%ecx
    c5fd:	31 ff                	xor    %edi,%edi
    c5ff:	0f b6 c0             	movzbl %al,%eax
    c602:	48 d3 ea             	shr    %cl,%rdx
    c605:	48 09 c2             	or     %rax,%rdx
    c608:	48 89 d0             	mov    %rdx,%rax
    c60b:	48 8d 0c 12          	lea    (%rdx,%rdx,1),%rcx
    c60f:	83 e0 07             	and    $0x7,%eax
    c612:	f6 c1 06             	test   $0x6,%cl
    c615:	0f 84 f3 fe ff ff    	je     c50e <__trunctfsf2@@GCC_4.3.0+0x20e>
    c61b:	bf 20 00 00 00       	mov    $0x20,%edi
    c620:	e9 b7 fe ff ff       	jmpq   c4dc <__trunctfsf2@@GCC_4.3.0+0x1dc>
    c625:	0f 1f 00             	nopl   (%rax)
    c628:	8b 44 24 1c          	mov    0x1c(%rsp),%eax
    c62c:	25 00 60 00 00       	and    $0x6000,%eax
    c631:	0f 84 99 00 00 00    	je     c6d0 <__trunctfsf2@@GCC_4.3.0+0x3d0>
    c637:	3d 00 40 00 00       	cmp    $0x4000,%eax
    c63c:	0f 84 36 01 00 00    	je     c778 <__trunctfsf2@@GCC_4.3.0+0x478>
    c642:	3d 00 20 00 00       	cmp    $0x2000,%eax
    c647:	75 09                	jne    c652 <__trunctfsf2@@GCC_4.3.0+0x352>
    c649:	40 84 f6             	test   %sil,%sil
    c64c:	0f 85 7e 00 00 00    	jne    c6d0 <__trunctfsf2@@GCC_4.3.0+0x3d0>
    c652:	48 b8 ff ff ff ff ff 	movabs $0x1fffffffffffffff,%rax
    c659:	ff ff 1f 
    c65c:	ba fe ff ff ff       	mov    $0xfffffffe,%edx
    c661:	eb 74                	jmp    c6d7 <__trunctfsf2@@GCC_4.3.0+0x3d7>
    c663:	0f 1f 44 00 00       	nopl   0x0(%rax,%rax,1)
    c668:	49 89 d1             	mov    %rdx,%r9
    c66b:	48 8d 42 04          	lea    0x4(%rdx),%rax
    c66f:	41 83 e1 0f          	and    $0xf,%r9d
    c673:	49 83 f9 04          	cmp    $0x4,%r9
    c677:	48 0f 45 d0          	cmovne %rax,%rdx
    c67b:	48 89 d0             	mov    %rdx,%rax
    c67e:	25 00 00 00 04       	and    $0x4000000,%eax
    c683:	85 c9                	test   %ecx,%ecx
    c685:	0f 85 55 fd ff ff    	jne    c3e0 <__trunctfsf2@@GCC_4.3.0+0xe0>
    c68b:	e9 53 fd ff ff       	jmpq   c3e3 <__trunctfsf2@@GCC_4.3.0+0xe3>
    c690:	4d 85 c0             	test   %r8,%r8
    c693:	0f 84 75 fe ff ff    	je     c50e <__trunctfsf2@@GCC_4.3.0+0x20e>
    c699:	48 83 c1 08          	add    $0x8,%rcx
    c69d:	81 e1 00 00 00 08    	and    $0x8000000,%ecx
    c6a3:	49 89 ca             	mov    %rcx,%r10
    c6a6:	0f 94 c1             	sete   %cl
    c6a9:	0f b6 c9             	movzbl %cl,%ecx
    c6ac:	48 85 c0             	test   %rax,%rax
    c6af:	0f 85 e7 00 00 00    	jne    c79c <__trunctfsf2@@GCC_4.3.0+0x49c>
    c6b5:	4d 85 d2             	test   %r10,%r10
    c6b8:	0f 84 6c fe ff ff    	je     c52a <__trunctfsf2@@GCC_4.3.0+0x22a>
    c6be:	66 90                	xchg   %ax,%ax
    c6c0:	45 31 d2             	xor    %r10d,%r10d
    c6c3:	48 c1 ea 03          	shr    $0x3,%rdx
    c6c7:	44 89 d0             	mov    %r10d,%eax
    c6ca:	e9 3f fd ff ff       	jmpq   c40e <__trunctfsf2@@GCC_4.3.0+0x10e>
    c6cf:	90                   	nop
    c6d0:	ba ff ff ff ff       	mov    $0xffffffff,%edx
    c6d5:	31 c0                	xor    %eax,%eax
    c6d7:	0f b6 d2             	movzbl %dl,%edx
    c6da:	25 ff ff 7f 00       	and    $0x7fffff,%eax
    c6df:	c1 e6 1f             	shl    $0x1f,%esi
    c6e2:	83 cf 28             	or     $0x28,%edi
    c6e5:	c1 e2 17             	shl    $0x17,%edx
    c6e8:	09 c2                	or     %eax,%edx
    c6ea:	09 f2                	or     %esi,%edx
    c6ec:	66 0f 6e c2          	movd   %edx,%xmm0
    c6f0:	f3 0f 11 04 24       	movss  %xmm0,(%rsp)
    c6f5:	e8 06 a5 ff ff       	callq  6c00 <__udivmodti4@@GCC_3.0+0x1d0>
    c6fa:	f3 0f 10 04 24       	movss  (%rsp),%xmm0
    c6ff:	48 83 c4 28          	add    $0x28,%rsp
    c703:	c3                   	retq   
    c704:	0f 1f 40 00          	nopl   0x0(%rax)
    c708:	48 8d 42 08          	lea    0x8(%rdx),%rax
    c70c:	4d 85 c0             	test   %r8,%r8
    c70f:	48 0f 44 d0          	cmove  %rax,%rdx
    c713:	e9 63 ff ff ff       	jmpq   c67b <__trunctfsf2@@GCC_4.3.0+0x37b>
    c718:	0f 1f 84 00 00 00 00 	nopl   0x0(%rax,%rax,1)
    c71f:	00 
    c720:	49 89 ca             	mov    %rcx,%r10
    c723:	41 83 e2 0f          	and    $0xf,%r10d
    c727:	49 83 fa 04          	cmp    $0x4,%r10
    c72b:	0f 84 dd fd ff ff    	je     c50e <__trunctfsf2@@GCC_4.3.0+0x20e>
    c731:	48 83 c1 04          	add    $0x4,%rcx
    c735:	e9 63 ff ff ff       	jmpq   c69d <__trunctfsf2@@GCC_4.3.0+0x39d>
    c73a:	66 0f 1f 44 00 00    	nopw   0x0(%rax,%rax,1)
    c740:	4d 85 c0             	test   %r8,%r8
    c743:	0f 85 c5 fd ff ff    	jne    c50e <__trunctfsf2@@GCC_4.3.0+0x20e>
    c749:	e9 4b ff ff ff       	jmpq   c699 <__trunctfsf2@@GCC_4.3.0+0x399>
    c74e:	66 90                	xchg   %ax,%ax
    c750:	48 85 f6             	test   %rsi,%rsi
    c753:	0f 84 07 fe ff ff    	je     c560 <__trunctfsf2@@GCC_4.3.0+0x260>
    c759:	31 c9                	xor    %ecx,%ecx
    c75b:	bf 28 00 00 00       	mov    $0x28,%edi
    c760:	41 ba fe 00 00 00    	mov    $0xfe,%r10d
    c766:	48 c7 c2 ff ff ff ff 	mov    $0xffffffffffffffff,%rdx
    c76d:	e9 09 ff ff ff       	jmpq   c67b <__trunctfsf2@@GCC_4.3.0+0x37b>
    c772:	66 0f 1f 44 00 00    	nopw   0x0(%rax,%rax,1)
    c778:	49 83 f8 01          	cmp    $0x1,%r8
    c77c:	b8 00 00 00 00       	mov    $0x0,%eax
    c781:	48 b9 ff ff ff ff ff 	movabs $0x1fffffffffffffff,%rcx
    c788:	ff ff 1f 
    c78b:	19 d2                	sbb    %edx,%edx
    c78d:	83 ca fe             	or     $0xfffffffe,%edx
    c790:	4d 85 c0             	test   %r8,%r8
    c793:	48 0f 45 c1          	cmovne %rcx,%rax
    c797:	e9 3b ff ff ff       	jmpq   c6d7 <__trunctfsf2@@GCC_4.3.0+0x3d7>
    c79c:	45 31 d2             	xor    %r10d,%r10d
    c79f:	e9 c8 fc ff ff       	jmpq   c46c <__trunctfsf2@@GCC_4.3.0+0x16c>
    c7a4:	66 2e 0f 1f 84 00 00 	nopw   %cs:0x0(%rax,%rax,1)
    c7ab:	00 00 00 
    c7ae:	66 90                	xchg   %ax,%ax

000000000000c7b0 <__trunctfdf2@@GCC_4.3.0>:
    c7b0:	f3 0f 1e fa          	endbr64 
    c7b4:	48 83 ec 28          	sub    $0x28,%rsp
    c7b8:	0f 29 04 24          	movaps %xmm0,(%rsp)
    c7bc:	0f ae 5c 24 1c       	stmxcsr 0x1c(%rsp)
    c7c1:	48 8b 54 24 08       	mov    0x8(%rsp),%rdx
    c7c6:	48 8b 0c 24          	mov    (%rsp),%rcx
    c7ca:	48 bf ff ff ff ff ff 	movabs $0xffffffffffff,%rdi
    c7d1:	ff 00 00 
    c7d4:	48 89 d0             	mov    %rdx,%rax
    c7d7:	49 89 d1             	mov    %rdx,%r9
    c7da:	48 21 fa             	and    %rdi,%rdx
    c7dd:	48 89 cf             	mov    %rcx,%rdi
    c7e0:	48 c1 e8 30          	shr    $0x30,%rax
    c7e4:	48 c1 ef 3d          	shr    $0x3d,%rdi
    c7e8:	4c 8d 04 cd 00 00 00 	lea    0x0(,%rcx,8),%r8
    c7ef:	00 
    c7f0:	48 c1 e2 03          	shl    $0x3,%rdx
    c7f4:	25 ff 7f 00 00       	and    $0x7fff,%eax
    c7f9:	49 c1 e9 3f          	shr    $0x3f,%r9
    c7fd:	48 09 fa             	or     %rdi,%rdx
    c800:	48 8d 78 01          	lea    0x1(%rax),%rdi
    c804:	4c 89 ce             	mov    %r9,%rsi
    c807:	f7 c7 fe 7f 00 00    	test   $0x7ffe,%edi
    c80d:	0f 84 1d 01 00 00    	je     c930 <__trunctfdf2@@GCC_4.3.0+0x180>
    c813:	4c 8d 98 00 c4 ff ff 	lea    -0x3c00(%rax),%r11
    c81a:	49 81 fb fe 07 00 00 	cmp    $0x7fe,%r11
    c821:	7e 5d                	jle    c880 <__trunctfdf2@@GCC_4.3.0+0xd0>
    c823:	8b 44 24 1c          	mov    0x1c(%rsp),%eax
    c827:	25 00 60 00 00       	and    $0x6000,%eax
    c82c:	0f 84 be 01 00 00    	je     c9f0 <__trunctfdf2@@GCC_4.3.0+0x240>
    c832:	3d 00 40 00 00       	cmp    $0x4000,%eax
    c837:	0f 84 43 04 00 00    	je     cc80 <__trunctfdf2@@GCC_4.3.0+0x4d0>
    c83d:	3d 00 20 00 00       	cmp    $0x2000,%eax
    c842:	0f 85 90 02 00 00    	jne    cad8 <__trunctfdf2@@GCC_4.3.0+0x328>
    c848:	45 84 c9             	test   %r9b,%r9b
    c84b:	0f 85 9f 01 00 00    	jne    c9f0 <__trunctfdf2@@GCC_4.3.0+0x240>
    c851:	3d 00 20 00 00       	cmp    $0x2000,%eax
    c856:	0f 85 7c 02 00 00    	jne    cad8 <__trunctfdf2@@GCC_4.3.0+0x328>
    c85c:	41 bb fe 07 00 00    	mov    $0x7fe,%r11d
    c862:	bf 28 00 00 00       	mov    $0x28,%edi
    c867:	31 c0                	xor    %eax,%eax
    c869:	49 c7 c2 ff ff ff ff 	mov    $0xffffffffffffffff,%r10
    c870:	4d 8d 14 f2          	lea    (%r10,%rsi,8),%r10
    c874:	eb 66                	jmp    c8dc <__trunctfdf2@@GCC_4.3.0+0x12c>
    c876:	66 2e 0f 1f 84 00 00 	nopw   %cs:0x0(%rax,%rax,1)
    c87d:	00 00 00 
    c880:	4d 85 db             	test   %r11,%r11
    c883:	0f 8e d7 01 00 00    	jle    ca60 <__trunctfdf2@@GCC_4.3.0+0x2b0>
    c889:	31 c0                	xor    %eax,%eax
    c88b:	48 c1 e1 07          	shl    $0x7,%rcx
    c88f:	0f 95 c0             	setne  %al
    c892:	49 c1 e8 3c          	shr    $0x3c,%r8
    c896:	49 09 c0             	or     %rax,%r8
    c899:	48 c1 e2 04          	shl    $0x4,%rdx
    c89d:	4c 09 c2             	or     %r8,%rdx
    c8a0:	41 83 e0 07          	and    $0x7,%r8d
    c8a4:	49 89 d2             	mov    %rdx,%r10
    c8a7:	0f 84 fb 03 00 00    	je     cca8 <__trunctfdf2@@GCC_4.3.0+0x4f8>
    c8ad:	8b 4c 24 1c          	mov    0x1c(%rsp),%ecx
    c8b1:	bf 20 00 00 00       	mov    $0x20,%edi
    c8b6:	31 c0                	xor    %eax,%eax
    c8b8:	81 e1 00 60 00 00    	and    $0x6000,%ecx
    c8be:	66 90                	xchg   %ax,%ax
    c8c0:	81 f9 00 20 00 00    	cmp    $0x2000,%ecx
    c8c6:	74 a8                	je     c870 <__trunctfdf2@@GCC_4.3.0+0xc0>
    c8c8:	81 f9 00 40 00 00    	cmp    $0x4000,%ecx
    c8ce:	0f 84 1c 03 00 00    	je     cbf0 <__trunctfdf2@@GCC_4.3.0+0x440>
    c8d4:	85 c9                	test   %ecx,%ecx
    c8d6:	0f 84 54 02 00 00    	je     cb30 <__trunctfdf2@@GCC_4.3.0+0x380>
    c8dc:	49 b8 00 00 00 00 00 	movabs $0x80000000000000,%r8
    c8e3:	00 80 00 
    c8e6:	4d 21 d0             	and    %r10,%r8
    c8e9:	85 c0                	test   %eax,%eax
    c8eb:	74 03                	je     c8f0 <__trunctfdf2@@GCC_4.3.0+0x140>
    c8ed:	83 cf 10             	or     $0x10,%edi
    c8f0:	4d 85 c0             	test   %r8,%r8
    c8f3:	0f 84 98 02 00 00    	je     cb91 <__trunctfdf2@@GCC_4.3.0+0x3e1>
    c8f9:	49 8d 43 01          	lea    0x1(%r11),%rax
    c8fd:	49 81 fb fe 07 00 00 	cmp    $0x7fe,%r11
    c904:	0f 84 e6 01 00 00    	je     caf0 <__trunctfdf2@@GCC_4.3.0+0x340>
    c90a:	4c 89 d2             	mov    %r10,%rdx
    c90d:	66 25 ff 07          	and    $0x7ff,%ax
    c911:	48 b9 ff ff ff ff ff 	movabs $0x1fefffffffffffff,%rcx
    c918:	ff ef 1f 
    c91b:	48 c1 ea 03          	shr    $0x3,%rdx
    c91f:	48 21 ca             	and    %rcx,%rdx
    c922:	49 89 d2             	mov    %rdx,%r10
    c925:	e9 99 00 00 00       	jmpq   c9c3 <__trunctfdf2@@GCC_4.3.0+0x213>
    c92a:	66 0f 1f 44 00 00    	nopw   0x0(%rax,%rax,1)
    c930:	48 89 d1             	mov    %rdx,%rcx
    c933:	4c 09 c1             	or     %r8,%rcx
    c936:	48 85 c0             	test   %rax,%rax
    c939:	75 75                	jne    c9b0 <__trunctfdf2@@GCC_4.3.0+0x200>
    c93b:	bf 22 00 00 00       	mov    $0x22,%edi
    c940:	48 85 c9             	test   %rcx,%rcx
    c943:	74 75                	je     c9ba <__trunctfdf2@@GCC_4.3.0+0x20a>
    c945:	ba 01 00 00 00       	mov    $0x1,%edx
    c94a:	41 ba 01 00 00 00    	mov    $0x1,%r10d
    c950:	b9 02 00 00 00       	mov    $0x2,%ecx
    c955:	8b 44 24 1c          	mov    0x1c(%rsp),%eax
    c959:	25 00 60 00 00       	and    $0x6000,%eax
    c95e:	3d 00 20 00 00       	cmp    $0x2000,%eax
    c963:	0f 84 c7 02 00 00    	je     cc30 <__trunctfdf2@@GCC_4.3.0+0x480>
    c969:	3d 00 40 00 00       	cmp    $0x4000,%eax
    c96e:	0f 84 ac 02 00 00    	je     cc20 <__trunctfdf2@@GCC_4.3.0+0x470>
    c974:	85 c0                	test   %eax,%eax
    c976:	0f 84 84 02 00 00    	je     cc00 <__trunctfdf2@@GCC_4.3.0+0x450>
    c97c:	48 b8 00 00 00 00 00 	movabs $0x100000000000000,%rax
    c983:	00 00 01 
    c986:	48 21 c1             	and    %rax,%rcx
    c989:	0f 94 c0             	sete   %al
    c98c:	0f b6 c0             	movzbl %al,%eax
    c98f:	48 85 d2             	test   %rdx,%rdx
    c992:	0f 84 b8 01 00 00    	je     cb50 <__trunctfdf2@@GCC_4.3.0+0x3a0>
    c998:	8b 4c 24 1c          	mov    0x1c(%rsp),%ecx
    c99c:	83 cf 20             	or     $0x20,%edi
    c99f:	45 31 db             	xor    %r11d,%r11d
    c9a2:	81 e1 00 60 00 00    	and    $0x6000,%ecx
    c9a8:	e9 13 ff ff ff       	jmpq   c8c0 <__trunctfdf2@@GCC_4.3.0+0x110>
    c9ad:	0f 1f 00             	nopl   (%rax)
    c9b0:	48 85 c9             	test   %rcx,%rcx
    c9b3:	75 4b                	jne    ca00 <__trunctfdf2@@GCC_4.3.0+0x250>
    c9b5:	b8 ff 07 00 00       	mov    $0x7ff,%eax
    c9ba:	31 ff                	xor    %edi,%edi
    c9bc:	66 25 ff 07          	and    $0x7ff,%ax
    c9c0:	45 31 d2             	xor    %r10d,%r10d
    c9c3:	48 ba ff ff ff ff ff 	movabs $0xfffffffffffff,%rdx
    c9ca:	ff 0f 00 
    c9cd:	48 c1 e0 34          	shl    $0x34,%rax
    c9d1:	4c 21 d2             	and    %r10,%rdx
    c9d4:	48 c1 e6 3f          	shl    $0x3f,%rsi
    c9d8:	48 09 d0             	or     %rdx,%rax
    c9db:	48 09 f0             	or     %rsi,%rax
    c9de:	66 48 0f 6e c0       	movq   %rax,%xmm0
    c9e3:	85 ff                	test   %edi,%edi
    c9e5:	0f 85 e7 01 00 00    	jne    cbd2 <__trunctfdf2@@GCC_4.3.0+0x422>
    c9eb:	48 83 c4 28          	add    $0x28,%rsp
    c9ef:	c3                   	retq   
    c9f0:	b8 ff 07 00 00       	mov    $0x7ff,%eax
    c9f5:	bf 28 00 00 00       	mov    $0x28,%edi
    c9fa:	eb c0                	jmp    c9bc <__trunctfdf2@@GCC_4.3.0+0x20c>
    c9fc:	0f 1f 40 00          	nopl   0x0(%rax)
    ca00:	48 89 d7             	mov    %rdx,%rdi
    ca03:	41 bb ff 07 00 00    	mov    $0x7ff,%r11d
    ca09:	48 c1 ef 32          	shr    $0x32,%rdi
    ca0d:	83 f7 01             	xor    $0x1,%edi
    ca10:	48 3d ff 7f 00 00    	cmp    $0x7fff,%rax
    ca16:	b8 00 00 00 00       	mov    $0x0,%eax
    ca1b:	0f 45 f8             	cmovne %eax,%edi
    ca1e:	49 c1 e8 3c          	shr    $0x3c,%r8
    ca22:	48 c1 e2 04          	shl    $0x4,%rdx
    ca26:	4c 09 c2             	or     %r8,%rdx
    ca29:	48 83 e2 f8          	and    $0xfffffffffffffff8,%rdx
    ca2d:	48 0f ba ea 36       	bts    $0x36,%rdx
    ca32:	49 89 d2             	mov    %rdx,%r10
    ca35:	44 89 d8             	mov    %r11d,%eax
    ca38:	66 25 ff 07          	and    $0x7ff,%ax
    ca3c:	49 c1 ea 03          	shr    $0x3,%r10
    ca40:	74 81                	je     c9c3 <__trunctfdf2@@GCC_4.3.0+0x213>
    ca42:	49 81 fb ff 07 00 00 	cmp    $0x7ff,%r11
    ca49:	0f 85 74 ff ff ff    	jne    c9c3 <__trunctfdf2@@GCC_4.3.0+0x213>
    ca4f:	49 0f ba ea 33       	bts    $0x33,%r10
    ca54:	b8 ff 07 00 00       	mov    $0x7ff,%eax
    ca59:	e9 65 ff ff ff       	jmpq   c9c3 <__trunctfdf2@@GCC_4.3.0+0x213>
    ca5e:	66 90                	xchg   %ax,%ax
    ca60:	49 83 fb cc          	cmp    $0xffffffffffffffcc,%r11
    ca64:	0f 8c d6 01 00 00    	jl     cc40 <__trunctfdf2@@GCC_4.3.0+0x490>
    ca6a:	b8 3d 00 00 00       	mov    $0x3d,%eax
    ca6f:	48 0f ba ea 33       	bts    $0x33,%rdx
    ca74:	4c 29 d8             	sub    %r11,%rax
    ca77:	48 83 f8 3f          	cmp    $0x3f,%rax
    ca7b:	0f 8e cf 01 00 00    	jle    cc50 <__trunctfdf2@@GCC_4.3.0+0x4a0>
    ca81:	b9 fd ff ff ff       	mov    $0xfffffffd,%ecx
    ca86:	49 89 d2             	mov    %rdx,%r10
    ca89:	44 29 d9             	sub    %r11d,%ecx
    ca8c:	49 d3 ea             	shr    %cl,%r10
    ca8f:	48 83 f8 40          	cmp    $0x40,%rax
    ca93:	74 0a                	je     ca9f <__trunctfdf2@@GCC_4.3.0+0x2ef>
    ca95:	41 8d 4b 43          	lea    0x43(%r11),%ecx
    ca99:	48 d3 e2             	shl    %cl,%rdx
    ca9c:	49 09 d0             	or     %rdx,%r8
    ca9f:	31 d2                	xor    %edx,%edx
    caa1:	4d 85 c0             	test   %r8,%r8
    caa4:	0f 95 c2             	setne  %dl
    caa7:	49 09 d2             	or     %rdx,%r10
    caaa:	4c 89 d2             	mov    %r10,%rdx
    caad:	83 e2 07             	and    $0x7,%edx
    cab0:	4d 85 d2             	test   %r10,%r10
    cab3:	0f 84 1b 02 00 00    	je     ccd4 <__trunctfdf2@@GCC_4.3.0+0x524>
    cab9:	4b 8d 0c 12          	lea    (%r10,%r10,1),%rcx
    cabd:	31 ff                	xor    %edi,%edi
    cabf:	f6 c1 06             	test   $0x6,%cl
    cac2:	0f 84 b4 fe ff ff    	je     c97c <__trunctfdf2@@GCC_4.3.0+0x1cc>
    cac8:	bf 20 00 00 00       	mov    $0x20,%edi
    cacd:	e9 83 fe ff ff       	jmpq   c955 <__trunctfdf2@@GCC_4.3.0+0x1a5>
    cad2:	66 0f 1f 44 00 00    	nopw   0x0(%rax,%rax,1)
    cad8:	bf 28 00 00 00       	mov    $0x28,%edi
    cadd:	49 c7 c2 ff ff ff ff 	mov    $0xffffffffffffffff,%r10
    cae4:	41 bb fe 07 00 00    	mov    $0x7fe,%r11d
    caea:	e9 0a fe ff ff       	jmpq   c8f9 <__trunctfdf2@@GCC_4.3.0+0x149>
    caef:	90                   	nop
    caf0:	8b 44 24 1c          	mov    0x1c(%rsp),%eax
    caf4:	25 00 60 00 00       	and    $0x6000,%eax
    caf9:	0f 84 a9 00 00 00    	je     cba8 <__trunctfdf2@@GCC_4.3.0+0x3f8>
    caff:	3d 00 40 00 00       	cmp    $0x4000,%eax
    cb04:	0f 84 a6 01 00 00    	je     ccb0 <__trunctfdf2@@GCC_4.3.0+0x500>
    cb0a:	3d 00 20 00 00       	cmp    $0x2000,%eax
    cb0f:	75 09                	jne    cb1a <__trunctfdf2@@GCC_4.3.0+0x36a>
    cb11:	45 84 c9             	test   %r9b,%r9b
    cb14:	0f 85 8e 00 00 00    	jne    cba8 <__trunctfdf2@@GCC_4.3.0+0x3f8>
    cb1a:	48 b8 ff ff ff ff ff 	movabs $0x1fffffffffffffff,%rax
    cb21:	ff ff 1f 
    cb24:	ba fe 07 00 00       	mov    $0x7fe,%edx
    cb29:	e9 81 00 00 00       	jmpq   cbaf <__trunctfdf2@@GCC_4.3.0+0x3ff>
    cb2e:	66 90                	xchg   %ax,%ax
    cb30:	4c 89 d1             	mov    %r10,%rcx
    cb33:	49 8d 52 04          	lea    0x4(%r10),%rdx
    cb37:	83 e1 0f             	and    $0xf,%ecx
    cb3a:	48 83 f9 04          	cmp    $0x4,%rcx
    cb3e:	4c 0f 45 d2          	cmovne %rdx,%r10
    cb42:	e9 95 fd ff ff       	jmpq   c8dc <__trunctfdf2@@GCC_4.3.0+0x12c>
    cb47:	66 0f 1f 84 00 00 00 	nopw   0x0(%rax,%rax,1)
    cb4e:	00 00 
    cb50:	49 b8 00 00 00 00 00 	movabs $0x80000000000000,%r8
    cb57:	00 80 00 
    cb5a:	4d 21 d0             	and    %r10,%r8
    cb5d:	48 85 c9             	test   %rcx,%rcx
    cb60:	75 1e                	jne    cb80 <__trunctfdf2@@GCC_4.3.0+0x3d0>
    cb62:	40 f6 c7 20          	test   $0x20,%dil
    cb66:	75 07                	jne    cb6f <__trunctfdf2@@GCC_4.3.0+0x3bf>
    cb68:	f6 44 24 1d 08       	testb  $0x8,0x1d(%rsp)
    cb6d:	75 11                	jne    cb80 <__trunctfdf2@@GCC_4.3.0+0x3d0>
    cb6f:	45 31 db             	xor    %r11d,%r11d
    cb72:	e9 76 fd ff ff       	jmpq   c8ed <__trunctfdf2@@GCC_4.3.0+0x13d>
    cb77:	66 0f 1f 84 00 00 00 	nopw   0x0(%rax,%rax,1)
    cb7e:	00 00 
    cb80:	b8 01 00 00 00       	mov    $0x1,%eax
    cb85:	45 31 db             	xor    %r11d,%r11d
    cb88:	4d 85 c0             	test   %r8,%r8
    cb8b:	0f 85 79 fd ff ff    	jne    c90a <__trunctfdf2@@GCC_4.3.0+0x15a>
    cb91:	44 89 d8             	mov    %r11d,%eax
    cb94:	49 c1 ea 03          	shr    $0x3,%r10
    cb98:	66 25 ff 07          	and    $0x7ff,%ax
    cb9c:	e9 22 fe ff ff       	jmpq   c9c3 <__trunctfdf2@@GCC_4.3.0+0x213>
    cba1:	0f 1f 80 00 00 00 00 	nopl   0x0(%rax)
    cba8:	ba ff 07 00 00       	mov    $0x7ff,%edx
    cbad:	31 c0                	xor    %eax,%eax
    cbaf:	48 c1 e2 34          	shl    $0x34,%rdx
    cbb3:	48 c1 e6 3f          	shl    $0x3f,%rsi
    cbb7:	83 cf 28             	or     $0x28,%edi
    cbba:	48 b9 ff ff ff ff ff 	movabs $0xfffffffffffff,%rcx
    cbc1:	ff 0f 00 
    cbc4:	48 21 c8             	and    %rcx,%rax
    cbc7:	48 09 c2             	or     %rax,%rdx
    cbca:	48 09 f2             	or     %rsi,%rdx
    cbcd:	66 48 0f 6e c2       	movq   %rdx,%xmm0
    cbd2:	f2 0f 11 04 24       	movsd  %xmm0,(%rsp)
    cbd7:	e8 24 a0 ff ff       	callq  6c00 <__udivmodti4@@GCC_3.0+0x1d0>
    cbdc:	f2 0f 10 04 24       	movsd  (%rsp),%xmm0
    cbe1:	48 83 c4 28          	add    $0x28,%rsp
    cbe5:	c3                   	retq   
    cbe6:	66 2e 0f 1f 84 00 00 	nopw   %cs:0x0(%rax,%rax,1)
    cbed:	00 00 00 
    cbf0:	49 8d 52 08          	lea    0x8(%r10),%rdx
    cbf4:	48 85 f6             	test   %rsi,%rsi
    cbf7:	4c 0f 44 d2          	cmove  %rdx,%r10
    cbfb:	e9 dc fc ff ff       	jmpq   c8dc <__trunctfdf2@@GCC_4.3.0+0x12c>
    cc00:	49 89 c8             	mov    %rcx,%r8
    cc03:	48 8d 41 04          	lea    0x4(%rcx),%rax
    cc07:	41 83 e0 0f          	and    $0xf,%r8d
    cc0b:	49 83 f8 04          	cmp    $0x4,%r8
    cc0f:	48 0f 45 c8          	cmovne %rax,%rcx
    cc13:	e9 64 fd ff ff       	jmpq   c97c <__trunctfdf2@@GCC_4.3.0+0x1cc>
    cc18:	0f 1f 84 00 00 00 00 	nopl   0x0(%rax,%rax,1)
    cc1f:	00 
    cc20:	48 8d 41 08          	lea    0x8(%rcx),%rax
    cc24:	48 85 f6             	test   %rsi,%rsi
    cc27:	48 0f 44 c8          	cmove  %rax,%rcx
    cc2b:	e9 4c fd ff ff       	jmpq   c97c <__trunctfdf2@@GCC_4.3.0+0x1cc>
    cc30:	48 8d 0c f1          	lea    (%rcx,%rsi,8),%rcx
    cc34:	e9 43 fd ff ff       	jmpq   c97c <__trunctfdf2@@GCC_4.3.0+0x1cc>
    cc39:	0f 1f 80 00 00 00 00 	nopl   0x0(%rax)
    cc40:	bf 20 00 00 00       	mov    $0x20,%edi
    cc45:	e9 fb fc ff ff       	jmpq   c945 <__trunctfdf2@@GCC_4.3.0+0x195>
    cc4a:	66 0f 1f 44 00 00    	nopw   0x0(%rax,%rax,1)
    cc50:	b9 3d 00 00 00       	mov    $0x3d,%ecx
    cc55:	4d 89 c2             	mov    %r8,%r10
    cc58:	41 8d 7b 03          	lea    0x3(%r11),%edi
    cc5c:	31 c0                	xor    %eax,%eax
    cc5e:	44 29 d9             	sub    %r11d,%ecx
    cc61:	49 d3 ea             	shr    %cl,%r10
    cc64:	89 f9                	mov    %edi,%ecx
    cc66:	49 d3 e0             	shl    %cl,%r8
    cc69:	4d 85 c0             	test   %r8,%r8
    cc6c:	0f 95 c0             	setne  %al
    cc6f:	48 d3 e2             	shl    %cl,%rdx
    cc72:	4c 09 d0             	or     %r10,%rax
    cc75:	48 09 c2             	or     %rax,%rdx
    cc78:	49 89 d2             	mov    %rdx,%r10
    cc7b:	e9 2a fe ff ff       	jmpq   caaa <__trunctfdf2@@GCC_4.3.0+0x2fa>
    cc80:	4d 85 c9             	test   %r9,%r9
    cc83:	0f 84 67 fd ff ff    	je     c9f0 <__trunctfdf2@@GCC_4.3.0+0x240>
    cc89:	41 bb fe 07 00 00    	mov    $0x7fe,%r11d
    cc8f:	31 c0                	xor    %eax,%eax
    cc91:	bf 28 00 00 00       	mov    $0x28,%edi
    cc96:	49 c7 c2 ff ff ff ff 	mov    $0xffffffffffffffff,%r10
    cc9d:	e9 3a fc ff ff       	jmpq   c8dc <__trunctfdf2@@GCC_4.3.0+0x12c>
    cca2:	66 0f 1f 44 00 00    	nopw   0x0(%rax,%rax,1)
    cca8:	31 ff                	xor    %edi,%edi
    ccaa:	e9 86 fd ff ff       	jmpq   ca35 <__trunctfdf2@@GCC_4.3.0+0x285>
    ccaf:	90                   	nop
    ccb0:	89 f2                	mov    %esi,%edx
    ccb2:	b8 00 00 00 00       	mov    $0x0,%eax
    ccb7:	48 b9 ff ff ff ff ff 	movabs $0x1fffffffffffffff,%rcx
    ccbe:	ff ff 1f 
    ccc1:	f7 da                	neg    %edx
    ccc3:	66 81 c2 ff 07       	add    $0x7ff,%dx
    ccc8:	48 85 f6             	test   %rsi,%rsi
    cccb:	48 0f 45 c1          	cmovne %rcx,%rax
    cccf:	e9 db fe ff ff       	jmpq   cbaf <__trunctfdf2@@GCC_4.3.0+0x3ff>
    ccd4:	31 c0                	xor    %eax,%eax
    ccd6:	31 ff                	xor    %edi,%edi
    ccd8:	e9 e6 fc ff ff       	jmpq   c9c3 <__trunctfdf2@@GCC_4.3.0+0x213>
    ccdd:	0f 1f 00             	nopl   (%rax)

000000000000cce0 <__trunctfxf2@@GCC_4.3.0>:
    cce0:	f3 0f 1e fa          	endbr64 
    cce4:	53                   	push   %rbx
    cce5:	48 83 ec 30          	sub    $0x30,%rsp
    cce9:	0f 29 04 24          	movaps %xmm0,(%rsp)
    cced:	0f ae 5c 24 1c       	stmxcsr 0x1c(%rsp)
    ccf2:	48 8b 44 24 08       	mov    0x8(%rsp),%rax
    ccf7:	48 8b 0c 24          	mov    (%rsp),%rcx
    ccfb:	48 ba ff ff ff ff ff 	movabs $0xffffffffffff,%rdx
    cd02:	ff 00 00 
    cd05:	49 89 c1             	mov    %rax,%r9
    cd08:	48 89 c6             	mov    %rax,%rsi
    cd0b:	48 21 d0             	and    %rdx,%rax
    cd0e:	48 89 ca             	mov    %rcx,%rdx
    cd11:	49 c1 e9 30          	shr    $0x30,%r9
    cd15:	48 c1 ea 3d          	shr    $0x3d,%rdx
    cd19:	48 8d 3c cd 00 00 00 	lea    0x0(,%rcx,8),%rdi
    cd20:	00 
    cd21:	48 c1 e0 03          	shl    $0x3,%rax
    cd25:	41 81 e1 ff 7f 00 00 	and    $0x7fff,%r9d
    cd2c:	48 c1 ee 3f          	shr    $0x3f,%rsi
    cd30:	48 09 d0             	or     %rdx,%rax
    cd33:	49 8d 51 01          	lea    0x1(%r9),%rdx
    cd37:	49 89 f2             	mov    %rsi,%r10
    cd3a:	f7 c2 fe 7f 00 00    	test   $0x7ffe,%edx
    cd40:	0f 84 0a 01 00 00    	je     ce50 <__trunctfxf2@@GCC_4.3.0+0x170>
    cd46:	49 81 f9 ff 7f 00 00 	cmp    $0x7fff,%r9
    cd4d:	0f 84 bd 01 00 00    	je     cf10 <__trunctfxf2@@GCC_4.3.0+0x230>
    cd53:	4d 85 c9             	test   %r9,%r9
    cd56:	0f 84 24 02 00 00    	je     cf80 <__trunctfxf2@@GCC_4.3.0+0x2a0>
    cd5c:	48 c1 e1 12          	shl    $0x12,%rcx
    cd60:	48 89 c2             	mov    %rax,%rdx
    cd63:	0f 95 c1             	setne  %cl
    cd66:	48 c1 ef 31          	shr    $0x31,%rdi
    cd6a:	48 c1 e2 0f          	shl    $0xf,%rdx
    cd6e:	0f b6 c9             	movzbl %cl,%ecx
    cd71:	48 c1 e8 31          	shr    $0x31,%rax
    cd75:	48 09 cf             	or     %rcx,%rdi
    cd78:	48 09 fa             	or     %rdi,%rdx
    cd7b:	83 e7 07             	and    $0x7,%edi
    cd7e:	0f 84 6a 05 00 00    	je     d2ee <__trunctfxf2@@GCC_4.3.0+0x60e>
    cd84:	8b 4c 24 1c          	mov    0x1c(%rsp),%ecx
    cd88:	45 31 db             	xor    %r11d,%r11d
    cd8b:	45 31 c0             	xor    %r8d,%r8d
    cd8e:	89 cf                	mov    %ecx,%edi
    cd90:	41 83 c8 20          	or     $0x20,%r8d
    cd94:	81 e7 00 60 00 00    	and    $0x6000,%edi
    cd9a:	81 ff 00 20 00 00    	cmp    $0x2000,%edi
    cda0:	0f 84 42 04 00 00    	je     d1e8 <__trunctfxf2@@GCC_4.3.0+0x508>
    cda6:	81 ff 00 40 00 00    	cmp    $0x4000,%edi
    cdac:	0f 84 1e 04 00 00    	je     d1d0 <__trunctfxf2@@GCC_4.3.0+0x4f0>
    cdb2:	85 ff                	test   %edi,%edi
    cdb4:	0f 84 e6 03 00 00    	je     d1a0 <__trunctfxf2@@GCC_4.3.0+0x4c0>
    cdba:	45 85 db             	test   %r11d,%r11d
    cdbd:	0f 84 98 03 00 00    	je     d15b <__trunctfxf2@@GCC_4.3.0+0x47b>
    cdc3:	41 83 c8 10          	or     $0x10,%r8d
    cdc7:	a8 04                	test   $0x4,%al
    cdc9:	0f 84 8c 03 00 00    	je     d15b <__trunctfxf2@@GCC_4.3.0+0x47b>
    cdcf:	49 8d 79 01          	lea    0x1(%r9),%rdi
    cdd3:	49 81 f9 fe 7f 00 00 	cmp    $0x7ffe,%r9
    cdda:	0f 84 f0 02 00 00    	je     d0d0 <__trunctfxf2@@GCC_4.3.0+0x3f0>
    cde0:	48 b9 00 00 00 00 00 	movabs $0x6000000000000000,%rcx
    cde7:	00 00 60 
    cdea:	48 c1 e0 3d          	shl    $0x3d,%rax
    cdee:	48 21 c8             	and    %rcx,%rax
    cdf1:	48 c1 ea 03          	shr    $0x3,%rdx
    cdf5:	89 f9                	mov    %edi,%ecx
    cdf7:	48 09 d0             	or     %rdx,%rax
    cdfa:	66 81 e1 ff 7f       	and    $0x7fff,%cx
    cdff:	48 0f ba e8 3f       	bts    $0x3f,%rax
    ce04:	0f b7 54 24 28       	movzwl 0x28(%rsp),%edx
    ce09:	48 89 44 24 20       	mov    %rax,0x20(%rsp)
    ce0e:	89 f0                	mov    %esi,%eax
    ce10:	c1 e0 07             	shl    $0x7,%eax
    ce13:	66 81 e2 00 80       	and    $0x8000,%dx
    ce18:	09 ca                	or     %ecx,%edx
    ce1a:	0f b6 ce             	movzbl %dh,%ecx
    ce1d:	66 89 54 24 28       	mov    %dx,0x28(%rsp)
    ce22:	89 ce                	mov    %ecx,%esi
    ce24:	83 e6 7f             	and    $0x7f,%esi
    ce27:	09 c6                	or     %eax,%esi
    ce29:	40 88 74 24 29       	mov    %sil,0x29(%rsp)
    ce2e:	db 6c 24 20          	fldt   0x20(%rsp)
    ce32:	44 89 c7             	mov    %r8d,%edi
    ce35:	db 3c 24             	fstpt  (%rsp)
    ce38:	e8 c3 9d ff ff       	callq  6c00 <__udivmodti4@@GCC_3.0+0x1d0>
    ce3d:	db 2c 24             	fldt   (%rsp)
    ce40:	48 83 c4 30          	add    $0x30,%rsp
    ce44:	5b                   	pop    %rbx
    ce45:	c3                   	retq   
    ce46:	66 2e 0f 1f 84 00 00 	nopw   %cs:0x0(%rax,%rax,1)
    ce4d:	00 00 00 
    ce50:	48 89 c2             	mov    %rax,%rdx
    ce53:	48 09 fa             	or     %rdi,%rdx
    ce56:	4d 85 c9             	test   %r9,%r9
    ce59:	0f 85 89 00 00 00    	jne    cee8 <__trunctfxf2@@GCC_4.3.0+0x208>
    ce5f:	48 85 d2             	test   %rdx,%rdx
    ce62:	75 2c                	jne    ce90 <__trunctfxf2@@GCC_4.3.0+0x1b0>
    ce64:	c1 e6 07             	shl    $0x7,%esi
    ce67:	66 81 64 24 28 00 80 	andw   $0x8000,0x28(%rsp)
    ce6e:	48 c7 44 24 20 00 00 	movq   $0x0,0x20(%rsp)
    ce75:	00 00 
    ce77:	40 88 74 24 29       	mov    %sil,0x29(%rsp)
    ce7c:	db 6c 24 20          	fldt   0x20(%rsp)
    ce80:	48 83 c4 30          	add    $0x30,%rsp
    ce84:	5b                   	pop    %rbx
    ce85:	c3                   	retq   
    ce86:	66 2e 0f 1f 84 00 00 	nopw   %cs:0x0(%rax,%rax,1)
    ce8d:	00 00 00 
    ce90:	31 d2                	xor    %edx,%edx
    ce92:	48 c1 e1 12          	shl    $0x12,%rcx
    ce96:	0f 95 c2             	setne  %dl
    ce99:	48 c1 ef 31          	shr    $0x31,%rdi
    ce9d:	48 09 d7             	or     %rdx,%rdi
    cea0:	48 89 c2             	mov    %rax,%rdx
    cea3:	48 c1 e8 31          	shr    $0x31,%rax
    cea7:	48 c1 e2 0f          	shl    $0xf,%rdx
    ceab:	48 09 fa             	or     %rdi,%rdx
    ceae:	48 89 d3             	mov    %rdx,%rbx
    ceb1:	48 09 c3             	or     %rax,%rbx
    ceb4:	0f 85 fe 01 00 00    	jne    d0b8 <__trunctfxf2@@GCC_4.3.0+0x3d8>
    ceba:	c1 e6 07             	shl    $0x7,%esi
    cebd:	66 81 64 24 28 00 80 	andw   $0x8000,0x28(%rsp)
    cec4:	41 b8 02 00 00 00    	mov    $0x2,%r8d
    ceca:	48 c7 44 24 20 00 00 	movq   $0x0,0x20(%rsp)
    ced1:	00 00 
    ced3:	40 88 74 24 29       	mov    %sil,0x29(%rsp)
    ced8:	db 6c 24 20          	fldt   0x20(%rsp)
    cedc:	e9 51 ff ff ff       	jmpq   ce32 <__trunctfxf2@@GCC_4.3.0+0x152>
    cee1:	0f 1f 80 00 00 00 00 	nopl   0x0(%rax)
    cee8:	48 85 d2             	test   %rdx,%rdx
    ceeb:	0f 85 37 01 00 00    	jne    d028 <__trunctfxf2@@GCC_4.3.0+0x348>
    cef1:	45 31 c0             	xor    %r8d,%r8d
    cef4:	48 ba 00 00 00 00 00 	movabs $0x8000000000000000,%rdx
    cefb:	00 00 80 
    cefe:	41 b9 ff 7f 00 00    	mov    $0x7fff,%r9d
    cf04:	e9 72 01 00 00       	jmpq   d07b <__trunctfxf2@@GCC_4.3.0+0x39b>
    cf09:	0f 1f 80 00 00 00 00 	nopl   0x0(%rax)
    cf10:	8b 4c 24 1c          	mov    0x1c(%rsp),%ecx
    cf14:	89 c8                	mov    %ecx,%eax
    cf16:	25 00 60 00 00       	and    $0x6000,%eax
    cf1b:	0f 84 d7 02 00 00    	je     d1f8 <__trunctfxf2@@GCC_4.3.0+0x518>
    cf21:	3d 00 40 00 00       	cmp    $0x4000,%eax
    cf26:	0f 84 34 03 00 00    	je     d260 <__trunctfxf2@@GCC_4.3.0+0x580>
    cf2c:	3d 00 20 00 00       	cmp    $0x2000,%eax
    cf31:	0f 85 91 01 00 00    	jne    d0c8 <__trunctfxf2@@GCC_4.3.0+0x3e8>
    cf37:	40 84 f6             	test   %sil,%sil
    cf3a:	0f 85 b8 02 00 00    	jne    d1f8 <__trunctfxf2@@GCC_4.3.0+0x518>
    cf40:	3d 00 20 00 00       	cmp    $0x2000,%eax
    cf45:	0f 85 7d 01 00 00    	jne    d0c8 <__trunctfxf2@@GCC_4.3.0+0x3e8>
    cf4b:	48 85 f6             	test   %rsi,%rsi
    cf4e:	0f 84 7b 03 00 00    	je     d2cf <__trunctfxf2@@GCC_4.3.0+0x5ef>
    cf54:	48 c7 c0 ff ff ff ff 	mov    $0xffffffffffffffff,%rax
    cf5b:	48 c7 c2 ff ff ff ff 	mov    $0xffffffffffffffff,%rdx
    cf62:	41 b9 fe 7f 00 00    	mov    $0x7ffe,%r9d
    cf68:	45 31 db             	xor    %r11d,%r11d
    cf6b:	41 b8 28 00 00 00    	mov    $0x28,%r8d
    cf71:	e9 63 02 00 00       	jmpq   d1d9 <__trunctfxf2@@GCC_4.3.0+0x4f9>
    cf76:	66 2e 0f 1f 84 00 00 	nopw   %cs:0x0(%rax,%rax,1)
    cf7d:	00 00 00 
    cf80:	49 89 c0             	mov    %rax,%r8
    cf83:	31 d2                	xor    %edx,%edx
    cf85:	49 0f ba e8 33       	bts    $0x33,%r8
    cf8a:	48 c1 e1 11          	shl    $0x11,%rcx
    cf8e:	0f 95 c2             	setne  %dl
    cf91:	48 c1 e0 0e          	shl    $0xe,%rax
    cf95:	48 c1 ef 32          	shr    $0x32,%rdi
    cf99:	48 09 d7             	or     %rdx,%rdi
    cf9c:	48 89 c2             	mov    %rax,%rdx
    cf9f:	4c 89 c0             	mov    %r8,%rax
    cfa2:	45 31 c0             	xor    %r8d,%r8d
    cfa5:	48 09 fa             	or     %rdi,%rdx
    cfa8:	48 c1 e8 32          	shr    $0x32,%rax
    cfac:	4c 8d 0c 12          	lea    (%rdx,%rdx,1),%r9
    cfb0:	41 f6 c1 06          	test   $0x6,%r9b
    cfb4:	0f 84 7e 01 00 00    	je     d138 <__trunctfxf2@@GCC_4.3.0+0x458>
    cfba:	48 89 d1             	mov    %rdx,%rcx
    cfbd:	48 89 d3             	mov    %rdx,%rbx
    cfc0:	41 83 c8 20          	or     $0x20,%r8d
    cfc4:	48 c1 e9 3f          	shr    $0x3f,%rcx
    cfc8:	83 e3 07             	and    $0x7,%ebx
    cfcb:	48 8d 3c 41          	lea    (%rcx,%rax,2),%rdi
    cfcf:	8b 4c 24 1c          	mov    0x1c(%rsp),%ecx
    cfd3:	41 89 cb             	mov    %ecx,%r11d
    cfd6:	41 81 e3 00 60 00 00 	and    $0x6000,%r11d
    cfdd:	41 81 fb 00 20 00 00 	cmp    $0x2000,%r11d
    cfe4:	0f 84 9e 01 00 00    	je     d188 <__trunctfxf2@@GCC_4.3.0+0x4a8>
    cfea:	41 81 fb 00 40 00 00 	cmp    $0x4000,%r11d
    cff1:	0f 84 49 02 00 00    	je     d240 <__trunctfxf2@@GCC_4.3.0+0x560>
    cff7:	45 85 db             	test   %r11d,%r11d
    cffa:	0f 84 20 02 00 00    	je     d220 <__trunctfxf2@@GCC_4.3.0+0x540>
    d000:	45 31 db             	xor    %r11d,%r11d
    d003:	83 e7 08             	and    $0x8,%edi
    d006:	41 0f 94 c3          	sete   %r11b
    d00a:	45 31 c9             	xor    %r9d,%r9d
    d00d:	f6 c2 07             	test   $0x7,%dl
    d010:	0f 85 78 fd ff ff    	jne    cd8e <__trunctfxf2@@GCC_4.3.0+0xae>
    d016:	48 85 ff             	test   %rdi,%rdi
    d019:	0f 84 a4 fd ff ff    	je     cdc3 <__trunctfxf2@@GCC_4.3.0+0xe3>
    d01f:	e9 37 01 00 00       	jmpq   d15b <__trunctfxf2@@GCC_4.3.0+0x47b>
    d024:	0f 1f 40 00          	nopl   0x0(%rax)
    d028:	49 89 c0             	mov    %rax,%r8
    d02b:	ba 00 00 00 00       	mov    $0x0,%edx
    d030:	48 89 c1             	mov    %rax,%rcx
    d033:	49 c1 e8 32          	shr    $0x32,%r8
    d037:	41 83 f0 01          	xor    $0x1,%r8d
    d03b:	49 81 f9 ff 7f 00 00 	cmp    $0x7fff,%r9
    d042:	41 b9 ff 7f 00 00    	mov    $0x7fff,%r9d
    d048:	44 0f 45 c2          	cmovne %edx,%r8d
    d04c:	48 c1 e0 0f          	shl    $0xf,%rax
    d050:	48 89 c2             	mov    %rax,%rdx
    d053:	48 c1 ef 31          	shr    $0x31,%rdi
    d057:	48 b8 00 00 00 00 00 	movabs $0xc000000000000000,%rax
    d05e:	00 00 c0 
    d061:	48 c1 e9 31          	shr    $0x31,%rcx
    d065:	48 09 fa             	or     %rdi,%rdx
    d068:	48 c1 e1 3d          	shl    $0x3d,%rcx
    d06c:	48 c1 ea 03          	shr    $0x3,%rdx
    d070:	48 0f ba e9 3e       	bts    $0x3e,%rcx
    d075:	48 09 ca             	or     %rcx,%rdx
    d078:	48 09 c2             	or     %rax,%rdx
    d07b:	0f b7 44 24 28       	movzwl 0x28(%rsp),%eax
    d080:	48 89 54 24 20       	mov    %rdx,0x20(%rsp)
    d085:	c1 e6 07             	shl    $0x7,%esi
    d088:	66 25 00 80          	and    $0x8000,%ax
    d08c:	44 09 c8             	or     %r9d,%eax
    d08f:	0f b6 d4             	movzbl %ah,%edx
    d092:	66 89 44 24 28       	mov    %ax,0x28(%rsp)
    d097:	89 d0                	mov    %edx,%eax
    d099:	83 e0 7f             	and    $0x7f,%eax
    d09c:	09 f0                	or     %esi,%eax
    d09e:	88 44 24 29          	mov    %al,0x29(%rsp)
    d0a2:	db 6c 24 20          	fldt   0x20(%rsp)
    d0a6:	45 85 c0             	test   %r8d,%r8d
    d0a9:	0f 85 83 fd ff ff    	jne    ce32 <__trunctfxf2@@GCC_4.3.0+0x152>
    d0af:	48 83 c4 30          	add    $0x30,%rsp
    d0b3:	5b                   	pop    %rbx
    d0b4:	c3                   	retq   
    d0b5:	0f 1f 00             	nopl   (%rax)
    d0b8:	41 b8 02 00 00 00    	mov    $0x2,%r8d
    d0be:	e9 e9 fe ff ff       	jmpq   cfac <__trunctfxf2@@GCC_4.3.0+0x2cc>
    d0c3:	0f 1f 44 00 00       	nopl   0x0(%rax,%rax,1)
    d0c8:	41 b8 28 00 00 00    	mov    $0x28,%r8d
    d0ce:	66 90                	xchg   %ax,%ax
    d0d0:	81 e1 00 60 00 00    	and    $0x6000,%ecx
    d0d6:	0f 84 2c 01 00 00    	je     d208 <__trunctfxf2@@GCC_4.3.0+0x528>
    d0dc:	81 f9 00 40 00 00    	cmp    $0x4000,%ecx
    d0e2:	0f 84 a8 01 00 00    	je     d290 <__trunctfxf2@@GCC_4.3.0+0x5b0>
    d0e8:	41 83 c8 28          	or     $0x28,%r8d
    d0ec:	81 f9 00 20 00 00    	cmp    $0x2000,%ecx
    d0f2:	75 09                	jne    d0fd <__trunctfxf2@@GCC_4.3.0+0x41d>
    d0f4:	40 84 f6             	test   %sil,%sil
    d0f7:	0f 85 0f 01 00 00    	jne    d20c <__trunctfxf2@@GCC_4.3.0+0x52c>
    d0fd:	0f b7 44 24 28       	movzwl 0x28(%rsp),%eax
    d102:	c1 e6 07             	shl    $0x7,%esi
    d105:	48 c7 44 24 20 ff ff 	movq   $0xffffffffffffffff,0x20(%rsp)
    d10c:	ff ff 
    d10e:	66 25 00 80          	and    $0x8000,%ax
    d112:	66 0d fe 7f          	or     $0x7ffe,%ax
    d116:	66 89 44 24 28       	mov    %ax,0x28(%rsp)
    d11b:	0f b6 44 24 29       	movzbl 0x29(%rsp),%eax
    d120:	83 e0 7f             	and    $0x7f,%eax
    d123:	09 f0                	or     %esi,%eax
    d125:	88 44 24 29          	mov    %al,0x29(%rsp)
    d129:	db 6c 24 20          	fldt   0x20(%rsp)
    d12d:	e9 00 fd ff ff       	jmpq   ce32 <__trunctfxf2@@GCC_4.3.0+0x152>
    d132:	66 0f 1f 44 00 00    	nopw   0x0(%rax,%rax,1)
    d138:	f6 c2 07             	test   $0x7,%dl
    d13b:	74 12                	je     d14f <__trunctfxf2@@GCC_4.3.0+0x46f>
    d13d:	8b 4c 24 1c          	mov    0x1c(%rsp),%ecx
    d141:	45 31 c9             	xor    %r9d,%r9d
    d144:	41 bb 01 00 00 00    	mov    $0x1,%r11d
    d14a:	e9 3f fc ff ff       	jmpq   cd8e <__trunctfxf2@@GCC_4.3.0+0xae>
    d14f:	8b 4c 24 1c          	mov    0x1c(%rsp),%ecx
    d153:	45 31 c9             	xor    %r9d,%r9d
    d156:	f6 c5 08             	test   $0x8,%ch
    d159:	74 3d                	je     d198 <__trunctfxf2@@GCC_4.3.0+0x4b8>
    d15b:	48 89 d1             	mov    %rdx,%rcx
    d15e:	48 c1 e0 3d          	shl    $0x3d,%rax
    d162:	48 c1 e9 03          	shr    $0x3,%rcx
    d166:	48 09 c1             	or     %rax,%rcx
    d169:	48 89 ca             	mov    %rcx,%rdx
    d16c:	4d 85 c9             	test   %r9,%r9
    d16f:	0f 85 81 01 00 00    	jne    d2f6 <__trunctfxf2@@GCC_4.3.0+0x616>
    d175:	48 0f ba f2 3f       	btr    $0x3f,%rdx
    d17a:	45 31 c9             	xor    %r9d,%r9d
    d17d:	e9 f9 fe ff ff       	jmpq   d07b <__trunctfxf2@@GCC_4.3.0+0x39b>
    d182:	66 0f 1f 44 00 00    	nopw   0x0(%rax,%rax,1)
    d188:	4d 85 d2             	test   %r10,%r10
    d18b:	0f 85 b8 00 00 00    	jne    d249 <__trunctfxf2@@GCC_4.3.0+0x569>
    d191:	0f 1f 80 00 00 00 00 	nopl   0x0(%rax)
    d198:	45 31 c9             	xor    %r9d,%r9d
    d19b:	e9 23 fc ff ff       	jmpq   cdc3 <__trunctfxf2@@GCC_4.3.0+0xe3>
    d1a0:	48 89 d7             	mov    %rdx,%rdi
    d1a3:	83 e7 0f             	and    $0xf,%edi
    d1a6:	48 83 ff 04          	cmp    $0x4,%rdi
    d1aa:	0f 84 0a fc ff ff    	je     cdba <__trunctfxf2@@GCC_4.3.0+0xda>
    d1b0:	48 83 c2 04          	add    $0x4,%rdx
    d1b4:	48 83 d0 00          	adc    $0x0,%rax
    d1b8:	45 85 db             	test   %r11d,%r11d
    d1bb:	0f 84 06 fc ff ff    	je     cdc7 <__trunctfxf2@@GCC_4.3.0+0xe7>
    d1c1:	e9 fd fb ff ff       	jmpq   cdc3 <__trunctfxf2@@GCC_4.3.0+0xe3>
    d1c6:	66 2e 0f 1f 84 00 00 	nopw   %cs:0x0(%rax,%rax,1)
    d1cd:	00 00 00 
    d1d0:	4d 85 d2             	test   %r10,%r10
    d1d3:	0f 85 e1 fb ff ff    	jne    cdba <__trunctfxf2@@GCC_4.3.0+0xda>
    d1d9:	48 83 c2 08          	add    $0x8,%rdx
    d1dd:	48 83 d0 00          	adc    $0x0,%rax
    d1e1:	eb d5                	jmp    d1b8 <__trunctfxf2@@GCC_4.3.0+0x4d8>
    d1e3:	0f 1f 44 00 00       	nopl   0x0(%rax,%rax,1)
    d1e8:	4d 85 d2             	test   %r10,%r10
    d1eb:	75 ec                	jne    d1d9 <__trunctfxf2@@GCC_4.3.0+0x4f9>
    d1ed:	e9 c8 fb ff ff       	jmpq   cdba <__trunctfxf2@@GCC_4.3.0+0xda>
    d1f2:	66 0f 1f 44 00 00    	nopw   0x0(%rax,%rax,1)
    d1f8:	41 b8 28 00 00 00    	mov    $0x28,%r8d
    d1fe:	e9 f1 fc ff ff       	jmpq   cef4 <__trunctfxf2@@GCC_4.3.0+0x214>
    d203:	0f 1f 44 00 00       	nopl   0x0(%rax,%rax,1)
    d208:	41 83 c8 28          	or     $0x28,%r8d
    d20c:	48 b8 00 00 00 00 00 	movabs $0x8000000000000000,%rax
    d213:	00 00 80 
    d216:	b9 ff 7f 00 00       	mov    $0x7fff,%ecx
    d21b:	e9 e4 fb ff ff       	jmpq   ce04 <__trunctfxf2@@GCC_4.3.0+0x124>
    d220:	4d 89 cb             	mov    %r9,%r11
    d223:	41 83 e3 0f          	and    $0xf,%r11d
    d227:	49 83 fb 04          	cmp    $0x4,%r11
    d22b:	74 7b                	je     d2a8 <__trunctfxf2@@GCC_4.3.0+0x5c8>
    d22d:	49 83 c1 04          	add    $0x4,%r9
    d231:	48 83 d7 00          	adc    $0x0,%rdi
    d235:	e9 c6 fd ff ff       	jmpq   d000 <__trunctfxf2@@GCC_4.3.0+0x320>
    d23a:	66 0f 1f 44 00 00    	nopw   0x0(%rax,%rax,1)
    d240:	4d 85 d2             	test   %r10,%r10
    d243:	0f 85 4f ff ff ff    	jne    d198 <__trunctfxf2@@GCC_4.3.0+0x4b8>
    d249:	49 83 c1 08          	add    $0x8,%r9
    d24d:	48 83 d7 00          	adc    $0x0,%rdi
    d251:	e9 aa fd ff ff       	jmpq   d000 <__trunctfxf2@@GCC_4.3.0+0x320>
    d256:	66 2e 0f 1f 84 00 00 	nopw   %cs:0x0(%rax,%rax,1)
    d25d:	00 00 00 
    d260:	41 b8 28 00 00 00    	mov    $0x28,%r8d
    d266:	48 85 f6             	test   %rsi,%rsi
    d269:	0f 84 85 fc ff ff    	je     cef4 <__trunctfxf2@@GCC_4.3.0+0x214>
    d26f:	41 b9 fe 7f 00 00    	mov    $0x7ffe,%r9d
    d275:	48 c7 c0 ff ff ff ff 	mov    $0xffffffffffffffff,%rax
    d27c:	48 c7 c2 ff ff ff ff 	mov    $0xffffffffffffffff,%rdx
    d283:	e9 47 fb ff ff       	jmpq   cdcf <__trunctfxf2@@GCC_4.3.0+0xef>
    d288:	0f 1f 84 00 00 00 00 	nopl   0x0(%rax,%rax,1)
    d28f:	00 
    d290:	4d 85 d2             	test   %r10,%r10
    d293:	0f 84 6f ff ff ff    	je     d208 <__trunctfxf2@@GCC_4.3.0+0x528>
    d299:	41 83 c8 28          	or     $0x28,%r8d
    d29d:	e9 5b fe ff ff       	jmpq   d0fd <__trunctfxf2@@GCC_4.3.0+0x41d>
    d2a2:	66 0f 1f 44 00 00    	nopw   0x0(%rax,%rax,1)
    d2a8:	48 85 db             	test   %rbx,%rbx
    d2ab:	0f 84 e7 fe ff ff    	je     d198 <__trunctfxf2@@GCC_4.3.0+0x4b8>
    d2b1:	48 89 d7             	mov    %rdx,%rdi
    d2b4:	45 31 c9             	xor    %r9d,%r9d
    d2b7:	41 bb 01 00 00 00    	mov    $0x1,%r11d
    d2bd:	83 e7 0f             	and    $0xf,%edi
    d2c0:	48 83 ff 04          	cmp    $0x4,%rdi
    d2c4:	0f 85 e6 fe ff ff    	jne    d1b0 <__trunctfxf2@@GCC_4.3.0+0x4d0>
    d2ca:	e9 f4 fa ff ff       	jmpq   cdc3 <__trunctfxf2@@GCC_4.3.0+0xe3>
    d2cf:	41 b9 fe 7f 00 00    	mov    $0x7ffe,%r9d
    d2d5:	48 c7 c0 ff ff ff ff 	mov    $0xffffffffffffffff,%rax
    d2dc:	48 c7 c2 ff ff ff ff 	mov    $0xffffffffffffffff,%rdx
    d2e3:	41 b8 28 00 00 00    	mov    $0x28,%r8d
    d2e9:	e9 e1 fa ff ff       	jmpq   cdcf <__trunctfxf2@@GCC_4.3.0+0xef>
    d2ee:	45 31 c0             	xor    %r8d,%r8d
    d2f1:	e9 65 fe ff ff       	jmpq   d15b <__trunctfxf2@@GCC_4.3.0+0x47b>
    d2f6:	48 0f ba ea 3f       	bts    $0x3f,%rdx
    d2fb:	66 41 81 e1 ff 7f    	and    $0x7fff,%r9w
    d301:	e9 75 fd ff ff       	jmpq   d07b <__trunctfxf2@@GCC_4.3.0+0x39b>
    d306:	66 2e 0f 1f 84 00 00 	nopw   %cs:0x0(%rax,%rax,1)
    d30d:	00 00 00 

000000000000d310 <__getf2@@GCC_4.3.0>:
    d310:	f3 0f 1e fa          	endbr64 
    d314:	41 56                	push   %r14
    d316:	53                   	push   %rbx
    d317:	48 83 ec 38          	sub    $0x38,%rsp
    d31b:	0f 29 04 24          	movaps %xmm0,(%rsp)
    d31f:	0f 29 4c 24 10       	movaps %xmm1,0x10(%rsp)
    d324:	0f ae 5c 24 2c       	stmxcsr 0x2c(%rsp)
    d329:	48 8b 44 24 08       	mov    0x8(%rsp),%rax
    d32e:	4c 8b 0c 24          	mov    (%rsp),%r9
    d332:	48 ba ff ff ff ff ff 	movabs $0xffffffffffff,%rdx
    d339:	ff 00 00 
    d33c:	48 89 d1             	mov    %rdx,%rcx
    d33f:	48 8b 74 24 10       	mov    0x10(%rsp),%rsi
    d344:	49 89 c3             	mov    %rax,%r11
    d347:	48 89 c7             	mov    %rax,%rdi
    d34a:	48 c1 e8 3f          	shr    $0x3f,%rax
    d34e:	49 89 c0             	mov    %rax,%r8
    d351:	48 8b 44 24 18       	mov    0x18(%rsp),%rax
    d356:	49 21 d3             	and    %rdx,%r11
    d359:	48 c1 ef 30          	shr    $0x30,%rdi
    d35d:	48 89 c2             	mov    %rax,%rdx
    d360:	48 21 c1             	and    %rax,%rcx
    d363:	48 c1 e8 3f          	shr    $0x3f,%rax
    d367:	48 c1 ea 30          	shr    $0x30,%rdx
    d36b:	81 e2 ff 7f 00 00    	and    $0x7fff,%edx
    d371:	81 e7 ff 7f 00 00    	and    $0x7fff,%edi
    d377:	75 47                	jne    d3c0 <__getf2@@GCC_4.3.0+0xb0>
    d379:	4c 89 db             	mov    %r11,%rbx
    d37c:	4c 09 cb             	or     %r9,%rbx
    d37f:	0f 84 bb 00 00 00    	je     d440 <__getf2@@GCC_4.3.0+0x130>
    d385:	41 ba 02 00 00 00    	mov    $0x2,%r10d
    d38b:	48 81 fa ff 7f 00 00 	cmp    $0x7fff,%rdx
    d392:	0f 84 d0 00 00 00    	je     d468 <__getf2@@GCC_4.3.0+0x158>
    d398:	4c 89 db             	mov    %r11,%rbx
    d39b:	4c 09 cb             	or     %r9,%rbx
    d39e:	48 85 d2             	test   %rdx,%rdx
    d3a1:	0f 85 49 01 00 00    	jne    d4f0 <__getf2@@GCC_4.3.0+0x1e0>
    d3a7:	49 89 ce             	mov    %rcx,%r14
    d3aa:	49 09 f6             	or     %rsi,%r14
    d3ad:	0f 85 3d 01 00 00    	jne    d4f0 <__getf2@@GCC_4.3.0+0x1e0>
    d3b3:	31 c0                	xor    %eax,%eax
    d3b5:	48 85 db             	test   %rbx,%rbx
    d3b8:	0f 84 c3 00 00 00    	je     d481 <__getf2@@GCC_4.3.0+0x171>
    d3be:	eb 51                	jmp    d411 <__getf2@@GCC_4.3.0+0x101>
    d3c0:	48 85 d2             	test   %rdx,%rdx
    d3c3:	75 63                	jne    d428 <__getf2@@GCC_4.3.0+0x118>
    d3c5:	48 89 cb             	mov    %rcx,%rbx
    d3c8:	45 31 d2             	xor    %r10d,%r10d
    d3cb:	48 09 f3             	or     %rsi,%rbx
    d3ce:	41 0f 95 c2          	setne  %r10b
    d3d2:	45 01 d2             	add    %r10d,%r10d
    d3d5:	48 81 ff ff 7f 00 00 	cmp    $0x7fff,%rdi
    d3dc:	0f 85 ae 00 00 00    	jne    d490 <__getf2@@GCC_4.3.0+0x180>
    d3e2:	4c 89 db             	mov    %r11,%rbx
    d3e5:	4c 09 cb             	or     %r9,%rbx
    d3e8:	0f 85 da 00 00 00    	jne    d4c8 <__getf2@@GCC_4.3.0+0x1b8>
    d3ee:	48 81 fa ff 7f 00 00 	cmp    $0x7fff,%rdx
    d3f5:	0f 84 bd 00 00 00    	je     d4b8 <__getf2@@GCC_4.3.0+0x1a8>
    d3fb:	48 85 d2             	test   %rdx,%rdx
    d3fe:	75 08                	jne    d408 <__getf2@@GCC_4.3.0+0xf8>
    d400:	48 89 cb             	mov    %rcx,%rbx
    d403:	48 09 f3             	or     %rsi,%rbx
    d406:	74 09                	je     d411 <__getf2@@GCC_4.3.0+0x101>
    d408:	49 39 c0             	cmp    %rax,%r8
    d40b:	0f 84 ff 00 00 00    	je     d510 <__getf2@@GCC_4.3.0+0x200>
    d411:	49 83 f8 01          	cmp    $0x1,%r8
    d415:	48 19 c0             	sbb    %rax,%rax
    d418:	83 e0 02             	and    $0x2,%eax
    d41b:	48 83 e8 01          	sub    $0x1,%rax
    d41f:	eb 60                	jmp    d481 <__getf2@@GCC_4.3.0+0x171>
    d421:	0f 1f 80 00 00 00 00 	nopl   0x0(%rax)
    d428:	48 81 ff ff 7f 00 00 	cmp    $0x7fff,%rdi
    d42f:	75 6f                	jne    d4a0 <__getf2@@GCC_4.3.0+0x190>
    d431:	45 31 d2             	xor    %r10d,%r10d
    d434:	eb ac                	jmp    d3e2 <__getf2@@GCC_4.3.0+0xd2>
    d436:	66 2e 0f 1f 84 00 00 	nopw   %cs:0x0(%rax,%rax,1)
    d43d:	00 00 00 
    d440:	45 31 d2             	xor    %r10d,%r10d
    d443:	48 85 d2             	test   %rdx,%rdx
    d446:	0f 85 3f ff ff ff    	jne    d38b <__getf2@@GCC_4.3.0+0x7b>
    d44c:	48 89 cb             	mov    %rcx,%rbx
    d44f:	45 31 d2             	xor    %r10d,%r10d
    d452:	48 09 f3             	or     %rsi,%rbx
    d455:	41 0f 95 c2          	setne  %r10b
    d459:	45 01 d2             	add    %r10d,%r10d
    d45c:	e9 37 ff ff ff       	jmpq   d398 <__getf2@@GCC_4.3.0+0x88>
    d461:	0f 1f 80 00 00 00 00 	nopl   0x0(%rax)
    d468:	48 89 cb             	mov    %rcx,%rbx
    d46b:	48 09 f3             	or     %rsi,%rbx
    d46e:	75 58                	jne    d4c8 <__getf2@@GCC_4.3.0+0x1b8>
    d470:	4c 89 db             	mov    %r11,%rbx
    d473:	4c 09 cb             	or     %r9,%rbx
    d476:	75 90                	jne    d408 <__getf2@@GCC_4.3.0+0xf8>
    d478:	48 85 c0             	test   %rax,%rax
    d47b:	0f 84 e7 00 00 00    	je     d568 <__getf2@@GCC_4.3.0+0x258>
    d481:	45 85 d2             	test   %r10d,%r10d
    d484:	75 4d                	jne    d4d3 <__getf2@@GCC_4.3.0+0x1c3>
    d486:	48 83 c4 38          	add    $0x38,%rsp
    d48a:	5b                   	pop    %rbx
    d48b:	41 5e                	pop    %r14
    d48d:	c3                   	retq   
    d48e:	66 90                	xchg   %ax,%ax
    d490:	48 85 ff             	test   %rdi,%rdi
    d493:	0f 84 ff fe ff ff    	je     d398 <__getf2@@GCC_4.3.0+0x88>
    d499:	e9 62 ff ff ff       	jmpq   d400 <__getf2@@GCC_4.3.0+0xf0>
    d49e:	66 90                	xchg   %ax,%ax
    d4a0:	48 81 fa ff 7f 00 00 	cmp    $0x7fff,%rdx
    d4a7:	74 57                	je     d500 <__getf2@@GCC_4.3.0+0x1f0>
    d4a9:	45 31 d2             	xor    %r10d,%r10d
    d4ac:	e9 57 ff ff ff       	jmpq   d408 <__getf2@@GCC_4.3.0+0xf8>
    d4b1:	0f 1f 80 00 00 00 00 	nopl   0x0(%rax)
    d4b8:	48 89 cb             	mov    %rcx,%rbx
    d4bb:	48 09 f3             	or     %rsi,%rbx
    d4be:	0f 84 44 ff ff ff    	je     d408 <__getf2@@GCC_4.3.0+0xf8>
    d4c4:	0f 1f 40 00          	nopl   0x0(%rax)
    d4c8:	41 83 ca 01          	or     $0x1,%r10d
    d4cc:	48 c7 c0 fe ff ff ff 	mov    $0xfffffffffffffffe,%rax
    d4d3:	44 89 d7             	mov    %r10d,%edi
    d4d6:	48 89 04 24          	mov    %rax,(%rsp)
    d4da:	e8 21 97 ff ff       	callq  6c00 <__udivmodti4@@GCC_3.0+0x1d0>
    d4df:	48 8b 04 24          	mov    (%rsp),%rax
    d4e3:	48 83 c4 38          	add    $0x38,%rsp
    d4e7:	5b                   	pop    %rbx
    d4e8:	41 5e                	pop    %r14
    d4ea:	c3                   	retq   
    d4eb:	0f 1f 44 00 00       	nopl   0x0(%rax,%rax,1)
    d4f0:	48 85 db             	test   %rbx,%rbx
    d4f3:	74 83                	je     d478 <__getf2@@GCC_4.3.0+0x168>
    d4f5:	e9 0e ff ff ff       	jmpq   d408 <__getf2@@GCC_4.3.0+0xf8>
    d4fa:	66 0f 1f 44 00 00    	nopw   0x0(%rax,%rax,1)
    d500:	48 89 cb             	mov    %rcx,%rbx
    d503:	48 09 f3             	or     %rsi,%rbx
    d506:	74 a1                	je     d4a9 <__getf2@@GCC_4.3.0+0x199>
    d508:	45 31 d2             	xor    %r10d,%r10d
    d50b:	eb bb                	jmp    d4c8 <__getf2@@GCC_4.3.0+0x1b8>
    d50d:	0f 1f 00             	nopl   (%rax)
    d510:	48 39 d7             	cmp    %rdx,%rdi
    d513:	7e 13                	jle    d528 <__getf2@@GCC_4.3.0+0x218>
    d515:	48 85 c0             	test   %rax,%rax
    d518:	75 4e                	jne    d568 <__getf2@@GCC_4.3.0+0x258>
    d51a:	b8 01 00 00 00       	mov    $0x1,%eax
    d51f:	e9 5d ff ff ff       	jmpq   d481 <__getf2@@GCC_4.3.0+0x171>
    d524:	0f 1f 40 00          	nopl   0x0(%rax)
    d528:	0f 8c 4a ff ff ff    	jl     d478 <__getf2@@GCC_4.3.0+0x168>
    d52e:	49 39 cb             	cmp    %rcx,%r11
    d531:	0f 87 da fe ff ff    	ja     d411 <__getf2@@GCC_4.3.0+0x101>
    d537:	0f 94 c0             	sete   %al
    d53a:	49 39 f1             	cmp    %rsi,%r9
    d53d:	76 08                	jbe    d547 <__getf2@@GCC_4.3.0+0x237>
    d53f:	84 c0                	test   %al,%al
    d541:	0f 85 ca fe ff ff    	jne    d411 <__getf2@@GCC_4.3.0+0x101>
    d547:	49 39 cb             	cmp    %rcx,%r11
    d54a:	72 09                	jb     d555 <__getf2@@GCC_4.3.0+0x245>
    d54c:	49 39 f1             	cmp    %rsi,%r9
    d54f:	73 23                	jae    d574 <__getf2@@GCC_4.3.0+0x264>
    d551:	84 c0                	test   %al,%al
    d553:	74 1f                	je     d574 <__getf2@@GCC_4.3.0+0x264>
    d555:	4d 85 c0             	test   %r8,%r8
    d558:	48 c7 c0 ff ff ff ff 	mov    $0xffffffffffffffff,%rax
    d55f:	49 0f 45 c0          	cmovne %r8,%rax
    d563:	e9 19 ff ff ff       	jmpq   d481 <__getf2@@GCC_4.3.0+0x171>
    d568:	48 c7 c0 ff ff ff ff 	mov    $0xffffffffffffffff,%rax
    d56f:	e9 0d ff ff ff       	jmpq   d481 <__getf2@@GCC_4.3.0+0x171>
    d574:	31 c0                	xor    %eax,%eax
    d576:	e9 06 ff ff ff       	jmpq   d481 <__getf2@@GCC_4.3.0+0x171>
    d57b:	0f 1f 44 00 00       	nopl   0x0(%rax,%rax,1)

000000000000d580 <__letf2@@GCC_4.3.0>:
    d580:	f3 0f 1e fa          	endbr64 
    d584:	41 56                	push   %r14
    d586:	53                   	push   %rbx
    d587:	48 83 ec 38          	sub    $0x38,%rsp
    d58b:	0f 29 04 24          	movaps %xmm0,(%rsp)
    d58f:	0f 29 4c 24 10       	movaps %xmm1,0x10(%rsp)
    d594:	0f ae 5c 24 2c       	stmxcsr 0x2c(%rsp)
    d599:	48 8b 44 24 08       	mov    0x8(%rsp),%rax
    d59e:	4c 8b 0c 24          	mov    (%rsp),%r9
    d5a2:	48 ba ff ff ff ff ff 	movabs $0xffffffffffff,%rdx
    d5a9:	ff 00 00 
    d5ac:	48 8b 4c 24 10       	mov    0x10(%rsp),%rcx
    d5b1:	49 89 c3             	mov    %rax,%r11
    d5b4:	48 89 c7             	mov    %rax,%rdi
    d5b7:	48 c1 e8 3f          	shr    $0x3f,%rax
    d5bb:	49 89 c0             	mov    %rax,%r8
    d5be:	48 8b 44 24 18       	mov    0x18(%rsp),%rax
    d5c3:	48 c1 ef 30          	shr    $0x30,%rdi
    d5c7:	49 21 d3             	and    %rdx,%r11
    d5ca:	48 89 c6             	mov    %rax,%rsi
    d5cd:	48 21 c2             	and    %rax,%rdx
    d5d0:	48 c1 e8 3f          	shr    $0x3f,%rax
    d5d4:	48 c1 ee 30          	shr    $0x30,%rsi
    d5d8:	81 e6 ff 7f 00 00    	and    $0x7fff,%esi
    d5de:	81 e7 ff 7f 00 00    	and    $0x7fff,%edi
    d5e4:	75 4a                	jne    d630 <__letf2@@GCC_4.3.0+0xb0>
    d5e6:	4c 89 db             	mov    %r11,%rbx
    d5e9:	4c 09 cb             	or     %r9,%rbx
    d5ec:	0f 84 ee 00 00 00    	je     d6e0 <__letf2@@GCC_4.3.0+0x160>
    d5f2:	41 ba 02 00 00 00    	mov    $0x2,%r10d
    d5f8:	48 81 fe ff 7f 00 00 	cmp    $0x7fff,%rsi
    d5ff:	0f 84 0b 01 00 00    	je     d710 <__letf2@@GCC_4.3.0+0x190>
    d605:	4c 89 db             	mov    %r11,%rbx
    d608:	4c 09 cb             	or     %r9,%rbx
    d60b:	48 85 f6             	test   %rsi,%rsi
    d60e:	75 0c                	jne    d61c <__letf2@@GCC_4.3.0+0x9c>
    d610:	49 89 d6             	mov    %rdx,%r14
    d613:	49 09 ce             	or     %rcx,%r14
    d616:	0f 84 64 01 00 00    	je     d780 <__letf2@@GCC_4.3.0+0x200>
    d61c:	48 85 db             	test   %rbx,%rbx
    d61f:	0f 84 ff 00 00 00    	je     d724 <__letf2@@GCC_4.3.0+0x1a4>
    d625:	eb 4d                	jmp    d674 <__letf2@@GCC_4.3.0+0xf4>
    d627:	66 0f 1f 84 00 00 00 	nopw   0x0(%rax,%rax,1)
    d62e:	00 00 
    d630:	48 85 f6             	test   %rsi,%rsi
    d633:	75 6b                	jne    d6a0 <__letf2@@GCC_4.3.0+0x120>
    d635:	48 89 d3             	mov    %rdx,%rbx
    d638:	45 31 d2             	xor    %r10d,%r10d
    d63b:	48 09 cb             	or     %rcx,%rbx
    d63e:	41 0f 95 c2          	setne  %r10b
    d642:	45 01 d2             	add    %r10d,%r10d
    d645:	48 81 ff ff 7f 00 00 	cmp    $0x7fff,%rdi
    d64c:	0f 85 ee 00 00 00    	jne    d740 <__letf2@@GCC_4.3.0+0x1c0>
    d652:	4c 89 db             	mov    %r11,%rbx
    d655:	4c 09 cb             	or     %r9,%rbx
    d658:	75 5e                	jne    d6b8 <__letf2@@GCC_4.3.0+0x138>
    d65a:	48 81 fe ff 7f 00 00 	cmp    $0x7fff,%rsi
    d661:	0f 84 01 01 00 00    	je     d768 <__letf2@@GCC_4.3.0+0x1e8>
    d667:	48 85 f6             	test   %rsi,%rsi
    d66a:	75 08                	jne    d674 <__letf2@@GCC_4.3.0+0xf4>
    d66c:	48 89 d3             	mov    %rdx,%rbx
    d66f:	48 09 cb             	or     %rcx,%rbx
    d672:	74 09                	je     d67d <__letf2@@GCC_4.3.0+0xfd>
    d674:	49 39 c0             	cmp    %rax,%r8
    d677:	0f 84 23 01 00 00    	je     d7a0 <__letf2@@GCC_4.3.0+0x220>
    d67d:	49 83 f8 01          	cmp    $0x1,%r8
    d681:	48 19 c0             	sbb    %rax,%rax
    d684:	83 e0 02             	and    $0x2,%eax
    d687:	48 83 e8 01          	sub    $0x1,%rax
    d68b:	45 85 d2             	test   %r10d,%r10d
    d68e:	75 31                	jne    d6c1 <__letf2@@GCC_4.3.0+0x141>
    d690:	48 83 c4 38          	add    $0x38,%rsp
    d694:	5b                   	pop    %rbx
    d695:	41 5e                	pop    %r14
    d697:	c3                   	retq   
    d698:	0f 1f 84 00 00 00 00 	nopl   0x0(%rax,%rax,1)
    d69f:	00 
    d6a0:	48 81 ff ff 7f 00 00 	cmp    $0x7fff,%rdi
    d6a7:	0f 85 a3 00 00 00    	jne    d750 <__letf2@@GCC_4.3.0+0x1d0>
    d6ad:	4c 89 db             	mov    %r11,%rbx
    d6b0:	45 31 d2             	xor    %r10d,%r10d
    d6b3:	4c 09 cb             	or     %r9,%rbx
    d6b6:	74 a2                	je     d65a <__letf2@@GCC_4.3.0+0xda>
    d6b8:	41 83 ca 01          	or     $0x1,%r10d
    d6bc:	b8 02 00 00 00       	mov    $0x2,%eax
    d6c1:	44 89 d7             	mov    %r10d,%edi
    d6c4:	48 89 04 24          	mov    %rax,(%rsp)
    d6c8:	e8 33 95 ff ff       	callq  6c00 <__udivmodti4@@GCC_3.0+0x1d0>
    d6cd:	48 8b 04 24          	mov    (%rsp),%rax
    d6d1:	48 83 c4 38          	add    $0x38,%rsp
    d6d5:	5b                   	pop    %rbx
    d6d6:	41 5e                	pop    %r14
    d6d8:	c3                   	retq   
    d6d9:	0f 1f 80 00 00 00 00 	nopl   0x0(%rax)
    d6e0:	45 31 d2             	xor    %r10d,%r10d
    d6e3:	48 85 f6             	test   %rsi,%rsi
    d6e6:	0f 85 0c ff ff ff    	jne    d5f8 <__letf2@@GCC_4.3.0+0x78>
    d6ec:	48 89 d3             	mov    %rdx,%rbx
    d6ef:	45 31 d2             	xor    %r10d,%r10d
    d6f2:	48 09 cb             	or     %rcx,%rbx
    d6f5:	4c 89 db             	mov    %r11,%rbx
    d6f8:	41 0f 95 c2          	setne  %r10b
    d6fc:	4c 09 cb             	or     %r9,%rbx
    d6ff:	45 01 d2             	add    %r10d,%r10d
    d702:	48 85 f6             	test   %rsi,%rsi
    d705:	0f 84 05 ff ff ff    	je     d610 <__letf2@@GCC_4.3.0+0x90>
    d70b:	e9 0c ff ff ff       	jmpq   d61c <__letf2@@GCC_4.3.0+0x9c>
    d710:	48 89 d3             	mov    %rdx,%rbx
    d713:	48 09 cb             	or     %rcx,%rbx
    d716:	75 a0                	jne    d6b8 <__letf2@@GCC_4.3.0+0x138>
    d718:	4c 89 db             	mov    %r11,%rbx
    d71b:	4c 09 cb             	or     %r9,%rbx
    d71e:	0f 85 50 ff ff ff    	jne    d674 <__letf2@@GCC_4.3.0+0xf4>
    d724:	48 85 c0             	test   %rax,%rax
    d727:	0f 84 cb 00 00 00    	je     d7f8 <__letf2@@GCC_4.3.0+0x278>
    d72d:	45 85 d2             	test   %r10d,%r10d
    d730:	75 8f                	jne    d6c1 <__letf2@@GCC_4.3.0+0x141>
    d732:	48 83 c4 38          	add    $0x38,%rsp
    d736:	5b                   	pop    %rbx
    d737:	41 5e                	pop    %r14
    d739:	c3                   	retq   
    d73a:	66 0f 1f 44 00 00    	nopw   0x0(%rax,%rax,1)
    d740:	48 85 ff             	test   %rdi,%rdi
    d743:	0f 85 23 ff ff ff    	jne    d66c <__letf2@@GCC_4.3.0+0xec>
    d749:	e9 b7 fe ff ff       	jmpq   d605 <__letf2@@GCC_4.3.0+0x85>
    d74e:	66 90                	xchg   %ax,%ax
    d750:	48 81 fe ff 7f 00 00 	cmp    $0x7fff,%rsi
    d757:	74 37                	je     d790 <__letf2@@GCC_4.3.0+0x210>
    d759:	45 31 d2             	xor    %r10d,%r10d
    d75c:	e9 13 ff ff ff       	jmpq   d674 <__letf2@@GCC_4.3.0+0xf4>
    d761:	0f 1f 80 00 00 00 00 	nopl   0x0(%rax)
    d768:	48 89 d3             	mov    %rdx,%rbx
    d76b:	48 09 cb             	or     %rcx,%rbx
    d76e:	0f 84 00 ff ff ff    	je     d674 <__letf2@@GCC_4.3.0+0xf4>
    d774:	e9 3f ff ff ff       	jmpq   d6b8 <__letf2@@GCC_4.3.0+0x138>
    d779:	0f 1f 80 00 00 00 00 	nopl   0x0(%rax)
    d780:	31 c0                	xor    %eax,%eax
    d782:	48 85 db             	test   %rbx,%rbx
    d785:	74 a6                	je     d72d <__letf2@@GCC_4.3.0+0x1ad>
    d787:	e9 f1 fe ff ff       	jmpq   d67d <__letf2@@GCC_4.3.0+0xfd>
    d78c:	0f 1f 40 00          	nopl   0x0(%rax)
    d790:	48 89 d3             	mov    %rdx,%rbx
    d793:	48 09 cb             	or     %rcx,%rbx
    d796:	74 c1                	je     d759 <__letf2@@GCC_4.3.0+0x1d9>
    d798:	45 31 d2             	xor    %r10d,%r10d
    d79b:	e9 18 ff ff ff       	jmpq   d6b8 <__letf2@@GCC_4.3.0+0x138>
    d7a0:	48 39 f7             	cmp    %rsi,%rdi
    d7a3:	7e 13                	jle    d7b8 <__letf2@@GCC_4.3.0+0x238>
    d7a5:	48 85 c0             	test   %rax,%rax
    d7a8:	75 4e                	jne    d7f8 <__letf2@@GCC_4.3.0+0x278>
    d7aa:	b8 01 00 00 00       	mov    $0x1,%eax
    d7af:	e9 79 ff ff ff       	jmpq   d72d <__letf2@@GCC_4.3.0+0x1ad>
    d7b4:	0f 1f 40 00          	nopl   0x0(%rax)
    d7b8:	0f 8c 66 ff ff ff    	jl     d724 <__letf2@@GCC_4.3.0+0x1a4>
    d7be:	49 39 d3             	cmp    %rdx,%r11
    d7c1:	0f 87 b6 fe ff ff    	ja     d67d <__letf2@@GCC_4.3.0+0xfd>
    d7c7:	0f 94 c0             	sete   %al
    d7ca:	49 39 c9             	cmp    %rcx,%r9
    d7cd:	76 08                	jbe    d7d7 <__letf2@@GCC_4.3.0+0x257>
    d7cf:	84 c0                	test   %al,%al
    d7d1:	0f 85 a6 fe ff ff    	jne    d67d <__letf2@@GCC_4.3.0+0xfd>
    d7d7:	49 39 d3             	cmp    %rdx,%r11
    d7da:	72 09                	jb     d7e5 <__letf2@@GCC_4.3.0+0x265>
    d7dc:	49 39 c9             	cmp    %rcx,%r9
    d7df:	73 23                	jae    d804 <__letf2@@GCC_4.3.0+0x284>
    d7e1:	84 c0                	test   %al,%al
    d7e3:	74 1f                	je     d804 <__letf2@@GCC_4.3.0+0x284>
    d7e5:	4d 85 c0             	test   %r8,%r8
    d7e8:	48 c7 c0 ff ff ff ff 	mov    $0xffffffffffffffff,%rax
    d7ef:	49 0f 45 c0          	cmovne %r8,%rax
    d7f3:	e9 35 ff ff ff       	jmpq   d72d <__letf2@@GCC_4.3.0+0x1ad>
    d7f8:	48 c7 c0 ff ff ff ff 	mov    $0xffffffffffffffff,%rax
    d7ff:	e9 29 ff ff ff       	jmpq   d72d <__letf2@@GCC_4.3.0+0x1ad>
    d804:	31 c0                	xor    %eax,%eax
    d806:	e9 22 ff ff ff       	jmpq   d72d <__letf2@@GCC_4.3.0+0x1ad>
    d80b:	0f 1f 44 00 00       	nopl   0x0(%rax,%rax,1)

000000000000d810 <__eqtf2@@GCC_4.3.0>:
    d810:	f3 0f 1e fa          	endbr64 
    d814:	41 54                	push   %r12
    d816:	48 83 ec 30          	sub    $0x30,%rsp
    d81a:	0f 29 04 24          	movaps %xmm0,(%rsp)
    d81e:	0f 29 4c 24 10       	movaps %xmm1,0x10(%rsp)
    d823:	0f ae 5c 24 2c       	stmxcsr 0x2c(%rsp)
    d828:	48 8b 54 24 08       	mov    0x8(%rsp),%rdx
    d82d:	48 8b 4c 24 18       	mov    0x18(%rsp),%rcx
    d832:	48 bf ff ff ff ff ff 	movabs $0xffffffffffff,%rdi
    d839:	ff 00 00 
    d83c:	48 8b 34 24          	mov    (%rsp),%rsi
    d840:	4c 8b 4c 24 10       	mov    0x10(%rsp),%r9
    d845:	49 89 d3             	mov    %rdx,%r11
    d848:	48 89 d0             	mov    %rdx,%rax
    d84b:	48 c1 ea 3f          	shr    $0x3f,%rdx
    d84f:	49 21 fb             	and    %rdi,%r11
    d852:	48 21 cf             	and    %rcx,%rdi
    d855:	48 c1 e8 30          	shr    $0x30,%rax
    d859:	49 89 f8             	mov    %rdi,%r8
    d85c:	48 89 cf             	mov    %rcx,%rdi
    d85f:	48 c1 e9 3f          	shr    $0x3f,%rcx
    d863:	48 c1 ef 30          	shr    $0x30,%rdi
    d867:	81 e7 ff 7f 00 00    	and    $0x7fff,%edi
    d86d:	25 ff 7f 00 00       	and    $0x7fff,%eax
    d872:	75 44                	jne    d8b8 <__eqtf2@@GCC_4.3.0+0xa8>
    d874:	4d 89 da             	mov    %r11,%r10
    d877:	49 09 f2             	or     %rsi,%r10
    d87a:	0f 84 d8 00 00 00    	je     d958 <__eqtf2@@GCC_4.3.0+0x148>
    d880:	41 ba 02 00 00 00    	mov    $0x2,%r10d
    d886:	48 81 ff ff 7f 00 00 	cmp    $0x7fff,%rdi
    d88d:	0f 84 e4 00 00 00    	je     d977 <__eqtf2@@GCC_4.3.0+0x167>
    d893:	41 bc 01 00 00 00    	mov    $0x1,%r12d
    d899:	48 39 f8             	cmp    %rdi,%rax
    d89c:	0f 84 1c 01 00 00    	je     d9be <__eqtf2@@GCC_4.3.0+0x1ae>
    d8a2:	45 85 d2             	test   %r10d,%r10d
    d8a5:	75 7b                	jne    d922 <__eqtf2@@GCC_4.3.0+0x112>
    d8a7:	48 83 c4 30          	add    $0x30,%rsp
    d8ab:	4c 89 e0             	mov    %r12,%rax
    d8ae:	41 5c                	pop    %r12
    d8b0:	c3                   	retq   
    d8b1:	0f 1f 80 00 00 00 00 	nopl   0x0(%rax)
    d8b8:	48 85 ff             	test   %rdi,%rdi
    d8bb:	75 7b                	jne    d938 <__eqtf2@@GCC_4.3.0+0x128>
    d8bd:	4d 89 c2             	mov    %r8,%r10
    d8c0:	4d 09 ca             	or     %r9,%r10
    d8c3:	41 0f 95 c2          	setne  %r10b
    d8c7:	45 0f b6 d2          	movzbl %r10b,%r10d
    d8cb:	45 01 d2             	add    %r10d,%r10d
    d8ce:	48 3d ff 7f 00 00    	cmp    $0x7fff,%rax
    d8d4:	75 bd                	jne    d893 <__eqtf2@@GCC_4.3.0+0x83>
    d8d6:	4d 89 dc             	mov    %r11,%r12
    d8d9:	49 09 f4             	or     %rsi,%r12
    d8dc:	0f 85 16 01 00 00    	jne    d9f8 <__eqtf2@@GCC_4.3.0+0x1e8>
    d8e2:	48 81 ff ff 7f 00 00 	cmp    $0x7fff,%rdi
    d8e9:	0f 85 b9 00 00 00    	jne    d9a8 <__eqtf2@@GCC_4.3.0+0x198>
    d8ef:	4d 89 c4             	mov    %r8,%r12
    d8f2:	4d 09 cc             	or     %r9,%r12
    d8f5:	74 9c                	je     d893 <__eqtf2@@GCC_4.3.0+0x83>
    d8f7:	4c 09 de             	or     %r11,%rsi
    d8fa:	0f 84 8f 00 00 00    	je     d98f <__eqtf2@@GCC_4.3.0+0x17f>
    d900:	b8 01 00 00 00       	mov    $0x1,%eax
    d905:	48 c1 e0 2f          	shl    $0x2f,%rax
    d909:	49 85 c3             	test   %rax,%r11
    d90c:	0f 85 02 01 00 00    	jne    da14 <__eqtf2@@GCC_4.3.0+0x204>
    d912:	66 0f 1f 44 00 00    	nopw   0x0(%rax,%rax,1)
    d918:	41 83 ca 01          	or     $0x1,%r10d
    d91c:	41 bc 01 00 00 00    	mov    $0x1,%r12d
    d922:	44 89 d7             	mov    %r10d,%edi
    d925:	e8 d6 92 ff ff       	callq  6c00 <__udivmodti4@@GCC_3.0+0x1d0>
    d92a:	48 83 c4 30          	add    $0x30,%rsp
    d92e:	4c 89 e0             	mov    %r12,%rax
    d931:	41 5c                	pop    %r12
    d933:	c3                   	retq   
    d934:	0f 1f 40 00          	nopl   0x0(%rax)
    d938:	45 31 d2             	xor    %r10d,%r10d
    d93b:	48 3d ff 7f 00 00    	cmp    $0x7fff,%rax
    d941:	0f 85 3f ff ff ff    	jne    d886 <__eqtf2@@GCC_4.3.0+0x76>
    d947:	4d 89 dc             	mov    %r11,%r12
    d94a:	49 09 f4             	or     %rsi,%r12
    d94d:	0f 85 a5 00 00 00    	jne    d9f8 <__eqtf2@@GCC_4.3.0+0x1e8>
    d953:	eb 8d                	jmp    d8e2 <__eqtf2@@GCC_4.3.0+0xd2>
    d955:	0f 1f 00             	nopl   (%rax)
    d958:	48 85 ff             	test   %rdi,%rdi
    d95b:	0f 84 bf 00 00 00    	je     da20 <__eqtf2@@GCC_4.3.0+0x210>
    d961:	41 bc 01 00 00 00    	mov    $0x1,%r12d
    d967:	48 81 ff ff 7f 00 00 	cmp    $0x7fff,%rdi
    d96e:	0f 85 33 ff ff ff    	jne    d8a7 <__eqtf2@@GCC_4.3.0+0x97>
    d974:	45 31 d2             	xor    %r10d,%r10d
    d977:	4d 89 c4             	mov    %r8,%r12
    d97a:	4d 09 cc             	or     %r9,%r12
    d97d:	0f 84 10 ff ff ff    	je     d893 <__eqtf2@@GCC_4.3.0+0x83>
    d983:	48 3d ff 7f 00 00    	cmp    $0x7fff,%rax
    d989:	0f 84 68 ff ff ff    	je     d8f7 <__eqtf2@@GCC_4.3.0+0xe7>
    d98f:	48 b8 00 00 00 00 00 	movabs $0x800000000000,%rax
    d996:	80 00 00 
    d999:	49 85 c0             	test   %rax,%r8
    d99c:	0f 84 76 ff ff ff    	je     d918 <__eqtf2@@GCC_4.3.0+0x108>
    d9a2:	66 0f 1f 44 00 00    	nopw   0x0(%rax,%rax,1)
    d9a8:	41 bc 01 00 00 00    	mov    $0x1,%r12d
    d9ae:	e9 ef fe ff ff       	jmpq   d8a2 <__eqtf2@@GCC_4.3.0+0x92>
    d9b3:	0f 1f 44 00 00       	nopl   0x0(%rax,%rax,1)
    d9b8:	41 ba 02 00 00 00    	mov    $0x2,%r10d
    d9be:	4d 39 c3             	cmp    %r8,%r11
    d9c1:	75 e5                	jne    d9a8 <__eqtf2@@GCC_4.3.0+0x198>
    d9c3:	4c 39 ce             	cmp    %r9,%rsi
    d9c6:	75 e0                	jne    d9a8 <__eqtf2@@GCC_4.3.0+0x198>
    d9c8:	45 31 e4             	xor    %r12d,%r12d
    d9cb:	38 ca                	cmp    %cl,%dl
    d9cd:	0f 84 cf fe ff ff    	je     d8a2 <__eqtf2@@GCC_4.3.0+0x92>
    d9d3:	41 bc 01 00 00 00    	mov    $0x1,%r12d
    d9d9:	48 85 c0             	test   %rax,%rax
    d9dc:	0f 85 c0 fe ff ff    	jne    d8a2 <__eqtf2@@GCC_4.3.0+0x92>
    d9e2:	45 31 e4             	xor    %r12d,%r12d
    d9e5:	49 09 f3             	or     %rsi,%r11
    d9e8:	41 0f 95 c4          	setne  %r12b
    d9ec:	e9 b1 fe ff ff       	jmpq   d8a2 <__eqtf2@@GCC_4.3.0+0x92>
    d9f1:	0f 1f 80 00 00 00 00 	nopl   0x0(%rax)
    d9f8:	48 b8 00 00 00 00 00 	movabs $0x800000000000,%rax
    d9ff:	80 00 00 
    da02:	49 85 c3             	test   %rax,%r11
    da05:	0f 84 0d ff ff ff    	je     d918 <__eqtf2@@GCC_4.3.0+0x108>
    da0b:	48 81 ff ff 7f 00 00 	cmp    $0x7fff,%rdi
    da12:	75 94                	jne    d9a8 <__eqtf2@@GCC_4.3.0+0x198>
    da14:	4d 09 c1             	or     %r8,%r9
    da17:	74 8f                	je     d9a8 <__eqtf2@@GCC_4.3.0+0x198>
    da19:	e9 71 ff ff ff       	jmpq   d98f <__eqtf2@@GCC_4.3.0+0x17f>
    da1e:	66 90                	xchg   %ax,%ax
    da20:	4d 89 c2             	mov    %r8,%r10
    da23:	4d 09 ca             	or     %r9,%r10
    da26:	75 90                	jne    d9b8 <__eqtf2@@GCC_4.3.0+0x1a8>
    da28:	45 31 d2             	xor    %r10d,%r10d
    da2b:	e9 63 fe ff ff       	jmpq   d893 <__eqtf2@@GCC_4.3.0+0x83>

000000000000da30 <__divtc3@@GCC_4.3.0>:
    da30:	f3 0f 1e fa          	endbr64 
    da34:	41 54                	push   %r12
    da36:	49 89 fc             	mov    %rdi,%r12
    da39:	55                   	push   %rbp
    da3a:	53                   	push   %rbx
    da3b:	48 81 ec a0 00 00 00 	sub    $0xa0,%rsp
    da42:	66 0f 6f 2d 16 7c 00 	movdqa 0x7c16(%rip),%xmm5        # 15660 <__emutls_register_common@@GCC_4.3.0+0x1650>
    da49:	00 
    da4a:	66 0f 6f 35 0e 7c 00 	movdqa 0x7c0e(%rip),%xmm6        # 15660 <__emutls_register_common@@GCC_4.3.0+0x1650>
    da51:	00 
    da52:	0f 29 04 24          	movaps %xmm0,(%rsp)
    da56:	66 0f db ea          	pand   %xmm2,%xmm5
    da5a:	66 0f db f3          	pand   %xmm3,%xmm6
    da5e:	0f 29 4c 24 10       	movaps %xmm1,0x10(%rsp)
    da63:	66 0f 6f c5          	movdqa %xmm5,%xmm0
    da67:	66 0f 6f ce          	movdqa %xmm6,%xmm1
    da6b:	0f 29 54 24 20       	movaps %xmm2,0x20(%rsp)
    da70:	0f 29 6c 24 60       	movaps %xmm5,0x60(%rsp)
    da75:	0f 29 5c 24 30       	movaps %xmm3,0x30(%rsp)
    da7a:	0f 29 74 24 70       	movaps %xmm6,0x70(%rsp)
    da7f:	e8 2c 59 ff ff       	callq  33b0 <__lttf2@plt>
    da84:	48 85 c0             	test   %rax,%rax
    da87:	0f 89 23 03 00 00    	jns    ddb0 <__divtc3@@GCC_4.3.0+0x380>
    da8d:	66 0f 6f 4c 24 30    	movdqa 0x30(%rsp),%xmm1
    da93:	66 0f 6f 44 24 20    	movdqa 0x20(%rsp),%xmm0
    da99:	e8 12 5a ff ff       	callq  34b0 <__divtf3@plt>
    da9e:	66 0f 6f c8          	movdqa %xmm0,%xmm1
    daa2:	0f 29 44 24 50       	movaps %xmm0,0x50(%rsp)
    daa7:	66 0f 6f 44 24 20    	movdqa 0x20(%rsp),%xmm0
    daad:	e8 de 58 ff ff       	callq  3390 <__multf3@plt>
    dab2:	66 0f 6f 4c 24 30    	movdqa 0x30(%rsp),%xmm1
    dab8:	e8 c3 59 ff ff       	callq  3480 <__addtf3@plt>
    dabd:	66 0f 6f 54 24 50    	movdqa 0x50(%rsp),%xmm2
    dac3:	0f 29 44 24 40       	movaps %xmm0,0x40(%rsp)
    dac8:	66 0f 6f 04 24       	movdqa (%rsp),%xmm0
    dacd:	66 0f 6f ca          	movdqa %xmm2,%xmm1
    dad1:	0f 29 94 24 80 00 00 	movaps %xmm2,0x80(%rsp)
    dad8:	00 
    dad9:	e8 b2 58 ff ff       	callq  3390 <__multf3@plt>
    dade:	66 0f 6f 4c 24 10    	movdqa 0x10(%rsp),%xmm1
    dae4:	e8 97 59 ff ff       	callq  3480 <__addtf3@plt>
    dae9:	66 0f 6f 5c 24 40    	movdqa 0x40(%rsp),%xmm3
    daef:	66 0f 6f cb          	movdqa %xmm3,%xmm1
    daf3:	0f 29 5c 24 50       	movaps %xmm3,0x50(%rsp)
    daf8:	e8 b3 59 ff ff       	callq  34b0 <__divtf3@plt>
    dafd:	66 0f 6f 94 24 80 00 	movdqa 0x80(%rsp),%xmm2
    db04:	00 00 
    db06:	0f 29 44 24 40       	movaps %xmm0,0x40(%rsp)
    db0b:	66 0f 6f 44 24 10    	movdqa 0x10(%rsp),%xmm0
    db11:	66 0f 6f ca          	movdqa %xmm2,%xmm1
    db15:	e8 76 58 ff ff       	callq  3390 <__multf3@plt>
    db1a:	66 0f 6f 0c 24       	movdqa (%rsp),%xmm1
    db1f:	e8 9c 5a ff ff       	callq  35c0 <__subtf3@plt>
    db24:	66 0f 6f 5c 24 50    	movdqa 0x50(%rsp),%xmm3
    db2a:	66 0f 6f cb          	movdqa %xmm3,%xmm1
    db2e:	e8 7d 59 ff ff       	callq  34b0 <__divtf3@plt>
    db33:	66 0f 6f 4c 24 40    	movdqa 0x40(%rsp),%xmm1
    db39:	0f 29 44 24 50       	movaps %xmm0,0x50(%rsp)
    db3e:	66 0f 6f c1          	movdqa %xmm1,%xmm0
    db42:	e8 39 5a ff ff       	callq  3580 <__unordtf2@plt>
    db47:	48 85 c0             	test   %rax,%rax
    db4a:	0f 84 30 02 00 00    	je     dd80 <__divtc3@@GCC_4.3.0+0x350>
    db50:	66 0f 6f 4c 24 50    	movdqa 0x50(%rsp),%xmm1
    db56:	66 0f 6f c1          	movdqa %xmm1,%xmm0
    db5a:	e8 21 5a ff ff       	callq  3580 <__unordtf2@plt>
    db5f:	48 85 c0             	test   %rax,%rax
    db62:	0f 84 18 02 00 00    	je     dd80 <__divtc3@@GCC_4.3.0+0x350>
    db68:	66 0f 6f 44 24 20    	movdqa 0x20(%rsp),%xmm0
    db6e:	66 0f ef c9          	pxor   %xmm1,%xmm1
    db72:	e8 29 58 ff ff       	callq  33a0 <__eqtf2@plt>
    db77:	48 85 c0             	test   %rax,%rax
    db7a:	0f 84 d0 02 00 00    	je     de50 <__divtc3@@GCC_4.3.0+0x420>
    db80:	66 0f 6f 3d d8 7a 00 	movdqa 0x7ad8(%rip),%xmm7        # 15660 <__emutls_register_common@@GCC_4.3.0+0x1650>
    db87:	00 
    db88:	66 0f db 3c 24       	pand   (%rsp),%xmm7
    db8d:	66 0f 6f 0d fb 7a 00 	movdqa 0x7afb(%rip),%xmm1        # 15690 <__emutls_register_common@@GCC_4.3.0+0x1680>
    db94:	00 
    db95:	66 0f 6f c7          	movdqa %xmm7,%xmm0
    db99:	0f 29 bc 24 80 00 00 	movaps %xmm7,0x80(%rsp)
    dba0:	00 
    dba1:	e8 da 59 ff ff       	callq  3580 <__unordtf2@plt>
    dba6:	48 85 c0             	test   %rax,%rax
    dba9:	0f 85 31 03 00 00    	jne    dee0 <__divtc3@@GCC_4.3.0+0x4b0>
    dbaf:	66 0f 6f 0d d9 7a 00 	movdqa 0x7ad9(%rip),%xmm1        # 15690 <__emutls_register_common@@GCC_4.3.0+0x1680>
    dbb6:	00 
    dbb7:	66 0f 6f 84 24 80 00 	movdqa 0x80(%rsp),%xmm0
    dbbe:	00 00 
    dbc0:	e8 6b 58 ff ff       	callq  3430 <__letf2@plt>
    dbc5:	48 85 c0             	test   %rax,%rax
    dbc8:	0f 8e 12 03 00 00    	jle    dee0 <__divtc3@@GCC_4.3.0+0x4b0>
    dbce:	66 0f 6f 0d ba 7a 00 	movdqa 0x7aba(%rip),%xmm1        # 15690 <__emutls_register_common@@GCC_4.3.0+0x1680>
    dbd5:	00 
    dbd6:	66 0f 6f 44 24 60    	movdqa 0x60(%rsp),%xmm0
    dbdc:	e8 9f 59 ff ff       	callq  3580 <__unordtf2@plt>
    dbe1:	48 85 c0             	test   %rax,%rax
    dbe4:	0f 85 3d 03 00 00    	jne    df27 <__divtc3@@GCC_4.3.0+0x4f7>
    dbea:	66 0f 6f 0d 9e 7a 00 	movdqa 0x7a9e(%rip),%xmm1        # 15690 <__emutls_register_common@@GCC_4.3.0+0x1680>
    dbf1:	00 
    dbf2:	66 0f 6f 44 24 60    	movdqa 0x60(%rsp),%xmm0
    dbf8:	e8 73 58 ff ff       	callq  3470 <__gttf2@plt>
    dbfd:	48 85 c0             	test   %rax,%rax
    dc00:	0f 8f 21 03 00 00    	jg     df27 <__divtc3@@GCC_4.3.0+0x4f7>
    dc06:	66 0f 6f 0d 82 7a 00 	movdqa 0x7a82(%rip),%xmm1        # 15690 <__emutls_register_common@@GCC_4.3.0+0x1680>
    dc0d:	00 
    dc0e:	66 0f 6f 44 24 70    	movdqa 0x70(%rsp),%xmm0
    dc14:	e8 67 59 ff ff       	callq  3580 <__unordtf2@plt>
    dc19:	48 85 c0             	test   %rax,%rax
    dc1c:	0f 85 05 03 00 00    	jne    df27 <__divtc3@@GCC_4.3.0+0x4f7>
    dc22:	66 0f 6f 0d 66 7a 00 	movdqa 0x7a66(%rip),%xmm1        # 15690 <__emutls_register_common@@GCC_4.3.0+0x1680>
    dc29:	00 
    dc2a:	66 0f 6f 44 24 70    	movdqa 0x70(%rsp),%xmm0
    dc30:	e8 3b 58 ff ff       	callq  3470 <__gttf2@plt>
    dc35:	48 85 c0             	test   %rax,%rax
    dc38:	0f 8f e9 02 00 00    	jg     df27 <__divtc3@@GCC_4.3.0+0x4f7>
    dc3e:	66 0f 6f 0d 4a 7a 00 	movdqa 0x7a4a(%rip),%xmm1        # 15690 <__emutls_register_common@@GCC_4.3.0+0x1680>
    dc45:	00 
    dc46:	bb 01 00 00 00       	mov    $0x1,%ebx
    dc4b:	66 0f 6f 84 24 80 00 	movdqa 0x80(%rsp),%xmm0
    dc52:	00 00 
    dc54:	e8 27 59 ff ff       	callq  3580 <__unordtf2@plt>
    dc59:	48 85 c0             	test   %rax,%rax
    dc5c:	0f 84 0e 05 00 00    	je     e170 <__divtc3@@GCC_4.3.0+0x740>
    dc62:	83 f3 01             	xor    $0x1,%ebx
    dc65:	0f b6 fb             	movzbl %bl,%edi
    dc68:	bb 01 00 00 00       	mov    $0x1,%ebx
    dc6d:	e8 2e 59 ff ff       	callq  35a0 <__floatsitf@plt>
    dc72:	66 0f 6f 25 f6 79 00 	movdqa 0x79f6(%rip),%xmm4        # 15670 <__emutls_register_common@@GCC_4.3.0+0x1660>
    dc79:	00 
    dc7a:	66 0f 6f 3c 24       	movdqa (%rsp),%xmm7
    dc7f:	66 0f 6f 0d 09 7a 00 	movdqa 0x7a09(%rip),%xmm1        # 15690 <__emutls_register_common@@GCC_4.3.0+0x1680>
    dc86:	00 
    dc87:	66 0f db fc          	pand   %xmm4,%xmm7
    dc8b:	66 0f df e0          	pandn  %xmm0,%xmm4
    dc8f:	66 0f 6f 05 c9 79 00 	movdqa 0x79c9(%rip),%xmm0        # 15660 <__emutls_register_common@@GCC_4.3.0+0x1650>
    dc96:	00 
    dc97:	66 0f db 44 24 10    	pand   0x10(%rsp),%xmm0
    dc9d:	66 0f eb e7          	por    %xmm7,%xmm4
    dca1:	0f 29 24 24          	movaps %xmm4,(%rsp)
    dca5:	0f 29 44 24 40       	movaps %xmm0,0x40(%rsp)
    dcaa:	e8 d1 58 ff ff       	callq  3580 <__unordtf2@plt>
    dcaf:	48 85 c0             	test   %rax,%rax
    dcb2:	0f 84 98 04 00 00    	je     e150 <__divtc3@@GCC_4.3.0+0x720>
    dcb8:	83 f3 01             	xor    $0x1,%ebx
    dcbb:	0f b6 fb             	movzbl %bl,%edi
    dcbe:	e8 dd 58 ff ff       	callq  35a0 <__floatsitf@plt>
    dcc3:	66 0f 6f 64 24 10    	movdqa 0x10(%rsp),%xmm4
    dcc9:	66 0f 6f 0c 24       	movdqa (%rsp),%xmm1
    dcce:	66 0f 6f 15 9a 79 00 	movdqa 0x799a(%rip),%xmm2        # 15670 <__emutls_register_common@@GCC_4.3.0+0x1660>
    dcd5:	00 
    dcd6:	66 0f db e2          	pand   %xmm2,%xmm4
    dcda:	66 0f df d0          	pandn  %xmm0,%xmm2
    dcde:	66 0f 6f 44 24 20    	movdqa 0x20(%rsp),%xmm0
    dce4:	66 0f eb d4          	por    %xmm4,%xmm2
    dce8:	0f 29 54 24 10       	movaps %xmm2,0x10(%rsp)
    dced:	e8 9e 56 ff ff       	callq  3390 <__multf3@plt>
    dcf2:	66 0f 6f 54 24 10    	movdqa 0x10(%rsp),%xmm2
    dcf8:	0f 29 44 24 40       	movaps %xmm0,0x40(%rsp)
    dcfd:	66 0f 6f 44 24 30    	movdqa 0x30(%rsp),%xmm0
    dd03:	66 0f 6f ca          	movdqa %xmm2,%xmm1
    dd07:	e8 84 56 ff ff       	callq  3390 <__multf3@plt>
    dd0c:	66 0f 6f 5c 24 40    	movdqa 0x40(%rsp),%xmm3
    dd12:	66 0f 6f c8          	movdqa %xmm0,%xmm1
    dd16:	66 0f 6f c3          	movdqa %xmm3,%xmm0
    dd1a:	e8 61 57 ff ff       	callq  3480 <__addtf3@plt>
    dd1f:	66 0f 6f 0d 59 79 00 	movdqa 0x7959(%rip),%xmm1        # 15680 <__emutls_register_common@@GCC_4.3.0+0x1670>
    dd26:	00 
    dd27:	e8 64 56 ff ff       	callq  3390 <__multf3@plt>
    dd2c:	66 0f 6f 54 24 10    	movdqa 0x10(%rsp),%xmm2
    dd32:	0f 29 44 24 40       	movaps %xmm0,0x40(%rsp)
    dd37:	66 0f 6f 44 24 20    	movdqa 0x20(%rsp),%xmm0
    dd3d:	66 0f 6f ca          	movdqa %xmm2,%xmm1
    dd41:	e8 4a 56 ff ff       	callq  3390 <__multf3@plt>
    dd46:	66 0f 6f 0c 24       	movdqa (%rsp),%xmm1
    dd4b:	0f 29 44 24 10       	movaps %xmm0,0x10(%rsp)
    dd50:	66 0f 6f 44 24 30    	movdqa 0x30(%rsp),%xmm0
    dd56:	e8 35 56 ff ff       	callq  3390 <__multf3@plt>
    dd5b:	66 0f 6f 54 24 10    	movdqa 0x10(%rsp),%xmm2
    dd61:	66 0f 6f c8          	movdqa %xmm0,%xmm1
    dd65:	66 0f 6f c2          	movdqa %xmm2,%xmm0
    dd69:	e8 52 58 ff ff       	callq  35c0 <__subtf3@plt>
    dd6e:	66 0f 6f 0d 0a 79 00 	movdqa 0x790a(%rip),%xmm1        # 15680 <__emutls_register_common@@GCC_4.3.0+0x1670>
    dd75:	00 
    dd76:	e8 15 56 ff ff       	callq  3390 <__multf3@plt>
    dd7b:	0f 29 44 24 50       	movaps %xmm0,0x50(%rsp)
    dd80:	66 0f 6f 7c 24 40    	movdqa 0x40(%rsp),%xmm7
    dd86:	66 0f 6f 64 24 50    	movdqa 0x50(%rsp),%xmm4
    dd8c:	4c 89 e0             	mov    %r12,%rax
    dd8f:	41 0f 29 3c 24       	movaps %xmm7,(%r12)
    dd94:	41 0f 29 64 24 10    	movaps %xmm4,0x10(%r12)
    dd9a:	48 81 c4 a0 00 00 00 	add    $0xa0,%rsp
    dda1:	5b                   	pop    %rbx
    dda2:	5d                   	pop    %rbp
    dda3:	41 5c                	pop    %r12
    dda5:	c3                   	retq   
    dda6:	66 2e 0f 1f 84 00 00 	nopw   %cs:0x0(%rax,%rax,1)
    ddad:	00 00 00 
    ddb0:	66 0f 6f 4c 24 20    	movdqa 0x20(%rsp),%xmm1
    ddb6:	66 0f 6f 44 24 30    	movdqa 0x30(%rsp),%xmm0
    ddbc:	e8 ef 56 ff ff       	callq  34b0 <__divtf3@plt>
    ddc1:	66 0f 6f c8          	movdqa %xmm0,%xmm1
    ddc5:	0f 29 44 24 50       	movaps %xmm0,0x50(%rsp)
    ddca:	66 0f 6f 44 24 30    	movdqa 0x30(%rsp),%xmm0
    ddd0:	e8 bb 55 ff ff       	callq  3390 <__multf3@plt>
    ddd5:	66 0f 6f 4c 24 20    	movdqa 0x20(%rsp),%xmm1
    dddb:	e8 a0 56 ff ff       	callq  3480 <__addtf3@plt>
    dde0:	66 0f 6f 54 24 50    	movdqa 0x50(%rsp),%xmm2
    dde6:	66 0f 6f 4c 24 10    	movdqa 0x10(%rsp),%xmm1
    ddec:	0f 29 44 24 40       	movaps %xmm0,0x40(%rsp)
    ddf1:	66 0f 6f c2          	movdqa %xmm2,%xmm0
    ddf5:	0f 29 94 24 80 00 00 	movaps %xmm2,0x80(%rsp)
    ddfc:	00 
    ddfd:	e8 8e 55 ff ff       	callq  3390 <__multf3@plt>
    de02:	66 0f 6f 0c 24       	movdqa (%rsp),%xmm1
    de07:	e8 74 56 ff ff       	callq  3480 <__addtf3@plt>
    de0c:	66 0f 6f 5c 24 40    	movdqa 0x40(%rsp),%xmm3
    de12:	66 0f 6f cb          	movdqa %xmm3,%xmm1
    de16:	0f 29 5c 24 50       	movaps %xmm3,0x50(%rsp)
    de1b:	e8 90 56 ff ff       	callq  34b0 <__divtf3@plt>
    de20:	66 0f 6f 0c 24       	movdqa (%rsp),%xmm1
    de25:	66 0f 6f 94 24 80 00 	movdqa 0x80(%rsp),%xmm2
    de2c:	00 00 
    de2e:	0f 29 44 24 40       	movaps %xmm0,0x40(%rsp)
    de33:	66 0f 6f c2          	movdqa %xmm2,%xmm0
    de37:	e8 54 55 ff ff       	callq  3390 <__multf3@plt>
    de3c:	66 0f 6f c8          	movdqa %xmm0,%xmm1
    de40:	66 0f 6f 44 24 10    	movdqa 0x10(%rsp),%xmm0
    de46:	e9 d4 fc ff ff       	jmpq   db1f <__divtc3@@GCC_4.3.0+0xef>
    de4b:	0f 1f 44 00 00       	nopl   0x0(%rax,%rax,1)
    de50:	66 0f 6f 44 24 30    	movdqa 0x30(%rsp),%xmm0
    de56:	66 0f ef c9          	pxor   %xmm1,%xmm1
    de5a:	e8 41 55 ff ff       	callq  33a0 <__eqtf2@plt>
    de5f:	48 85 c0             	test   %rax,%rax
    de62:	0f 85 18 fd ff ff    	jne    db80 <__divtc3@@GCC_4.3.0+0x150>
    de68:	66 0f 6f 0c 24       	movdqa (%rsp),%xmm1
    de6d:	66 0f 6f c1          	movdqa %xmm1,%xmm0
    de71:	e8 0a 57 ff ff       	callq  3580 <__unordtf2@plt>
    de76:	48 85 c0             	test   %rax,%rax
    de79:	74 18                	je     de93 <__divtc3@@GCC_4.3.0+0x463>
    de7b:	66 0f 6f 4c 24 10    	movdqa 0x10(%rsp),%xmm1
    de81:	66 0f 6f c1          	movdqa %xmm1,%xmm0
    de85:	e8 f6 56 ff ff       	callq  3580 <__unordtf2@plt>
    de8a:	48 85 c0             	test   %rax,%rax
    de8d:	0f 85 ed fc ff ff    	jne    db80 <__divtc3@@GCC_4.3.0+0x150>
    de93:	66 0f 6f 54 24 20    	movdqa 0x20(%rsp),%xmm2
    de99:	66 0f db 15 cf 77 00 	pand   0x77cf(%rip),%xmm2        # 15670 <__emutls_register_common@@GCC_4.3.0+0x1660>
    dea0:	00 
    dea1:	66 0f eb 15 d7 77 00 	por    0x77d7(%rip),%xmm2        # 15680 <__emutls_register_common@@GCC_4.3.0+0x1670>
    dea8:	00 
    dea9:	66 0f 6f 0c 24       	movdqa (%rsp),%xmm1
    deae:	66 0f 6f c2          	movdqa %xmm2,%xmm0
    deb2:	0f 29 14 24          	movaps %xmm2,(%rsp)
    deb6:	e8 d5 54 ff ff       	callq  3390 <__multf3@plt>
    debb:	66 0f 6f 14 24       	movdqa (%rsp),%xmm2
    dec0:	66 0f 6f 4c 24 10    	movdqa 0x10(%rsp),%xmm1
    dec6:	0f 29 44 24 40       	movaps %xmm0,0x40(%rsp)
    decb:	66 0f 6f c2          	movdqa %xmm2,%xmm0
    decf:	e8 bc 54 ff ff       	callq  3390 <__multf3@plt>
    ded4:	0f 29 44 24 50       	movaps %xmm0,0x50(%rsp)
    ded9:	e9 a2 fe ff ff       	jmpq   dd80 <__divtc3@@GCC_4.3.0+0x350>
    dede:	66 90                	xchg   %ax,%ax
    dee0:	66 0f 6f 05 78 77 00 	movdqa 0x7778(%rip),%xmm0        # 15660 <__emutls_register_common@@GCC_4.3.0+0x1650>
    dee7:	00 
    dee8:	66 0f 6f 0d a0 77 00 	movdqa 0x77a0(%rip),%xmm1        # 15690 <__emutls_register_common@@GCC_4.3.0+0x1680>
    deef:	00 
    def0:	66 0f db 44 24 10    	pand   0x10(%rsp),%xmm0
    def6:	0f 29 84 24 90 00 00 	movaps %xmm0,0x90(%rsp)
    defd:	00 
    defe:	e8 7d 56 ff ff       	callq  3580 <__unordtf2@plt>
    df03:	48 85 c0             	test   %rax,%rax
    df06:	75 1f                	jne    df27 <__divtc3@@GCC_4.3.0+0x4f7>
    df08:	66 0f 6f 0d 80 77 00 	movdqa 0x7780(%rip),%xmm1        # 15690 <__emutls_register_common@@GCC_4.3.0+0x1680>
    df0f:	00 
    df10:	66 0f 6f 84 24 90 00 	movdqa 0x90(%rsp),%xmm0
    df17:	00 00 
    df19:	e8 12 55 ff ff       	callq  3430 <__letf2@plt>
    df1e:	48 85 c0             	test   %rax,%rax
    df21:	0f 8f a7 fc ff ff    	jg     dbce <__divtc3@@GCC_4.3.0+0x19e>
    df27:	66 0f 6f 0d 61 77 00 	movdqa 0x7761(%rip),%xmm1        # 15690 <__emutls_register_common@@GCC_4.3.0+0x1680>
    df2e:	00 
    df2f:	66 0f 6f 44 24 60    	movdqa 0x60(%rsp),%xmm0
    df35:	bb 01 00 00 00       	mov    $0x1,%ebx
    df3a:	e8 41 56 ff ff       	callq  3580 <__unordtf2@plt>
    df3f:	48 85 c0             	test   %rax,%rax
    df42:	0f 84 e8 01 00 00    	je     e130 <__divtc3@@GCC_4.3.0+0x700>
    df48:	66 0f 6f 0d 40 77 00 	movdqa 0x7740(%rip),%xmm1        # 15690 <__emutls_register_common@@GCC_4.3.0+0x1680>
    df4f:	00 
    df50:	66 0f 6f 44 24 70    	movdqa 0x70(%rsp),%xmm0
    df56:	bd 01 00 00 00       	mov    $0x1,%ebp
    df5b:	e8 20 56 ff ff       	callq  3580 <__unordtf2@plt>
    df60:	48 85 c0             	test   %rax,%rax
    df63:	0f 84 97 01 00 00    	je     e100 <__divtc3@@GCC_4.3.0+0x6d0>
    df69:	84 db                	test   %bl,%bl
    df6b:	74 09                	je     df76 <__divtc3@@GCC_4.3.0+0x546>
    df6d:	40 84 ed             	test   %bpl,%bpl
    df70:	0f 85 0a fe ff ff    	jne    dd80 <__divtc3@@GCC_4.3.0+0x350>
    df76:	66 0f 6f 0d 12 77 00 	movdqa 0x7712(%rip),%xmm1        # 15690 <__emutls_register_common@@GCC_4.3.0+0x1680>
    df7d:	00 
    df7e:	66 0f 6f 84 24 80 00 	movdqa 0x80(%rsp),%xmm0
    df85:	00 00 
    df87:	e8 f4 55 ff ff       	callq  3580 <__unordtf2@plt>
    df8c:	48 85 c0             	test   %rax,%rax
    df8f:	0f 85 eb fd ff ff    	jne    dd80 <__divtc3@@GCC_4.3.0+0x350>
    df95:	66 0f 6f 0d f3 76 00 	movdqa 0x76f3(%rip),%xmm1        # 15690 <__emutls_register_common@@GCC_4.3.0+0x1680>
    df9c:	00 
    df9d:	66 0f 6f 84 24 80 00 	movdqa 0x80(%rsp),%xmm0
    dfa4:	00 00 
    dfa6:	e8 c5 54 ff ff       	callq  3470 <__gttf2@plt>
    dfab:	48 85 c0             	test   %rax,%rax
    dfae:	0f 8f cc fd ff ff    	jg     dd80 <__divtc3@@GCC_4.3.0+0x350>
    dfb4:	66 0f 6f 05 a4 76 00 	movdqa 0x76a4(%rip),%xmm0        # 15660 <__emutls_register_common@@GCC_4.3.0+0x1650>
    dfbb:	00 
    dfbc:	66 0f 6f 0d cc 76 00 	movdqa 0x76cc(%rip),%xmm1        # 15690 <__emutls_register_common@@GCC_4.3.0+0x1680>
    dfc3:	00 
    dfc4:	66 0f db 44 24 10    	pand   0x10(%rsp),%xmm0
    dfca:	0f 29 44 24 60       	movaps %xmm0,0x60(%rsp)
    dfcf:	e8 ac 55 ff ff       	callq  3580 <__unordtf2@plt>
    dfd4:	48 85 c0             	test   %rax,%rax
    dfd7:	0f 85 a3 fd ff ff    	jne    dd80 <__divtc3@@GCC_4.3.0+0x350>
    dfdd:	66 0f 6f 0d ab 76 00 	movdqa 0x76ab(%rip),%xmm1        # 15690 <__emutls_register_common@@GCC_4.3.0+0x1680>
    dfe4:	00 
    dfe5:	66 0f 6f 44 24 60    	movdqa 0x60(%rsp),%xmm0
    dfeb:	e8 80 54 ff ff       	callq  3470 <__gttf2@plt>
    dff0:	48 85 c0             	test   %rax,%rax
    dff3:	0f 8f 87 fd ff ff    	jg     dd80 <__divtc3@@GCC_4.3.0+0x350>
    dff9:	83 f3 01             	xor    $0x1,%ebx
    dffc:	83 f5 01             	xor    $0x1,%ebp
    dfff:	0f b6 fb             	movzbl %bl,%edi
    e002:	e8 99 55 ff ff       	callq  35a0 <__floatsitf@plt>
    e007:	66 0f 6f 7c 24 20    	movdqa 0x20(%rsp),%xmm7
    e00d:	40 0f b6 fd          	movzbl %bpl,%edi
    e011:	66 0f 6f 1d 57 76 00 	movdqa 0x7657(%rip),%xmm3        # 15670 <__emutls_register_common@@GCC_4.3.0+0x1660>
    e018:	00 
    e019:	66 0f db fb          	pand   %xmm3,%xmm7
    e01d:	66 0f df d8          	pandn  %xmm0,%xmm3
    e021:	66 0f eb df          	por    %xmm7,%xmm3
    e025:	0f 29 5c 24 40       	movaps %xmm3,0x40(%rsp)
    e02a:	e8 71 55 ff ff       	callq  35a0 <__floatsitf@plt>
    e02f:	66 0f 6f 15 39 76 00 	movdqa 0x7639(%rip),%xmm2        # 15670 <__emutls_register_common@@GCC_4.3.0+0x1660>
    e036:	00 
    e037:	66 0f 6f 7c 24 30    	movdqa 0x30(%rsp),%xmm7
    e03d:	66 0f 6f 5c 24 40    	movdqa 0x40(%rsp),%xmm3
    e043:	66 0f db fa          	pand   %xmm2,%xmm7
    e047:	66 0f df d0          	pandn  %xmm0,%xmm2
    e04b:	66 0f 6f 04 24       	movdqa (%rsp),%xmm0
    e050:	66 0f eb d7          	por    %xmm7,%xmm2
    e054:	66 0f 6f cb          	movdqa %xmm3,%xmm1
    e058:	0f 29 5c 24 50       	movaps %xmm3,0x50(%rsp)
    e05d:	0f 29 54 24 20       	movaps %xmm2,0x20(%rsp)
    e062:	e8 29 53 ff ff       	callq  3390 <__multf3@plt>
    e067:	66 0f 6f 54 24 20    	movdqa 0x20(%rsp),%xmm2
    e06d:	0f 29 44 24 30       	movaps %xmm0,0x30(%rsp)
    e072:	66 0f 6f 44 24 10    	movdqa 0x10(%rsp),%xmm0
    e078:	66 0f 6f ca          	movdqa %xmm2,%xmm1
    e07c:	e8 0f 53 ff ff       	callq  3390 <__multf3@plt>
    e081:	66 0f 6f 64 24 30    	movdqa 0x30(%rsp),%xmm4
    e087:	66 0f 6f c8          	movdqa %xmm0,%xmm1
    e08b:	66 0f 6f c4          	movdqa %xmm4,%xmm0
    e08f:	e8 ec 53 ff ff       	callq  3480 <__addtf3@plt>
    e094:	66 0f ef c9          	pxor   %xmm1,%xmm1
    e098:	e8 f3 52 ff ff       	callq  3390 <__multf3@plt>
    e09d:	66 0f 6f 5c 24 50    	movdqa 0x50(%rsp),%xmm3
    e0a3:	0f 29 44 24 40       	movaps %xmm0,0x40(%rsp)
    e0a8:	66 0f 6f 44 24 10    	movdqa 0x10(%rsp),%xmm0
    e0ae:	66 0f 6f cb          	movdqa %xmm3,%xmm1
    e0b2:	e8 d9 52 ff ff       	callq  3390 <__multf3@plt>
    e0b7:	66 0f 6f 54 24 20    	movdqa 0x20(%rsp),%xmm2
    e0bd:	0f 29 44 24 10       	movaps %xmm0,0x10(%rsp)
    e0c2:	66 0f 6f 04 24       	movdqa (%rsp),%xmm0
    e0c7:	66 0f 6f ca          	movdqa %xmm2,%xmm1
    e0cb:	e8 c0 52 ff ff       	callq  3390 <__multf3@plt>
    e0d0:	66 0f 6f 5c 24 10    	movdqa 0x10(%rsp),%xmm3
    e0d6:	66 0f 6f c8          	movdqa %xmm0,%xmm1
    e0da:	66 0f 6f c3          	movdqa %xmm3,%xmm0
    e0de:	e8 dd 54 ff ff       	callq  35c0 <__subtf3@plt>
    e0e3:	66 0f ef c9          	pxor   %xmm1,%xmm1
    e0e7:	e8 a4 52 ff ff       	callq  3390 <__multf3@plt>
    e0ec:	0f 29 44 24 50       	movaps %xmm0,0x50(%rsp)
    e0f1:	e9 8a fc ff ff       	jmpq   dd80 <__divtc3@@GCC_4.3.0+0x350>
    e0f6:	66 2e 0f 1f 84 00 00 	nopw   %cs:0x0(%rax,%rax,1)
    e0fd:	00 00 00 
    e100:	66 0f 6f 0d 88 75 00 	movdqa 0x7588(%rip),%xmm1        # 15690 <__emutls_register_common@@GCC_4.3.0+0x1680>
    e107:	00 
    e108:	66 0f 6f 44 24 70    	movdqa 0x70(%rsp),%xmm0
    e10e:	e8 1d 53 ff ff       	callq  3430 <__letf2@plt>
    e113:	48 85 c0             	test   %rax,%rax
    e116:	40 0f 9e c5          	setle  %bpl
    e11a:	84 db                	test   %bl,%bl
    e11c:	0f 85 4b fe ff ff    	jne    df6d <__divtc3@@GCC_4.3.0+0x53d>
    e122:	e9 4f fe ff ff       	jmpq   df76 <__divtc3@@GCC_4.3.0+0x546>
    e127:	66 0f 1f 84 00 00 00 	nopw   0x0(%rax,%rax,1)
    e12e:	00 00 
    e130:	66 0f 6f 0d 58 75 00 	movdqa 0x7558(%rip),%xmm1        # 15690 <__emutls_register_common@@GCC_4.3.0+0x1680>
    e137:	00 
    e138:	66 0f 6f 44 24 60    	movdqa 0x60(%rsp),%xmm0
    e13e:	e8 ed 52 ff ff       	callq  3430 <__letf2@plt>
    e143:	48 85 c0             	test   %rax,%rax
    e146:	0f 9e c3             	setle  %bl
    e149:	e9 fa fd ff ff       	jmpq   df48 <__divtc3@@GCC_4.3.0+0x518>
    e14e:	66 90                	xchg   %ax,%ax
    e150:	66 0f 6f 0d 38 75 00 	movdqa 0x7538(%rip),%xmm1        # 15690 <__emutls_register_common@@GCC_4.3.0+0x1680>
    e157:	00 
    e158:	66 0f 6f 44 24 40    	movdqa 0x40(%rsp),%xmm0
    e15e:	e8 cd 52 ff ff       	callq  3430 <__letf2@plt>
    e163:	48 85 c0             	test   %rax,%rax
    e166:	0f 9e c3             	setle  %bl
    e169:	e9 4a fb ff ff       	jmpq   dcb8 <__divtc3@@GCC_4.3.0+0x288>
    e16e:	66 90                	xchg   %ax,%ax
    e170:	66 0f 6f 0d 18 75 00 	movdqa 0x7518(%rip),%xmm1        # 15690 <__emutls_register_common@@GCC_4.3.0+0x1680>
    e177:	00 
    e178:	66 0f 6f 84 24 80 00 	movdqa 0x80(%rsp),%xmm0
    e17f:	00 00 
    e181:	e8 aa 52 ff ff       	callq  3430 <__letf2@plt>
    e186:	48 85 c0             	test   %rax,%rax
    e189:	0f 9e c3             	setle  %bl
    e18c:	e9 d1 fa ff ff       	jmpq   dc62 <__divtc3@@GCC_4.3.0+0x232>
    e191:	66 2e 0f 1f 84 00 00 	nopw   %cs:0x0(%rax,%rax,1)
    e198:	00 00 00 
    e19b:	0f 1f 44 00 00       	nopl   0x0(%rax,%rax,1)

000000000000e1a0 <__multc3@GCC_4.0.0>:
    e1a0:	f3 0f 1e fa          	endbr64 
    e1a4:	41 54                	push   %r12
    e1a6:	49 89 fc             	mov    %rdi,%r12
    e1a9:	55                   	push   %rbp
    e1aa:	53                   	push   %rbx
    e1ab:	48 81 ec c0 00 00 00 	sub    $0xc0,%rsp
    e1b2:	0f 29 0c 24          	movaps %xmm1,(%rsp)
    e1b6:	66 0f 6f ca          	movdqa %xmm2,%xmm1
    e1ba:	0f 29 5c 24 10       	movaps %xmm3,0x10(%rsp)
    e1bf:	0f 29 54 24 30       	movaps %xmm2,0x30(%rsp)
    e1c4:	0f 29 44 24 20       	movaps %xmm0,0x20(%rsp)
    e1c9:	e8 c2 51 ff ff       	callq  3390 <__multf3@plt>
    e1ce:	66 0f 6f 4c 24 10    	movdqa 0x10(%rsp),%xmm1
    e1d4:	0f 29 44 24 60       	movaps %xmm0,0x60(%rsp)
    e1d9:	66 0f 6f 04 24       	movdqa (%rsp),%xmm0
    e1de:	e8 ad 51 ff ff       	callq  3390 <__multf3@plt>
    e1e3:	66 0f 6f 4c 24 10    	movdqa 0x10(%rsp),%xmm1
    e1e9:	0f 29 44 24 70       	movaps %xmm0,0x70(%rsp)
    e1ee:	66 0f 6f 44 24 20    	movdqa 0x20(%rsp),%xmm0
    e1f4:	e8 97 51 ff ff       	callq  3390 <__multf3@plt>
    e1f9:	66 0f 6f 0c 24       	movdqa (%rsp),%xmm1
    e1fe:	0f 29 84 24 80 00 00 	movaps %xmm0,0x80(%rsp)
    e205:	00 
    e206:	66 0f 6f 44 24 30    	movdqa 0x30(%rsp),%xmm0
    e20c:	e8 7f 51 ff ff       	callq  3390 <__multf3@plt>
    e211:	66 0f 6f 4c 24 70    	movdqa 0x70(%rsp),%xmm1
    e217:	0f 29 84 24 90 00 00 	movaps %xmm0,0x90(%rsp)
    e21e:	00 
    e21f:	66 0f 6f 44 24 60    	movdqa 0x60(%rsp),%xmm0
    e225:	e8 96 53 ff ff       	callq  35c0 <__subtf3@plt>
    e22a:	66 0f 6f 8c 24 90 00 	movdqa 0x90(%rsp),%xmm1
    e231:	00 00 
    e233:	0f 29 44 24 40       	movaps %xmm0,0x40(%rsp)
    e238:	66 0f 6f 84 24 80 00 	movdqa 0x80(%rsp),%xmm0
    e23f:	00 00 
    e241:	e8 3a 52 ff ff       	callq  3480 <__addtf3@plt>
    e246:	66 0f 6f 6c 24 40    	movdqa 0x40(%rsp),%xmm5
    e24c:	0f 29 44 24 50       	movaps %xmm0,0x50(%rsp)
    e251:	66 0f 6f cd          	movdqa %xmm5,%xmm1
    e255:	66 0f 6f c5          	movdqa %xmm5,%xmm0
    e259:	e8 22 53 ff ff       	callq  3580 <__unordtf2@plt>
    e25e:	66 0f 6f 4c 24 50    	movdqa 0x50(%rsp),%xmm1
    e264:	48 85 c0             	test   %rax,%rax
    e267:	66 0f 6f c1          	movdqa %xmm1,%xmm0
    e26b:	0f 95 c3             	setne  %bl
    e26e:	e8 0d 53 ff ff       	callq  3580 <__unordtf2@plt>
    e273:	48 85 c0             	test   %rax,%rax
    e276:	0f 95 c0             	setne  %al
    e279:	20 c3                	and    %al,%bl
    e27b:	0f 84 9a 03 00 00    	je     e61b <__multc3@GCC_4.0.0+0x47b>
    e281:	66 0f 6f 35 d7 73 00 	movdqa 0x73d7(%rip),%xmm6        # 15660 <__emutls_register_common@@GCC_4.3.0+0x1650>
    e288:	00 
    e289:	66 0f db 74 24 20    	pand   0x20(%rsp),%xmm6
    e28f:	bd 01 00 00 00       	mov    $0x1,%ebp
    e294:	66 0f 6f 0d f4 73 00 	movdqa 0x73f4(%rip),%xmm1        # 15690 <__emutls_register_common@@GCC_4.3.0+0x1680>
    e29b:	00 
    e29c:	66 0f 6f c6          	movdqa %xmm6,%xmm0
    e2a0:	0f 29 b4 24 a0 00 00 	movaps %xmm6,0xa0(%rsp)
    e2a7:	00 
    e2a8:	e8 d3 52 ff ff       	callq  3580 <__unordtf2@plt>
    e2ad:	66 0f 6f 84 24 a0 00 	movdqa 0xa0(%rsp),%xmm0
    e2b4:	00 00 
    e2b6:	48 85 c0             	test   %rax,%rax
    e2b9:	0f 84 89 03 00 00    	je     e648 <__multc3@GCC_4.0.0+0x4a8>
    e2bf:	66 0f 6f 3d 99 73 00 	movdqa 0x7399(%rip),%xmm7        # 15660 <__emutls_register_common@@GCC_4.3.0+0x1650>
    e2c6:	00 
    e2c7:	66 0f db 3c 24       	pand   (%rsp),%xmm7
    e2cc:	83 f5 01             	xor    $0x1,%ebp
    e2cf:	0f 29 84 24 a0 00 00 	movaps %xmm0,0xa0(%rsp)
    e2d6:	00 
    e2d7:	66 0f 6f 0d b1 73 00 	movdqa 0x73b1(%rip),%xmm1        # 15690 <__emutls_register_common@@GCC_4.3.0+0x1680>
    e2de:	00 
    e2df:	0f 29 bc 24 b0 00 00 	movaps %xmm7,0xb0(%rsp)
    e2e6:	00 
    e2e7:	e8 94 52 ff ff       	callq  3580 <__unordtf2@plt>
    e2ec:	48 85 c0             	test   %rax,%rax
    e2ef:	75 1b                	jne    e30c <__multc3@GCC_4.0.0+0x16c>
    e2f1:	66 0f 6f 0d 97 73 00 	movdqa 0x7397(%rip),%xmm1        # 15690 <__emutls_register_common@@GCC_4.3.0+0x1680>
    e2f8:	00 
    e2f9:	66 0f 6f 84 24 a0 00 	movdqa 0xa0(%rsp),%xmm0
    e300:	00 00 
    e302:	e8 29 51 ff ff       	callq  3430 <__letf2@plt>
    e307:	48 85 c0             	test   %rax,%rax
    e30a:	7f 3e                	jg     e34a <__multc3@GCC_4.0.0+0x1aa>
    e30c:	66 0f 6f 0d 7c 73 00 	movdqa 0x737c(%rip),%xmm1        # 15690 <__emutls_register_common@@GCC_4.3.0+0x1680>
    e313:	00 
    e314:	66 0f 6f 84 24 b0 00 	movdqa 0xb0(%rsp),%xmm0
    e31b:	00 00 
    e31d:	e8 5e 52 ff ff       	callq  3580 <__unordtf2@plt>
    e322:	48 85 c0             	test   %rax,%rax
    e325:	0f 85 e5 04 00 00    	jne    e810 <__multc3@GCC_4.0.0+0x670>
    e32b:	66 0f 6f 0d 5d 73 00 	movdqa 0x735d(%rip),%xmm1        # 15690 <__emutls_register_common@@GCC_4.3.0+0x1680>
    e332:	00 
    e333:	66 0f 6f 84 24 b0 00 	movdqa 0xb0(%rsp),%xmm0
    e33a:	00 00 
    e33c:	e8 ef 50 ff ff       	callq  3430 <__letf2@plt>
    e341:	48 85 c0             	test   %rax,%rax
    e344:	0f 8e c6 04 00 00    	jle    e810 <__multc3@GCC_4.0.0+0x670>
    e34a:	40 0f b6 fd          	movzbl %bpl,%edi
    e34e:	bd 01 00 00 00       	mov    $0x1,%ebp
    e353:	e8 48 52 ff ff       	callq  35a0 <__floatsitf@plt>
    e358:	66 0f 6f 1d 10 73 00 	movdqa 0x7310(%rip),%xmm3        # 15670 <__emutls_register_common@@GCC_4.3.0+0x1660>
    e35f:	00 
    e360:	66 0f 6f 6c 24 20    	movdqa 0x20(%rsp),%xmm5
    e366:	66 0f 6f 0d 22 73 00 	movdqa 0x7322(%rip),%xmm1        # 15690 <__emutls_register_common@@GCC_4.3.0+0x1680>
    e36d:	00 
    e36e:	66 0f db eb          	pand   %xmm3,%xmm5
    e372:	0f 29 9c 24 a0 00 00 	movaps %xmm3,0xa0(%rsp)
    e379:	00 
    e37a:	66 0f df d8          	pandn  %xmm0,%xmm3
    e37e:	66 0f 6f 84 24 b0 00 	movdqa 0xb0(%rsp),%xmm0
    e385:	00 00 
    e387:	66 0f eb dd          	por    %xmm5,%xmm3
    e38b:	0f 29 5c 24 20       	movaps %xmm3,0x20(%rsp)
    e390:	e8 eb 51 ff ff       	callq  3580 <__unordtf2@plt>
    e395:	48 85 c0             	test   %rax,%rax
    e398:	0f 84 fa 02 00 00    	je     e698 <__multc3@GCC_4.0.0+0x4f8>
    e39e:	83 f5 01             	xor    $0x1,%ebp
    e3a1:	40 0f b6 fd          	movzbl %bpl,%edi
    e3a5:	e8 f6 51 ff ff       	callq  35a0 <__floatsitf@plt>
    e3aa:	66 0f 6f 1c 24       	movdqa (%rsp),%xmm3
    e3af:	66 0f 6f 4c 24 30    	movdqa 0x30(%rsp),%xmm1
    e3b5:	66 0f 6f bc 24 a0 00 	movdqa 0xa0(%rsp),%xmm7
    e3bc:	00 00 
    e3be:	66 0f db df          	pand   %xmm7,%xmm3
    e3c2:	66 0f df f8          	pandn  %xmm0,%xmm7
    e3c6:	66 0f 6f c1          	movdqa %xmm1,%xmm0
    e3ca:	66 0f eb fb          	por    %xmm3,%xmm7
    e3ce:	0f 29 3c 24          	movaps %xmm7,(%rsp)
    e3d2:	e8 a9 51 ff ff       	callq  3580 <__unordtf2@plt>
    e3d7:	48 85 c0             	test   %rax,%rax
    e3da:	0f 85 d0 04 00 00    	jne    e8b0 <__multc3@GCC_4.0.0+0x710>
    e3e0:	66 0f 6f 4c 24 10    	movdqa 0x10(%rsp),%xmm1
    e3e6:	66 0f 6f c1          	movdqa %xmm1,%xmm0
    e3ea:	e8 91 51 ff ff       	callq  3580 <__unordtf2@plt>
    e3ef:	48 85 c0             	test   %rax,%rax
    e3f2:	0f 85 d8 04 00 00    	jne    e8d0 <__multc3@GCC_4.0.0+0x730>
    e3f8:	66 0f 6f 05 60 72 00 	movdqa 0x7260(%rip),%xmm0        # 15660 <__emutls_register_common@@GCC_4.3.0+0x1650>
    e3ff:	00 
    e400:	66 0f db 44 24 30    	pand   0x30(%rsp),%xmm0
    e406:	bd 01 00 00 00       	mov    $0x1,%ebp
    e40b:	66 0f 6f 0d 7d 72 00 	movdqa 0x727d(%rip),%xmm1        # 15690 <__emutls_register_common@@GCC_4.3.0+0x1680>
    e412:	00 
    e413:	0f 29 84 24 a0 00 00 	movaps %xmm0,0xa0(%rsp)
    e41a:	00 
    e41b:	e8 60 51 ff ff       	callq  3580 <__unordtf2@plt>
    e420:	66 0f 6f 84 24 a0 00 	movdqa 0xa0(%rsp),%xmm0
    e427:	00 00 
    e429:	48 85 c0             	test   %rax,%rax
    e42c:	75 1d                	jne    e44b <__multc3@GCC_4.0.0+0x2ab>
    e42e:	66 0f 6f 0d 5a 72 00 	movdqa 0x725a(%rip),%xmm1        # 15690 <__emutls_register_common@@GCC_4.3.0+0x1680>
    e435:	00 
    e436:	e8 f5 4f ff ff       	callq  3430 <__letf2@plt>
    e43b:	66 0f 6f 84 24 a0 00 	movdqa 0xa0(%rsp),%xmm0
    e442:	00 00 
    e444:	48 85 c0             	test   %rax,%rax
    e447:	40 0f 9e c5          	setle  %bpl
    e44b:	66 0f 6f 2d 0d 72 00 	movdqa 0x720d(%rip),%xmm5        # 15660 <__emutls_register_common@@GCC_4.3.0+0x1650>
    e452:	00 
    e453:	66 0f 6f 0d 35 72 00 	movdqa 0x7235(%rip),%xmm1        # 15690 <__emutls_register_common@@GCC_4.3.0+0x1680>
    e45a:	00 
    e45b:	83 f5 01             	xor    $0x1,%ebp
    e45e:	0f 29 84 24 a0 00 00 	movaps %xmm0,0xa0(%rsp)
    e465:	00 
    e466:	66 0f db 6c 24 10    	pand   0x10(%rsp),%xmm5
    e46c:	0f 29 ac 24 b0 00 00 	movaps %xmm5,0xb0(%rsp)
    e473:	00 
    e474:	e8 07 51 ff ff       	callq  3580 <__unordtf2@plt>
    e479:	48 85 c0             	test   %rax,%rax
    e47c:	75 1b                	jne    e499 <__multc3@GCC_4.0.0+0x2f9>
    e47e:	66 0f 6f 0d 0a 72 00 	movdqa 0x720a(%rip),%xmm1        # 15690 <__emutls_register_common@@GCC_4.3.0+0x1680>
    e485:	00 
    e486:	66 0f 6f 84 24 a0 00 	movdqa 0xa0(%rsp),%xmm0
    e48d:	00 00 
    e48f:	e8 9c 4f ff ff       	callq  3430 <__letf2@plt>
    e494:	48 85 c0             	test   %rax,%rax
    e497:	7f 3e                	jg     e4d7 <__multc3@GCC_4.0.0+0x337>
    e499:	66 0f 6f 0d ef 71 00 	movdqa 0x71ef(%rip),%xmm1        # 15690 <__emutls_register_common@@GCC_4.3.0+0x1680>
    e4a0:	00 
    e4a1:	66 0f 6f 84 24 b0 00 	movdqa 0xb0(%rsp),%xmm0
    e4a8:	00 00 
    e4aa:	e8 d1 50 ff ff       	callq  3580 <__unordtf2@plt>
    e4af:	48 85 c0             	test   %rax,%rax
    e4b2:	0f 85 08 02 00 00    	jne    e6c0 <__multc3@GCC_4.0.0+0x520>
    e4b8:	66 0f 6f 0d d0 71 00 	movdqa 0x71d0(%rip),%xmm1        # 15690 <__emutls_register_common@@GCC_4.3.0+0x1680>
    e4bf:	00 
    e4c0:	66 0f 6f 84 24 b0 00 	movdqa 0xb0(%rsp),%xmm0
    e4c7:	00 00 
    e4c9:	e8 62 4f ff ff       	callq  3430 <__letf2@plt>
    e4ce:	48 85 c0             	test   %rax,%rax
    e4d1:	0f 8e e9 01 00 00    	jle    e6c0 <__multc3@GCC_4.0.0+0x520>
    e4d7:	40 0f b6 fd          	movzbl %bpl,%edi
    e4db:	bb 01 00 00 00       	mov    $0x1,%ebx
    e4e0:	e8 bb 50 ff ff       	callq  35a0 <__floatsitf@plt>
    e4e5:	66 0f 6f 35 83 71 00 	movdqa 0x7183(%rip),%xmm6        # 15670 <__emutls_register_common@@GCC_4.3.0+0x1660>
    e4ec:	00 
    e4ed:	66 0f 6f 7c 24 30    	movdqa 0x30(%rsp),%xmm7
    e4f3:	66 0f 6f 0d 95 71 00 	movdqa 0x7195(%rip),%xmm1        # 15690 <__emutls_register_common@@GCC_4.3.0+0x1680>
    e4fa:	00 
    e4fb:	66 0f db fe          	pand   %xmm6,%xmm7
    e4ff:	0f 29 b4 24 a0 00 00 	movaps %xmm6,0xa0(%rsp)
    e506:	00 
    e507:	66 0f df f0          	pandn  %xmm0,%xmm6
    e50b:	66 0f 6f 84 24 b0 00 	movdqa 0xb0(%rsp),%xmm0
    e512:	00 00 
    e514:	66 0f eb f7          	por    %xmm7,%xmm6
    e518:	0f 29 74 24 30       	movaps %xmm6,0x30(%rsp)
    e51d:	e8 5e 50 ff ff       	callq  3580 <__unordtf2@plt>
    e522:	48 85 c0             	test   %rax,%rax
    e525:	0f 84 45 01 00 00    	je     e670 <__multc3@GCC_4.0.0+0x4d0>
    e52b:	83 f3 01             	xor    $0x1,%ebx
    e52e:	0f b6 fb             	movzbl %bl,%edi
    e531:	e8 6a 50 ff ff       	callq  35a0 <__floatsitf@plt>
    e536:	66 0f 6f 6c 24 10    	movdqa 0x10(%rsp),%xmm5
    e53c:	66 0f 6f a4 24 a0 00 	movdqa 0xa0(%rsp),%xmm4
    e543:	00 00 
    e545:	66 0f 6f 4c 24 20    	movdqa 0x20(%rsp),%xmm1
    e54b:	66 0f db ec          	pand   %xmm4,%xmm5
    e54f:	66 0f df e0          	pandn  %xmm0,%xmm4
    e553:	66 0f eb e5          	por    %xmm5,%xmm4
    e557:	66 0f 6f c1          	movdqa %xmm1,%xmm0
    e55b:	0f 29 64 24 10       	movaps %xmm4,0x10(%rsp)
    e560:	e8 1b 50 ff ff       	callq  3580 <__unordtf2@plt>
    e565:	48 85 c0             	test   %rax,%rax
    e568:	0f 85 02 03 00 00    	jne    e870 <__multc3@GCC_4.0.0+0x6d0>
    e56e:	66 0f 6f 0c 24       	movdqa (%rsp),%xmm1
    e573:	66 0f 6f c1          	movdqa %xmm1,%xmm0
    e577:	e8 04 50 ff ff       	callq  3580 <__unordtf2@plt>
    e57c:	48 85 c0             	test   %rax,%rax
    e57f:	0f 85 0b 03 00 00    	jne    e890 <__multc3@GCC_4.0.0+0x6f0>
    e585:	66 0f 6f 4c 24 30    	movdqa 0x30(%rsp),%xmm1
    e58b:	66 0f 6f 44 24 20    	movdqa 0x20(%rsp),%xmm0
    e591:	e8 fa 4d ff ff       	callq  3390 <__multf3@plt>
    e596:	66 0f 6f 4c 24 10    	movdqa 0x10(%rsp),%xmm1
    e59c:	0f 29 44 24 40       	movaps %xmm0,0x40(%rsp)
    e5a1:	66 0f 6f 04 24       	movdqa (%rsp),%xmm0
    e5a6:	e8 e5 4d ff ff       	callq  3390 <__multf3@plt>
    e5ab:	66 0f 6f 54 24 40    	movdqa 0x40(%rsp),%xmm2
    e5b1:	66 0f 6f c8          	movdqa %xmm0,%xmm1
    e5b5:	66 0f 6f c2          	movdqa %xmm2,%xmm0
    e5b9:	e8 02 50 ff ff       	callq  35c0 <__subtf3@plt>
    e5be:	66 0f 6f 0d ba 70 00 	movdqa 0x70ba(%rip),%xmm1        # 15680 <__emutls_register_common@@GCC_4.3.0+0x1670>
    e5c5:	00 
    e5c6:	e8 c5 4d ff ff       	callq  3390 <__multf3@plt>
    e5cb:	66 0f 6f 4c 24 10    	movdqa 0x10(%rsp),%xmm1
    e5d1:	0f 29 44 24 40       	movaps %xmm0,0x40(%rsp)
    e5d6:	66 0f 6f 44 24 20    	movdqa 0x20(%rsp),%xmm0
    e5dc:	e8 af 4d ff ff       	callq  3390 <__multf3@plt>
    e5e1:	66 0f 6f 4c 24 30    	movdqa 0x30(%rsp),%xmm1
    e5e7:	0f 29 44 24 10       	movaps %xmm0,0x10(%rsp)
    e5ec:	66 0f 6f 04 24       	movdqa (%rsp),%xmm0
    e5f1:	e8 9a 4d ff ff       	callq  3390 <__multf3@plt>
    e5f6:	66 0f 6f 54 24 10    	movdqa 0x10(%rsp),%xmm2
    e5fc:	66 0f 6f c8          	movdqa %xmm0,%xmm1
    e600:	66 0f 6f c2          	movdqa %xmm2,%xmm0
    e604:	e8 77 4e ff ff       	callq  3480 <__addtf3@plt>
    e609:	66 0f 6f 0d 6f 70 00 	movdqa 0x706f(%rip),%xmm1        # 15680 <__emutls_register_common@@GCC_4.3.0+0x1670>
    e610:	00 
    e611:	e8 7a 4d ff ff       	callq  3390 <__multf3@plt>
    e616:	0f 29 44 24 50       	movaps %xmm0,0x50(%rsp)
    e61b:	66 0f 6f 74 24 40    	movdqa 0x40(%rsp),%xmm6
    e621:	66 0f 6f 7c 24 50    	movdqa 0x50(%rsp),%xmm7
    e627:	4c 89 e0             	mov    %r12,%rax
    e62a:	41 0f 29 34 24       	movaps %xmm6,(%r12)
    e62f:	41 0f 29 7c 24 10    	movaps %xmm7,0x10(%r12)
    e635:	48 81 c4 c0 00 00 00 	add    $0xc0,%rsp
    e63c:	5b                   	pop    %rbx
    e63d:	5d                   	pop    %rbp
    e63e:	41 5c                	pop    %r12
    e640:	c3                   	retq   
    e641:	0f 1f 80 00 00 00 00 	nopl   0x0(%rax)
    e648:	66 0f 6f 0d 40 70 00 	movdqa 0x7040(%rip),%xmm1        # 15690 <__emutls_register_common@@GCC_4.3.0+0x1680>
    e64f:	00 
    e650:	e8 db 4d ff ff       	callq  3430 <__letf2@plt>
    e655:	66 0f 6f 84 24 a0 00 	movdqa 0xa0(%rsp),%xmm0
    e65c:	00 00 
    e65e:	48 85 c0             	test   %rax,%rax
    e661:	40 0f 9e c5          	setle  %bpl
    e665:	e9 55 fc ff ff       	jmpq   e2bf <__multc3@GCC_4.0.0+0x11f>
    e66a:	66 0f 1f 44 00 00    	nopw   0x0(%rax,%rax,1)
    e670:	66 0f 6f 0d 18 70 00 	movdqa 0x7018(%rip),%xmm1        # 15690 <__emutls_register_common@@GCC_4.3.0+0x1680>
    e677:	00 
    e678:	66 0f 6f 84 24 b0 00 	movdqa 0xb0(%rsp),%xmm0
    e67f:	00 00 
    e681:	e8 aa 4d ff ff       	callq  3430 <__letf2@plt>
    e686:	48 85 c0             	test   %rax,%rax
    e689:	0f 9e c3             	setle  %bl
    e68c:	e9 9a fe ff ff       	jmpq   e52b <__multc3@GCC_4.0.0+0x38b>
    e691:	0f 1f 80 00 00 00 00 	nopl   0x0(%rax)
    e698:	66 0f 6f 0d f0 6f 00 	movdqa 0x6ff0(%rip),%xmm1        # 15690 <__emutls_register_common@@GCC_4.3.0+0x1680>
    e69f:	00 
    e6a0:	66 0f 6f 84 24 b0 00 	movdqa 0xb0(%rsp),%xmm0
    e6a7:	00 00 
    e6a9:	e8 82 4d ff ff       	callq  3430 <__letf2@plt>
    e6ae:	48 85 c0             	test   %rax,%rax
    e6b1:	40 0f 9e c5          	setle  %bpl
    e6b5:	e9 e4 fc ff ff       	jmpq   e39e <__multc3@GCC_4.0.0+0x1fe>
    e6ba:	66 0f 1f 44 00 00    	nopw   0x0(%rax,%rax,1)
    e6c0:	84 db                	test   %bl,%bl
    e6c2:	0f 85 bd fe ff ff    	jne    e585 <__multc3@GCC_4.0.0+0x3e5>
    e6c8:	66 0f 6f 05 90 6f 00 	movdqa 0x6f90(%rip),%xmm0        # 15660 <__emutls_register_common@@GCC_4.3.0+0x1650>
    e6cf:	00 
    e6d0:	66 0f 6f 0d b8 6f 00 	movdqa 0x6fb8(%rip),%xmm1        # 15690 <__emutls_register_common@@GCC_4.3.0+0x1680>
    e6d7:	00 
    e6d8:	66 0f db 44 24 60    	pand   0x60(%rsp),%xmm0
    e6de:	0f 29 44 24 60       	movaps %xmm0,0x60(%rsp)
    e6e3:	e8 98 4e ff ff       	callq  3580 <__unordtf2@plt>
    e6e8:	48 85 c0             	test   %rax,%rax
    e6eb:	75 1c                	jne    e709 <__multc3@GCC_4.0.0+0x569>
    e6ed:	66 0f 6f 0d 9b 6f 00 	movdqa 0x6f9b(%rip),%xmm1        # 15690 <__emutls_register_common@@GCC_4.3.0+0x1680>
    e6f4:	00 
    e6f5:	66 0f 6f 44 24 60    	movdqa 0x60(%rsp),%xmm0
    e6fb:	e8 30 4d ff ff       	callq  3430 <__letf2@plt>
    e700:	48 85 c0             	test   %rax,%rax
    e703:	0f 8f 87 00 00 00    	jg     e790 <__multc3@GCC_4.0.0+0x5f0>
    e709:	66 0f 6f 05 4f 6f 00 	movdqa 0x6f4f(%rip),%xmm0        # 15660 <__emutls_register_common@@GCC_4.3.0+0x1650>
    e710:	00 
    e711:	66 0f 6f 0d 77 6f 00 	movdqa 0x6f77(%rip),%xmm1        # 15690 <__emutls_register_common@@GCC_4.3.0+0x1680>
    e718:	00 
    e719:	66 0f db 44 24 70    	pand   0x70(%rsp),%xmm0
    e71f:	0f 29 44 24 60       	movaps %xmm0,0x60(%rsp)
    e724:	e8 57 4e ff ff       	callq  3580 <__unordtf2@plt>
    e729:	48 85 c0             	test   %rax,%rax
    e72c:	75 18                	jne    e746 <__multc3@GCC_4.0.0+0x5a6>
    e72e:	66 0f 6f 0d 5a 6f 00 	movdqa 0x6f5a(%rip),%xmm1        # 15690 <__emutls_register_common@@GCC_4.3.0+0x1680>
    e735:	00 
    e736:	66 0f 6f 44 24 60    	movdqa 0x60(%rsp),%xmm0
    e73c:	e8 ef 4c ff ff       	callq  3430 <__letf2@plt>
    e741:	48 85 c0             	test   %rax,%rax
    e744:	7f 4a                	jg     e790 <__multc3@GCC_4.0.0+0x5f0>
    e746:	66 0f 6f 05 12 6f 00 	movdqa 0x6f12(%rip),%xmm0        # 15660 <__emutls_register_common@@GCC_4.3.0+0x1650>
    e74d:	00 
    e74e:	66 0f 6f 0d 3a 6f 00 	movdqa 0x6f3a(%rip),%xmm1        # 15690 <__emutls_register_common@@GCC_4.3.0+0x1680>
    e755:	00 
    e756:	66 0f db 84 24 80 00 	pand   0x80(%rsp),%xmm0
    e75d:	00 00 
    e75f:	0f 29 44 24 60       	movaps %xmm0,0x60(%rsp)
    e764:	e8 17 4e ff ff       	callq  3580 <__unordtf2@plt>
    e769:	48 85 c0             	test   %rax,%rax
    e76c:	0f 85 ae 00 00 00    	jne    e820 <__multc3@GCC_4.0.0+0x680>
    e772:	66 0f 6f 0d 16 6f 00 	movdqa 0x6f16(%rip),%xmm1        # 15690 <__emutls_register_common@@GCC_4.3.0+0x1680>
    e779:	00 
    e77a:	66 0f 6f 44 24 60    	movdqa 0x60(%rsp),%xmm0
    e780:	e8 ab 4c ff ff       	callq  3430 <__letf2@plt>
    e785:	48 85 c0             	test   %rax,%rax
    e788:	0f 8e 92 00 00 00    	jle    e820 <__multc3@GCC_4.0.0+0x680>
    e78e:	66 90                	xchg   %ax,%ax
    e790:	66 0f 6f 4c 24 20    	movdqa 0x20(%rsp),%xmm1
    e796:	66 0f 6f c1          	movdqa %xmm1,%xmm0
    e79a:	e8 e1 4d ff ff       	callq  3580 <__unordtf2@plt>
    e79f:	48 85 c0             	test   %rax,%rax
    e7a2:	0f 85 88 01 00 00    	jne    e930 <__multc3@GCC_4.0.0+0x790>
    e7a8:	66 0f 6f 0c 24       	movdqa (%rsp),%xmm1
    e7ad:	66 0f 6f c1          	movdqa %xmm1,%xmm0
    e7b1:	e8 ca 4d ff ff       	callq  3580 <__unordtf2@plt>
    e7b6:	48 85 c0             	test   %rax,%rax
    e7b9:	0f 85 51 01 00 00    	jne    e910 <__multc3@GCC_4.0.0+0x770>
    e7bf:	66 0f 6f 4c 24 30    	movdqa 0x30(%rsp),%xmm1
    e7c5:	66 0f 6f c1          	movdqa %xmm1,%xmm0
    e7c9:	e8 b2 4d ff ff       	callq  3580 <__unordtf2@plt>
    e7ce:	48 85 c0             	test   %rax,%rax
    e7d1:	0f 85 19 01 00 00    	jne    e8f0 <__multc3@GCC_4.0.0+0x750>
    e7d7:	66 0f 6f 4c 24 10    	movdqa 0x10(%rsp),%xmm1
    e7dd:	66 0f 6f c1          	movdqa %xmm1,%xmm0
    e7e1:	e8 9a 4d ff ff       	callq  3580 <__unordtf2@plt>
    e7e6:	48 85 c0             	test   %rax,%rax
    e7e9:	0f 84 96 fd ff ff    	je     e585 <__multc3@GCC_4.0.0+0x3e5>
    e7ef:	66 0f 6f 7c 24 10    	movdqa 0x10(%rsp),%xmm7
    e7f5:	66 0f db 3d 73 6e 00 	pand   0x6e73(%rip),%xmm7        # 15670 <__emutls_register_common@@GCC_4.3.0+0x1660>
    e7fc:	00 
    e7fd:	0f 29 7c 24 10       	movaps %xmm7,0x10(%rsp)
    e802:	e9 7e fd ff ff       	jmpq   e585 <__multc3@GCC_4.0.0+0x3e5>
    e807:	66 0f 1f 84 00 00 00 	nopw   0x0(%rax,%rax,1)
    e80e:	00 00 
    e810:	31 db                	xor    %ebx,%ebx
    e812:	e9 e1 fb ff ff       	jmpq   e3f8 <__multc3@GCC_4.0.0+0x258>
    e817:	66 0f 1f 84 00 00 00 	nopw   0x0(%rax,%rax,1)
    e81e:	00 00 
    e820:	66 0f 6f 05 38 6e 00 	movdqa 0x6e38(%rip),%xmm0        # 15660 <__emutls_register_common@@GCC_4.3.0+0x1650>
    e827:	00 
    e828:	66 0f 6f 0d 60 6e 00 	movdqa 0x6e60(%rip),%xmm1        # 15690 <__emutls_register_common@@GCC_4.3.0+0x1680>
    e82f:	00 
    e830:	66 0f db 84 24 90 00 	pand   0x90(%rsp),%xmm0
    e837:	00 00 
    e839:	0f 29 44 24 60       	movaps %xmm0,0x60(%rsp)
    e83e:	e8 3d 4d ff ff       	callq  3580 <__unordtf2@plt>
    e843:	48 85 c0             	test   %rax,%rax
    e846:	0f 85 cf fd ff ff    	jne    e61b <__multc3@GCC_4.0.0+0x47b>
    e84c:	66 0f 6f 0d 3c 6e 00 	movdqa 0x6e3c(%rip),%xmm1        # 15690 <__emutls_register_common@@GCC_4.3.0+0x1680>
    e853:	00 
    e854:	66 0f 6f 44 24 60    	movdqa 0x60(%rsp),%xmm0
    e85a:	e8 d1 4b ff ff       	callq  3430 <__letf2@plt>
    e85f:	48 85 c0             	test   %rax,%rax
    e862:	0f 8f 28 ff ff ff    	jg     e790 <__multc3@GCC_4.0.0+0x5f0>
    e868:	e9 ae fd ff ff       	jmpq   e61b <__multc3@GCC_4.0.0+0x47b>
    e86d:	0f 1f 00             	nopl   (%rax)
    e870:	66 0f 6f 7c 24 20    	movdqa 0x20(%rsp),%xmm7
    e876:	66 0f db bc 24 a0 00 	pand   0xa0(%rsp),%xmm7
    e87d:	00 00 
    e87f:	0f 29 7c 24 20       	movaps %xmm7,0x20(%rsp)
    e884:	e9 e5 fc ff ff       	jmpq   e56e <__multc3@GCC_4.0.0+0x3ce>
    e889:	0f 1f 80 00 00 00 00 	nopl   0x0(%rax)
    e890:	66 0f 6f 34 24       	movdqa (%rsp),%xmm6
    e895:	66 0f db b4 24 a0 00 	pand   0xa0(%rsp),%xmm6
    e89c:	00 00 
    e89e:	0f 29 34 24          	movaps %xmm6,(%rsp)
    e8a2:	e9 de fc ff ff       	jmpq   e585 <__multc3@GCC_4.0.0+0x3e5>
    e8a7:	66 0f 1f 84 00 00 00 	nopw   0x0(%rax,%rax,1)
    e8ae:	00 00 
    e8b0:	66 0f 6f 74 24 30    	movdqa 0x30(%rsp),%xmm6
    e8b6:	66 0f db b4 24 a0 00 	pand   0xa0(%rsp),%xmm6
    e8bd:	00 00 
    e8bf:	0f 29 74 24 30       	movaps %xmm6,0x30(%rsp)
    e8c4:	e9 17 fb ff ff       	jmpq   e3e0 <__multc3@GCC_4.0.0+0x240>
    e8c9:	0f 1f 80 00 00 00 00 	nopl   0x0(%rax)
    e8d0:	66 0f 6f 64 24 10    	movdqa 0x10(%rsp),%xmm4
    e8d6:	66 0f db a4 24 a0 00 	pand   0xa0(%rsp),%xmm4
    e8dd:	00 00 
    e8df:	0f 29 64 24 10       	movaps %xmm4,0x10(%rsp)
    e8e4:	e9 0f fb ff ff       	jmpq   e3f8 <__multc3@GCC_4.0.0+0x258>
    e8e9:	0f 1f 80 00 00 00 00 	nopl   0x0(%rax)
    e8f0:	66 0f 6f 74 24 30    	movdqa 0x30(%rsp),%xmm6
    e8f6:	66 0f db 35 72 6d 00 	pand   0x6d72(%rip),%xmm6        # 15670 <__emutls_register_common@@GCC_4.3.0+0x1660>
    e8fd:	00 
    e8fe:	0f 29 74 24 30       	movaps %xmm6,0x30(%rsp)
    e903:	e9 cf fe ff ff       	jmpq   e7d7 <__multc3@GCC_4.0.0+0x637>
    e908:	0f 1f 84 00 00 00 00 	nopl   0x0(%rax,%rax,1)
    e90f:	00 
    e910:	66 0f 6f 1c 24       	movdqa (%rsp),%xmm3
    e915:	66 0f db 1d 53 6d 00 	pand   0x6d53(%rip),%xmm3        # 15670 <__emutls_register_common@@GCC_4.3.0+0x1660>
    e91c:	00 
    e91d:	0f 29 1c 24          	movaps %xmm3,(%rsp)
    e921:	e9 99 fe ff ff       	jmpq   e7bf <__multc3@GCC_4.0.0+0x61f>
    e926:	66 2e 0f 1f 84 00 00 	nopw   %cs:0x0(%rax,%rax,1)
    e92d:	00 00 00 
    e930:	66 0f 6f 7c 24 20    	movdqa 0x20(%rsp),%xmm7
    e936:	66 0f db 3d 32 6d 00 	pand   0x6d32(%rip),%xmm7        # 15670 <__emutls_register_common@@GCC_4.3.0+0x1660>
    e93d:	00 
    e93e:	0f 29 7c 24 20       	movaps %xmm7,0x20(%rsp)
    e943:	e9 60 fe ff ff       	jmpq   e7a8 <__multc3@GCC_4.0.0+0x608>
    e948:	0f 1f 84 00 00 00 00 	nopl   0x0(%rax,%rax,1)
    e94f:	00 

000000000000e950 <__powitf2@@GCC_4.3.0>:
    e950:	f3 0f 1e fa          	endbr64 
    e954:	89 f8                	mov    %edi,%eax
    e956:	55                   	push   %rbp
    e957:	66 0f 6f c8          	movdqa %xmm0,%xmm1
    e95b:	89 fd                	mov    %edi,%ebp
    e95d:	53                   	push   %rbx
    e95e:	c1 f8 1f             	sar    $0x1f,%eax
    e961:	89 c3                	mov    %eax,%ebx
    e963:	31 fb                	xor    %edi,%ebx
    e965:	48 83 ec 28          	sub    $0x28,%rsp
    e969:	29 c3                	sub    %eax,%ebx
    e96b:	0f 29 04 24          	movaps %xmm0,(%rsp)
    e96f:	f6 c3 01             	test   $0x1,%bl
    e972:	75 0c                	jne    e980 <__powitf2@@GCC_4.3.0+0x30>
    e974:	66 0f 6f 15 24 6d 00 	movdqa 0x6d24(%rip),%xmm2        # 156a0 <__emutls_register_common@@GCC_4.3.0+0x1690>
    e97b:	00 
    e97c:	0f 29 14 24          	movaps %xmm2,(%rsp)
    e980:	d1 eb                	shr    %ebx
    e982:	74 2f                	je     e9b3 <__powitf2@@GCC_4.3.0+0x63>
    e984:	66 0f 6f c1          	movdqa %xmm1,%xmm0
    e988:	e8 03 4a ff ff       	callq  3390 <__multf3@plt>
    e98d:	66 0f 6f c8          	movdqa %xmm0,%xmm1
    e991:	f6 c3 01             	test   $0x1,%bl
    e994:	74 ea                	je     e980 <__powitf2@@GCC_4.3.0+0x30>
    e996:	0f 29 44 24 10       	movaps %xmm0,0x10(%rsp)
    e99b:	66 0f 6f 04 24       	movdqa (%rsp),%xmm0
    e9a0:	e8 eb 49 ff ff       	callq  3390 <__multf3@plt>
    e9a5:	d1 eb                	shr    %ebx
    e9a7:	66 0f 6f 4c 24 10    	movdqa 0x10(%rsp),%xmm1
    e9ad:	0f 29 04 24          	movaps %xmm0,(%rsp)
    e9b1:	75 d1                	jne    e984 <__powitf2@@GCC_4.3.0+0x34>
    e9b3:	85 ed                	test   %ebp,%ebp
    e9b5:	79 16                	jns    e9cd <__powitf2@@GCC_4.3.0+0x7d>
    e9b7:	66 0f 6f 0c 24       	movdqa (%rsp),%xmm1
    e9bc:	66 0f 6f 05 dc 6c 00 	movdqa 0x6cdc(%rip),%xmm0        # 156a0 <__emutls_register_common@@GCC_4.3.0+0x1690>
    e9c3:	00 
    e9c4:	e8 e7 4a ff ff       	callq  34b0 <__divtf3@plt>
    e9c9:	0f 29 04 24          	movaps %xmm0,(%rsp)
    e9cd:	66 0f 6f 04 24       	movdqa (%rsp),%xmm0
    e9d2:	48 83 c4 28          	add    $0x28,%rsp
    e9d6:	5b                   	pop    %rbx
    e9d7:	5d                   	pop    %rbp
    e9d8:	c3                   	retq   
    e9d9:	0f 1f 80 00 00 00 00 	nopl   0x0(%rax)

000000000000e9e0 <__enable_execute_stack@@GCC_3.4.2>:
    e9e0:	f3 0f 1e fa          	endbr64 
    e9e4:	c3                   	retq   
    e9e5:	66 2e 0f 1f 84 00 00 	nopw   %cs:0x0(%rax,%rax,1)
    e9ec:	00 00 00 
    e9ef:	90                   	nop
    e9f0:	f3 0f 1e fa          	endbr64 
    e9f4:	c6 05 f5 b7 00 00 08 	movb   $0x8,0xb7f5(%rip)        # 1a1f0 <__cpu_model@GCC_4.8.0+0x20>
    e9fb:	c6 05 ef b7 00 00 08 	movb   $0x8,0xb7ef(%rip)        # 1a1f1 <__cpu_model@GCC_4.8.0+0x21>
    ea02:	c6 05 e9 b7 00 00 08 	movb   $0x8,0xb7e9(%rip)        # 1a1f2 <__cpu_model@GCC_4.8.0+0x22>
    ea09:	c6 05 e3 b7 00 00 08 	movb   $0x8,0xb7e3(%rip)        # 1a1f3 <__cpu_model@GCC_4.8.0+0x23>
    ea10:	c6 05 dd b7 00 00 08 	movb   $0x8,0xb7dd(%rip)        # 1a1f4 <__cpu_model@GCC_4.8.0+0x24>
    ea17:	c6 05 d7 b7 00 00 08 	movb   $0x8,0xb7d7(%rip)        # 1a1f5 <__cpu_model@GCC_4.8.0+0x25>
    ea1e:	c6 05 d1 b7 00 00 08 	movb   $0x8,0xb7d1(%rip)        # 1a1f6 <__cpu_model@GCC_4.8.0+0x26>
    ea25:	c6 05 cb b7 00 00 08 	movb   $0x8,0xb7cb(%rip)        # 1a1f7 <__cpu_model@GCC_4.8.0+0x27>
    ea2c:	c6 05 c5 b7 00 00 08 	movb   $0x8,0xb7c5(%rip)        # 1a1f8 <__cpu_model@GCC_4.8.0+0x28>
    ea33:	c6 05 bf b7 00 00 08 	movb   $0x8,0xb7bf(%rip)        # 1a1f9 <__cpu_model@GCC_4.8.0+0x29>
    ea3a:	c6 05 b9 b7 00 00 08 	movb   $0x8,0xb7b9(%rip)        # 1a1fa <__cpu_model@GCC_4.8.0+0x2a>
    ea41:	c6 05 b3 b7 00 00 08 	movb   $0x8,0xb7b3(%rip)        # 1a1fb <__cpu_model@GCC_4.8.0+0x2b>
    ea48:	c6 05 ad b7 00 00 08 	movb   $0x8,0xb7ad(%rip)        # 1a1fc <__cpu_model@GCC_4.8.0+0x2c>
    ea4f:	c6 05 a7 b7 00 00 08 	movb   $0x8,0xb7a7(%rip)        # 1a1fd <__cpu_model@GCC_4.8.0+0x2d>
    ea56:	c6 05 a1 b7 00 00 08 	movb   $0x8,0xb7a1(%rip)        # 1a1fe <__cpu_model@GCC_4.8.0+0x2e>
    ea5d:	c6 05 9b b7 00 00 08 	movb   $0x8,0xb79b(%rip)        # 1a1ff <__cpu_model@GCC_4.8.0+0x2f>
    ea64:	c6 05 95 b7 00 00 08 	movb   $0x8,0xb795(%rip)        # 1a200 <__cpu_model@GCC_4.8.0+0x30>
    ea6b:	c3                   	retq   
    ea6c:	0f 1f 40 00          	nopl   0x0(%rax)
    ea70:	48 83 ec 18          	sub    $0x18,%rsp
    ea74:	49 89 f9             	mov    %rdi,%r9
    ea77:	49 89 f0             	mov    %rsi,%r8
    ea7a:	f6 86 c7 00 00 00 40 	testb  $0x40,0xc7(%rsi)
    ea81:	74 09                	je     ea8c <__enable_execute_stack@@GCC_3.4.2+0xac>
    ea83:	80 be df 00 00 00 00 	cmpb   $0x0,0xdf(%rsi)
    ea8a:	75 0b                	jne    ea97 <__enable_execute_stack@@GCC_3.4.2+0xb7>
    ea8c:	49 83 78 38 00       	cmpq   $0x0,0x38(%r8)
    ea91:	0f 84 f3 00 00 00    	je     eb8a <__enable_execute_stack@@GCC_3.4.2+0x1aa>
    ea97:	31 c0                	xor    %eax,%eax
    ea99:	4c 8d 15 50 b7 00 00 	lea    0xb750(%rip),%r10        # 1a1f0 <__cpu_model@GCC_4.8.0+0x20>
    eaa0:	eb 27                	jmp    eac9 <__enable_execute_stack@@GCC_3.4.2+0xe9>
    eaa2:	66 0f 1f 44 00 00    	nopw   0x0(%rax,%rax,1)
    eaa8:	48 85 d2             	test   %rdx,%rdx
    eaab:	74 0e                	je     eabb <__enable_execute_stack@@GCC_3.4.2+0xdb>
    eaad:	41 80 3c 02 08       	cmpb   $0x8,(%r10,%rax,1)
    eab2:	0f 85 73 4b ff ff    	jne    362b <_Unwind_GetDataRelBase@plt+0x5b>
    eab8:	48 89 32             	mov    %rsi,(%rdx)
    eabb:	48 83 c0 01          	add    $0x1,%rax
    eabf:	48 83 f8 11          	cmp    $0x11,%rax
    eac3:	0f 84 9f 00 00 00    	je     eb68 <__enable_execute_stack@@GCC_3.4.2+0x188>
    eac9:	41 80 bc 01 d8 00 00 	cmpb   $0x0,0xd8(%r9,%rax,1)
    ead0:	00 00 
    ead2:	49 8b 14 c1          	mov    (%r9,%rax,8),%rdx
    ead6:	49 8b 34 c0          	mov    (%r8,%rax,8),%rsi
    eada:	0f 85 4b 4b ff ff    	jne    362b <_Unwind_GetDataRelBase@plt+0x5b>
    eae0:	41 80 bc 00 d8 00 00 	cmpb   $0x0,0xd8(%r8,%rax,1)
    eae7:	00 00 
    eae9:	75 bd                	jne    eaa8 <__enable_execute_stack@@GCC_3.4.2+0xc8>
    eaeb:	48 85 f6             	test   %rsi,%rsi
    eaee:	40 0f 95 c7          	setne  %dil
    eaf2:	48 85 d2             	test   %rdx,%rdx
    eaf5:	0f 95 c1             	setne  %cl
    eaf8:	40 84 cf             	test   %cl,%dil
    eafb:	74 be                	je     eabb <__enable_execute_stack@@GCC_3.4.2+0xdb>
    eafd:	48 39 f2             	cmp    %rsi,%rdx
    eb00:	74 b9                	je     eabb <__enable_execute_stack@@GCC_3.4.2+0xdb>
    eb02:	41 0f b6 0c 02       	movzbl (%r10,%rax,1),%ecx
    eb07:	83 f9 08             	cmp    $0x8,%ecx
    eb0a:	73 24                	jae    eb30 <__enable_execute_stack@@GCC_3.4.2+0x150>
    eb0c:	f6 c1 04             	test   $0x4,%cl
    eb0f:	0f 85 ae 00 00 00    	jne    ebc3 <__enable_execute_stack@@GCC_3.4.2+0x1e3>
    eb15:	85 c9                	test   %ecx,%ecx
    eb17:	74 a2                	je     eabb <__enable_execute_stack@@GCC_3.4.2+0xdb>
    eb19:	0f b6 3e             	movzbl (%rsi),%edi
    eb1c:	40 88 3a             	mov    %dil,(%rdx)
    eb1f:	f6 c1 02             	test   $0x2,%cl
    eb22:	74 97                	je     eabb <__enable_execute_stack@@GCC_3.4.2+0xdb>
    eb24:	0f b7 74 0e fe       	movzwl -0x2(%rsi,%rcx,1),%esi
    eb29:	66 89 74 0a fe       	mov    %si,-0x2(%rdx,%rcx,1)
    eb2e:	eb 8b                	jmp    eabb <__enable_execute_stack@@GCC_3.4.2+0xdb>
    eb30:	48 8b 3e             	mov    (%rsi),%rdi
    eb33:	48 83 c0 01          	add    $0x1,%rax
    eb37:	48 89 3a             	mov    %rdi,(%rdx)
    eb3a:	48 8b 7c 0e f8       	mov    -0x8(%rsi,%rcx,1),%rdi
    eb3f:	48 89 7c 0a f8       	mov    %rdi,-0x8(%rdx,%rcx,1)
    eb44:	48 8d 7a 08          	lea    0x8(%rdx),%rdi
    eb48:	48 83 e7 f8          	and    $0xfffffffffffffff8,%rdi
    eb4c:	48 29 fa             	sub    %rdi,%rdx
    eb4f:	01 d1                	add    %edx,%ecx
    eb51:	48 29 d6             	sub    %rdx,%rsi
    eb54:	c1 e9 03             	shr    $0x3,%ecx
    eb57:	f3 48 a5             	rep movsq %ds:(%rsi),%es:(%rdi)
    eb5a:	48 83 f8 11          	cmp    $0x11,%rax
    eb5e:	0f 85 65 ff ff ff    	jne    eac9 <__enable_execute_stack@@GCC_3.4.2+0xe9>
    eb64:	0f 1f 40 00          	nopl   0x0(%rax)
    eb68:	31 c0                	xor    %eax,%eax
    eb6a:	41 f6 81 c7 00 00 00 	testb  $0x40,0xc7(%r9)
    eb71:	40 
    eb72:	74 0a                	je     eb7e <__enable_execute_stack@@GCC_3.4.2+0x19e>
    eb74:	41 80 b9 df 00 00 00 	cmpb   $0x0,0xdf(%r9)
    eb7b:	00 
    eb7c:	75 07                	jne    eb85 <__enable_execute_stack@@GCC_3.4.2+0x1a5>
    eb7e:	49 83 79 38 00       	cmpq   $0x0,0x38(%r9)
    eb83:	74 4f                	je     ebd4 <__enable_execute_stack@@GCC_3.4.2+0x1f4>
    eb85:	48 83 c4 18          	add    $0x18,%rsp
    eb89:	c3                   	retq   
    eb8a:	80 3d 66 b6 00 00 08 	cmpb   $0x8,0xb666(%rip)        # 1a1f7 <__cpu_model@GCC_4.8.0+0x27>
    eb91:	49 8b 80 90 00 00 00 	mov    0x90(%r8),%rax
    eb98:	0f 85 8d 4a ff ff    	jne    362b <_Unwind_GetDataRelBase@plt+0x5b>
    eb9e:	48 89 44 24 08       	mov    %rax,0x8(%rsp)
    eba3:	41 f6 80 c7 00 00 00 	testb  $0x40,0xc7(%r8)
    ebaa:	40 
    ebab:	74 08                	je     ebb5 <__enable_execute_stack@@GCC_3.4.2+0x1d5>
    ebad:	41 c6 80 df 00 00 00 	movb   $0x0,0xdf(%r8)
    ebb4:	00 
    ebb5:	48 8d 44 24 08       	lea    0x8(%rsp),%rax
    ebba:	49 89 40 38          	mov    %rax,0x38(%r8)
    ebbe:	e9 d4 fe ff ff       	jmpq   ea97 <__enable_execute_stack@@GCC_3.4.2+0xb7>
    ebc3:	8b 3e                	mov    (%rsi),%edi
    ebc5:	89 3a                	mov    %edi,(%rdx)
    ebc7:	8b 74 0e fc          	mov    -0x4(%rsi,%rcx,1),%esi
    ebcb:	89 74 0a fc          	mov    %esi,-0x4(%rdx,%rcx,1)
    ebcf:	e9 e7 fe ff ff       	jmpq   eabb <__enable_execute_stack@@GCC_3.4.2+0xdb>
    ebd4:	49 8b 40 38          	mov    0x38(%r8),%rax
    ebd8:	41 f6 80 c7 00 00 00 	testb  $0x40,0xc7(%r8)
    ebdf:	40 
    ebe0:	74 0a                	je     ebec <__enable_execute_stack@@GCC_3.4.2+0x20c>
    ebe2:	41 80 b8 df 00 00 00 	cmpb   $0x0,0xdf(%r8)
    ebe9:	00 
    ebea:	75 10                	jne    ebfc <__enable_execute_stack@@GCC_3.4.2+0x21c>
    ebec:	80 3d 04 b6 00 00 08 	cmpb   $0x8,0xb604(%rip)        # 1a1f7 <__cpu_model@GCC_4.8.0+0x27>
    ebf3:	0f 85 32 4a ff ff    	jne    362b <_Unwind_GetDataRelBase@plt+0x5b>
    ebf9:	48 8b 00             	mov    (%rax),%rax
    ebfc:	49 2b 81 90 00 00 00 	sub    0x90(%r9),%rax
    ec03:	49 03 80 d0 00 00 00 	add    0xd0(%r8),%rax
    ec0a:	e9 76 ff ff ff       	jmpq   eb85 <__enable_execute_stack@@GCC_3.4.2+0x1a5>
    ec0f:	90                   	nop

000000000000ec10 <_Unwind_GetGR@@GCC_3.0>:
    ec10:	f3 0f 1e fa          	endbr64 
    ec14:	48 83 ec 08          	sub    $0x8,%rsp
    ec18:	83 fe 11             	cmp    $0x11,%esi
    ec1b:	0f 8f 0f 4a ff ff    	jg     3630 <_Unwind_GetDataRelBase@plt+0x60>
    ec21:	48 63 f6             	movslq %esi,%rsi
    ec24:	48 8b 04 f7          	mov    (%rdi,%rsi,8),%rax
    ec28:	f6 87 c7 00 00 00 40 	testb  $0x40,0xc7(%rdi)
    ec2f:	74 0a                	je     ec3b <_Unwind_GetGR@@GCC_3.0+0x2b>
    ec31:	80 bc 37 d8 00 00 00 	cmpb   $0x0,0xd8(%rdi,%rsi,1)
    ec38:	00 
    ec39:	75 14                	jne    ec4f <_Unwind_GetGR@@GCC_3.0+0x3f>
    ec3b:	48 8d 15 ae b5 00 00 	lea    0xb5ae(%rip),%rdx        # 1a1f0 <__cpu_model@GCC_4.8.0+0x20>
    ec42:	80 3c 32 08          	cmpb   $0x8,(%rdx,%rsi,1)
    ec46:	0f 85 e4 49 ff ff    	jne    3630 <_Unwind_GetDataRelBase@plt+0x60>
    ec4c:	48 8b 00             	mov    (%rax),%rax
    ec4f:	48 83 c4 08          	add    $0x8,%rsp
    ec53:	c3                   	retq   
    ec54:	66 66 2e 0f 1f 84 00 	data16 nopw %cs:0x0(%rax,%rax,1)
    ec5b:	00 00 00 00 
    ec5f:	90                   	nop

000000000000ec60 <_Unwind_GetCFA@@GCC_3.3>:
    ec60:	f3 0f 1e fa          	endbr64 
    ec64:	48 8b 87 90 00 00 00 	mov    0x90(%rdi),%rax
    ec6b:	c3                   	retq   
    ec6c:	0f 1f 40 00          	nopl   0x0(%rax)

000000000000ec70 <_Unwind_SetGR@@GCC_3.0>:
    ec70:	f3 0f 1e fa          	endbr64 
    ec74:	48 83 ec 08          	sub    $0x8,%rsp
    ec78:	83 fe 11             	cmp    $0x11,%esi
    ec7b:	0f 8f b4 49 ff ff    	jg     3635 <_Unwind_GetDataRelBase@plt+0x65>
    ec81:	48 63 f6             	movslq %esi,%rsi
    ec84:	48 8d 05 65 b5 00 00 	lea    0xb565(%rip),%rax        # 1a1f0 <__cpu_model@GCC_4.8.0+0x20>
    ec8b:	0f b6 04 30          	movzbl (%rax,%rsi,1),%eax
    ec8f:	f6 87 c7 00 00 00 40 	testb  $0x40,0xc7(%rdi)
    ec96:	74 0a                	je     eca2 <_Unwind_SetGR@@GCC_3.0+0x32>
    ec98:	80 bc 37 d8 00 00 00 	cmpb   $0x0,0xd8(%rdi,%rsi,1)
    ec9f:	00 
    eca0:	75 1e                	jne    ecc0 <_Unwind_SetGR@@GCC_3.0+0x50>
    eca2:	48 8b 0c f7          	mov    (%rdi,%rsi,8),%rcx
    eca6:	3c 08                	cmp    $0x8,%al
    eca8:	0f 85 87 49 ff ff    	jne    3635 <_Unwind_GetDataRelBase@plt+0x65>
    ecae:	48 89 11             	mov    %rdx,(%rcx)
    ecb1:	48 83 c4 08          	add    $0x8,%rsp
    ecb5:	c3                   	retq   
    ecb6:	66 2e 0f 1f 84 00 00 	nopw   %cs:0x0(%rax,%rax,1)
    ecbd:	00 00 00 
    ecc0:	48 89 14 f7          	mov    %rdx,(%rdi,%rsi,8)
    ecc4:	48 83 c4 08          	add    $0x8,%rsp
    ecc8:	c3                   	retq   
    ecc9:	0f 1f 80 00 00 00 00 	nopl   0x0(%rax)

000000000000ecd0 <_Unwind_GetIP@@GCC_3.0>:
    ecd0:	f3 0f 1e fa          	endbr64 
    ecd4:	48 8b 87 98 00 00 00 	mov    0x98(%rdi),%rax
    ecdb:	c3                   	retq   
    ecdc:	0f 1f 40 00          	nopl   0x0(%rax)

000000000000ece0 <_Unwind_GetIPInfo@@GCC_4.2.0>:
    ece0:	f3 0f 1e fa          	endbr64 
    ece4:	48 8b 87 c0 00 00 00 	mov    0xc0(%rdi),%rax
    eceb:	48 c1 f8 3f          	sar    $0x3f,%rax
    ecef:	83 e0 01             	and    $0x1,%eax
    ecf2:	89 06                	mov    %eax,(%rsi)
    ecf4:	48 8b 87 98 00 00 00 	mov    0x98(%rdi),%rax
    ecfb:	c3                   	retq   
    ecfc:	0f 1f 40 00          	nopl   0x0(%rax)

000000000000ed00 <_Unwind_SetIP@@GCC_3.0>:
    ed00:	f3 0f 1e fa          	endbr64 
    ed04:	48 89 b7 98 00 00 00 	mov    %rsi,0x98(%rdi)
    ed0b:	c3                   	retq   
    ed0c:	0f 1f 40 00          	nopl   0x0(%rax)

000000000000ed10 <_Unwind_GetLanguageSpecificData@@GCC_3.0>:
    ed10:	f3 0f 1e fa          	endbr64 
    ed14:	48 8b 87 a0 00 00 00 	mov    0xa0(%rdi),%rax
    ed1b:	c3                   	retq   
    ed1c:	0f 1f 40 00          	nopl   0x0(%rax)

000000000000ed20 <_Unwind_GetRegionStart@@GCC_3.0>:
    ed20:	f3 0f 1e fa          	endbr64 
    ed24:	48 8b 87 b8 00 00 00 	mov    0xb8(%rdi),%rax
    ed2b:	c3                   	retq   
    ed2c:	0f 1f 40 00          	nopl   0x0(%rax)

000000000000ed30 <_Unwind_FindEnclosingFunction@@GCC_3.3>:
    ed30:	f3 0f 1e fa          	endbr64 
    ed34:	48 83 ec 28          	sub    $0x28,%rsp
    ed38:	48 83 ef 01          	sub    $0x1,%rdi
    ed3c:	48 89 e6             	mov    %rsp,%rsi
    ed3f:	e8 cc 47 ff ff       	callq  3510 <_Unwind_Find_FDE@plt>
    ed44:	48 85 c0             	test   %rax,%rax
    ed47:	48 0f 45 44 24 10    	cmovne 0x10(%rsp),%rax
    ed4d:	48 83 c4 28          	add    $0x28,%rsp
    ed51:	c3                   	retq   
    ed52:	66 66 2e 0f 1f 84 00 	data16 nopw %cs:0x0(%rax,%rax,1)
    ed59:	00 00 00 00 
    ed5d:	0f 1f 00             	nopl   (%rax)

000000000000ed60 <_Unwind_GetDataRelBase@@GCC_3.0>:
    ed60:	f3 0f 1e fa          	endbr64 
    ed64:	48 8b 87 b0 00 00 00 	mov    0xb0(%rdi),%rax
    ed6b:	c3                   	retq   
    ed6c:	0f 1f 40 00          	nopl   0x0(%rax)

000000000000ed70 <_Unwind_GetTextRelBase@@GCC_3.0>:
    ed70:	f3 0f 1e fa          	endbr64 
    ed74:	48 8b 87 a8 00 00 00 	mov    0xa8(%rdi),%rax
    ed7b:	c3                   	retq   
    ed7c:	0f 1f 40 00          	nopl   0x0(%rax)
    ed80:	41 55                	push   %r13
    ed82:	41 54                	push   %r12
    ed84:	55                   	push   %rbp
    ed85:	53                   	push   %rbx
    ed86:	48 83 ec 08          	sub    $0x8,%rsp
    ed8a:	40 80 fe ff          	cmp    $0xff,%sil
    ed8e:	0f 84 a6 48 ff ff    	je     363a <_Unwind_GetDataRelBase@plt+0x6a>
    ed94:	41 89 f4             	mov    %esi,%r12d
    ed97:	89 f3                	mov    %esi,%ebx
    ed99:	48 89 d5             	mov    %rdx,%rbp
    ed9c:	49 89 cd             	mov    %rcx,%r13
    ed9f:	41 83 e4 70          	and    $0x70,%r12d
    eda3:	41 80 fc 30          	cmp    $0x30,%r12b
    eda7:	0f 84 9b 01 00 00    	je     ef48 <_Unwind_GetTextRelBase@@GCC_3.0+0x1d8>
    edad:	77 39                	ja     ede8 <_Unwind_GetTextRelBase@@GCC_3.0+0x78>
    edaf:	41 80 fc 20          	cmp    $0x20,%r12b
    edb3:	75 6b                	jne    ee20 <_Unwind_GetTextRelBase@@GCC_3.0+0xb0>
    edb5:	e8 16 46 ff ff       	callq  33d0 <_Unwind_GetTextRelBase@plt>
    edba:	48 89 c6             	mov    %rax,%rsi
    edbd:	80 fb 50             	cmp    $0x50,%bl
    edc0:	74 39                	je     edfb <_Unwind_GetTextRelBase@@GCC_3.0+0x8b>
    edc2:	89 d8                	mov    %ebx,%eax
    edc4:	83 e0 0f             	and    $0xf,%eax
    edc7:	3c 0c                	cmp    $0xc,%al
    edc9:	0f 87 6b 48 ff ff    	ja     363a <_Unwind_GetDataRelBase@plt+0x6a>
    edcf:	48 8d 15 da 68 00 00 	lea    0x68da(%rip),%rdx        # 156b0 <__emutls_register_common@@GCC_4.3.0+0x16a0>
    edd6:	0f b6 c0             	movzbl %al,%eax
    edd9:	48 63 04 82          	movslq (%rdx,%rax,4),%rax
    eddd:	48 01 d0             	add    %rdx,%rax
    ede0:	3e ff e0             	notrack jmpq *%rax
    ede3:	0f 1f 44 00 00       	nopl   0x0(%rax,%rax,1)
    ede8:	41 80 fc 40          	cmp    $0x40,%r12b
    edec:	75 52                	jne    ee40 <_Unwind_GetTextRelBase@@GCC_3.0+0xd0>
    edee:	e8 1d 45 ff ff       	callq  3310 <_Unwind_GetRegionStart@plt>
    edf3:	48 89 c6             	mov    %rax,%rsi
    edf6:	80 fb 50             	cmp    $0x50,%bl
    edf9:	75 c7                	jne    edc2 <_Unwind_GetTextRelBase@@GCC_3.0+0x52>
    edfb:	48 8d 45 07          	lea    0x7(%rbp),%rax
    edff:	48 83 e0 f8          	and    $0xfffffffffffffff8,%rax
    ee03:	48 8b 10             	mov    (%rax),%rdx
    ee06:	48 8d 40 08          	lea    0x8(%rax),%rax
    ee0a:	49 89 55 00          	mov    %rdx,0x0(%r13)
    ee0e:	48 83 c4 08          	add    $0x8,%rsp
    ee12:	5b                   	pop    %rbx
    ee13:	5d                   	pop    %rbp
    ee14:	41 5c                	pop    %r12
    ee16:	41 5d                	pop    %r13
    ee18:	c3                   	retq   
    ee19:	0f 1f 80 00 00 00 00 	nopl   0x0(%rax)
    ee20:	0f 87 14 48 ff ff    	ja     363a <_Unwind_GetDataRelBase@plt+0x6a>
    ee26:	40 f6 c6 60          	test   $0x60,%sil
    ee2a:	0f 85 0a 48 ff ff    	jne    363a <_Unwind_GetDataRelBase@plt+0x6a>
    ee30:	31 f6                	xor    %esi,%esi
    ee32:	80 fb 50             	cmp    $0x50,%bl
    ee35:	75 8b                	jne    edc2 <_Unwind_GetTextRelBase@@GCC_3.0+0x52>
    ee37:	eb c2                	jmp    edfb <_Unwind_GetTextRelBase@@GCC_3.0+0x8b>
    ee39:	0f 1f 80 00 00 00 00 	nopl   0x0(%rax)
    ee40:	41 80 fc 50          	cmp    $0x50,%r12b
    ee44:	74 ea                	je     ee30 <_Unwind_GetTextRelBase@@GCC_3.0+0xc0>
    ee46:	e9 ef 47 ff ff       	jmpq   363a <_Unwind_GetDataRelBase@plt+0x6a>
    ee4b:	0f 1f 44 00 00       	nopl   0x0(%rax,%rax,1)
    ee50:	48 8b 55 00          	mov    0x0(%rbp),%rdx
    ee54:	48 8d 45 08          	lea    0x8(%rbp),%rax
    ee58:	48 85 d2             	test   %rdx,%rdx
    ee5b:	74 ad                	je     ee0a <_Unwind_GetTextRelBase@@GCC_3.0+0x9a>
    ee5d:	41 80 fc 10          	cmp    $0x10,%r12b
    ee61:	48 0f 44 f5          	cmove  %rbp,%rsi
    ee65:	48 01 f2             	add    %rsi,%rdx
    ee68:	84 db                	test   %bl,%bl
    ee6a:	79 9e                	jns    ee0a <_Unwind_GetTextRelBase@@GCC_3.0+0x9a>
    ee6c:	48 8b 12             	mov    (%rdx),%rdx
    ee6f:	49 89 55 00          	mov    %rdx,0x0(%r13)
    ee73:	48 83 c4 08          	add    $0x8,%rsp
    ee77:	5b                   	pop    %rbx
    ee78:	5d                   	pop    %rbp
    ee79:	41 5c                	pop    %r12
    ee7b:	41 5d                	pop    %r13
    ee7d:	c3                   	retq   
    ee7e:	66 90                	xchg   %ax,%ax
    ee80:	0f b7 55 00          	movzwl 0x0(%rbp),%edx
    ee84:	48 8d 45 02          	lea    0x2(%rbp),%rax
    ee88:	eb ce                	jmp    ee58 <_Unwind_GetTextRelBase@@GCC_3.0+0xe8>
    ee8a:	66 0f 1f 44 00 00    	nopw   0x0(%rax,%rax,1)
    ee90:	48 63 55 00          	movslq 0x0(%rbp),%rdx
    ee94:	48 8d 45 04          	lea    0x4(%rbp),%rax
    ee98:	eb be                	jmp    ee58 <_Unwind_GetTextRelBase@@GCC_3.0+0xe8>
    ee9a:	66 0f 1f 44 00 00    	nopw   0x0(%rax,%rax,1)
    eea0:	48 0f bf 55 00       	movswq 0x0(%rbp),%rdx
    eea5:	48 8d 45 02          	lea    0x2(%rbp),%rax
    eea9:	eb ad                	jmp    ee58 <_Unwind_GetTextRelBase@@GCC_3.0+0xe8>
    eeab:	0f 1f 44 00 00       	nopl   0x0(%rax,%rax,1)
    eeb0:	8b 55 00             	mov    0x0(%rbp),%edx
    eeb3:	48 8d 45 04          	lea    0x4(%rbp),%rax
    eeb7:	eb 9f                	jmp    ee58 <_Unwind_GetTextRelBase@@GCC_3.0+0xe8>
    eeb9:	0f 1f 80 00 00 00 00 	nopl   0x0(%rax)
    eec0:	48 89 e8             	mov    %rbp,%rax
    eec3:	31 d2                	xor    %edx,%edx
    eec5:	31 c9                	xor    %ecx,%ecx
    eec7:	66 0f 1f 84 00 00 00 	nopw   0x0(%rax,%rax,1)
    eece:	00 00 
    eed0:	44 0f b6 00          	movzbl (%rax),%r8d
    eed4:	48 83 c0 01          	add    $0x1,%rax
    eed8:	4c 89 c7             	mov    %r8,%rdi
    eedb:	83 e7 7f             	and    $0x7f,%edi
    eede:	48 d3 e7             	shl    %cl,%rdi
    eee1:	83 c1 07             	add    $0x7,%ecx
    eee4:	48 09 fa             	or     %rdi,%rdx
    eee7:	45 84 c0             	test   %r8b,%r8b
    eeea:	78 e4                	js     eed0 <_Unwind_GetTextRelBase@@GCC_3.0+0x160>
    eeec:	83 f9 3f             	cmp    $0x3f,%ecx
    eeef:	0f 87 63 ff ff ff    	ja     ee58 <_Unwind_GetTextRelBase@@GCC_3.0+0xe8>
    eef5:	41 83 e0 40          	and    $0x40,%r8d
    eef9:	0f 84 59 ff ff ff    	je     ee58 <_Unwind_GetTextRelBase@@GCC_3.0+0xe8>
    eeff:	48 c7 c7 ff ff ff ff 	mov    $0xffffffffffffffff,%rdi
    ef06:	48 d3 e7             	shl    %cl,%rdi
    ef09:	48 09 fa             	or     %rdi,%rdx
    ef0c:	e9 4c ff ff ff       	jmpq   ee5d <_Unwind_GetTextRelBase@@GCC_3.0+0xed>
    ef11:	0f 1f 80 00 00 00 00 	nopl   0x0(%rax)
    ef18:	48 89 e8             	mov    %rbp,%rax
    ef1b:	31 d2                	xor    %edx,%edx
    ef1d:	31 c9                	xor    %ecx,%ecx
    ef1f:	90                   	nop
    ef20:	44 0f b6 00          	movzbl (%rax),%r8d
    ef24:	48 83 c0 01          	add    $0x1,%rax
    ef28:	4c 89 c7             	mov    %r8,%rdi
    ef2b:	83 e7 7f             	and    $0x7f,%edi
    ef2e:	48 d3 e7             	shl    %cl,%rdi
    ef31:	83 c1 07             	add    $0x7,%ecx
    ef34:	48 09 fa             	or     %rdi,%rdx
    ef37:	45 84 c0             	test   %r8b,%r8b
    ef3a:	78 e4                	js     ef20 <_Unwind_GetTextRelBase@@GCC_3.0+0x1b0>
    ef3c:	e9 17 ff ff ff       	jmpq   ee58 <_Unwind_GetTextRelBase@@GCC_3.0+0xe8>
    ef41:	0f 1f 80 00 00 00 00 	nopl   0x0(%rax)
    ef48:	e8 83 46 ff ff       	callq  35d0 <_Unwind_GetDataRelBase@plt>
    ef4d:	48 89 c6             	mov    %rax,%rsi
    ef50:	e9 dd fe ff ff       	jmpq   ee32 <_Unwind_GetTextRelBase@@GCC_3.0+0xc2>
    ef55:	66 66 2e 0f 1f 84 00 	data16 nopw %cs:0x0(%rax,%rax,1)
    ef5c:	00 00 00 00 
    ef60:	48 c7 81 20 01 00 00 	movq   $0x0,0x120(%rcx)
    ef67:	00 00 00 00 
    ef6b:	48 39 f7             	cmp    %rsi,%rdi
    ef6e:	0f 83 30 08 00 00    	jae    f7a4 <_Unwind_GetTextRelBase@@GCC_3.0+0xa34>
    ef74:	55                   	push   %rbp
    ef75:	48 89 e5             	mov    %rsp,%rbp
    ef78:	41 57                	push   %r15
    ef7a:	45 31 ff             	xor    %r15d,%r15d
    ef7d:	41 56                	push   %r14
    ef7f:	4c 8d 35 5e 67 00 00 	lea    0x675e(%rip),%r14        # 156e4 <__emutls_register_common@@GCC_4.3.0+0x16d4>
    ef86:	41 55                	push   %r13
    ef88:	49 89 f5             	mov    %rsi,%r13
    ef8b:	41 54                	push   %r12
    ef8d:	49 89 d4             	mov    %rdx,%r12
    ef90:	53                   	push   %rbx
    ef91:	48 89 cb             	mov    %rcx,%rbx
    ef94:	48 83 ec 18          	sub    $0x18,%rsp
    ef98:	0f 1f 84 00 00 00 00 	nopl   0x0(%rax,%rax,1)
    ef9f:	00 
    efa0:	49 8b 94 24 c0 00 00 	mov    0xc0(%r12),%rdx
    efa7:	00 
    efa8:	48 8b 8b 48 01 00 00 	mov    0x148(%rbx),%rcx
    efaf:	48 c1 ea 3f          	shr    $0x3f,%rdx
    efb3:	49 03 94 24 98 00 00 	add    0x98(%r12),%rdx
    efba:	00 
    efbb:	48 39 d1             	cmp    %rdx,%rcx
    efbe:	73 4d                	jae    f00d <_Unwind_GetTextRelBase@@GCC_3.0+0x29d>
    efc0:	0f b6 07             	movzbl (%rdi),%eax
    efc3:	48 8d 57 01          	lea    0x1(%rdi),%rdx
    efc7:	89 c6                	mov    %eax,%esi
    efc9:	83 e6 c0             	and    $0xffffffc0,%esi
    efcc:	40 80 fe 40          	cmp    $0x40,%sil
    efd0:	74 1e                	je     eff0 <_Unwind_GetTextRelBase@@GCC_3.0+0x280>
    efd2:	40 80 fe 80          	cmp    $0x80,%sil
    efd6:	74 68                	je     f040 <_Unwind_GetTextRelBase@@GCC_3.0+0x2d0>
    efd8:	40 80 fe c0          	cmp    $0xc0,%sil
    efdc:	74 42                	je     f020 <_Unwind_GetTextRelBase@@GCC_3.0+0x2b0>
    efde:	3c 2f                	cmp    $0x2f,%al
    efe0:	0f 87 59 46 ff ff    	ja     363f <_Unwind_GetDataRelBase@plt+0x6f>
    efe6:	49 63 04 86          	movslq (%r14,%rax,4),%rax
    efea:	4c 01 f0             	add    %r14,%rax
    efed:	3e ff e0             	notrack jmpq *%rax
    eff0:	83 e0 3f             	and    $0x3f,%eax
    eff3:	48 0f af 83 60 01 00 	imul   0x160(%rbx),%rax
    effa:	00 
    effb:	48 89 d7             	mov    %rdx,%rdi
    effe:	48 01 c8             	add    %rcx,%rax
    f001:	48 89 83 48 01 00 00 	mov    %rax,0x148(%rbx)
    f008:	4c 39 ef             	cmp    %r13,%rdi
    f00b:	72 93                	jb     efa0 <_Unwind_GetTextRelBase@@GCC_3.0+0x230>
    f00d:	48 8d 65 d8          	lea    -0x28(%rbp),%rsp
    f011:	5b                   	pop    %rbx
    f012:	41 5c                	pop    %r12
    f014:	41 5d                	pop    %r13
    f016:	41 5e                	pop    %r14
    f018:	41 5f                	pop    %r15
    f01a:	5d                   	pop    %rbp
    f01b:	c3                   	retq   
    f01c:	0f 1f 40 00          	nopl   0x0(%rax)
    f020:	89 c1                	mov    %eax,%ecx
    f022:	83 e0 3f             	and    $0x3f,%eax
    f025:	83 e1 3f             	and    $0x3f,%ecx
    f028:	80 f9 11             	cmp    $0x11,%cl
    f02b:	77 63                	ja     f090 <_Unwind_GetTextRelBase@@GCC_3.0+0x320>
    f02d:	48 c1 e0 04          	shl    $0x4,%rax
    f031:	48 89 d7             	mov    %rdx,%rdi
    f034:	c7 44 03 08 00 00 00 	movl   $0x0,0x8(%rbx,%rax,1)
    f03b:	00 
    f03c:	eb ca                	jmp    f008 <_Unwind_GetTextRelBase@@GCC_3.0+0x298>
    f03e:	66 90                	xchg   %ax,%ax
    f040:	89 c6                	mov    %eax,%esi
    f042:	48 89 d7             	mov    %rdx,%rdi
    f045:	83 e0 3f             	and    $0x3f,%eax
    f048:	45 31 c9             	xor    %r9d,%r9d
    f04b:	83 e6 3f             	and    $0x3f,%esi
    f04e:	31 c9                	xor    %ecx,%ecx
    f050:	44 0f b6 07          	movzbl (%rdi),%r8d
    f054:	48 83 c7 01          	add    $0x1,%rdi
    f058:	4c 89 c2             	mov    %r8,%rdx
    f05b:	83 e2 7f             	and    $0x7f,%edx
    f05e:	48 d3 e2             	shl    %cl,%rdx
    f061:	83 c1 07             	add    $0x7,%ecx
    f064:	49 09 d1             	or     %rdx,%r9
    f067:	45 84 c0             	test   %r8b,%r8b
    f06a:	78 e4                	js     f050 <_Unwind_GetTextRelBase@@GCC_3.0+0x2e0>
    f06c:	4c 0f af 8b 58 01 00 	imul   0x158(%rbx),%r9
    f073:	00 
    f074:	40 80 fe 11          	cmp    $0x11,%sil
    f078:	77 8e                	ja     f008 <_Unwind_GetTextRelBase@@GCC_3.0+0x298>
    f07a:	48 c1 e0 04          	shl    $0x4,%rax
    f07e:	48 01 d8             	add    %rbx,%rax
    f081:	c7 40 08 01 00 00 00 	movl   $0x1,0x8(%rax)
    f088:	4c 89 08             	mov    %r9,(%rax)
    f08b:	e9 78 ff ff ff       	jmpq   f008 <_Unwind_GetTextRelBase@@GCC_3.0+0x298>
    f090:	48 89 d7             	mov    %rdx,%rdi
    f093:	e9 70 ff ff ff       	jmpq   f008 <_Unwind_GetTextRelBase@@GCC_3.0+0x298>
    f098:	48 89 93 38 01 00 00 	mov    %rdx,0x138(%rbx)
    f09f:	31 ff                	xor    %edi,%edi
    f0a1:	31 c9                	xor    %ecx,%ecx
    f0a3:	c7 83 40 01 00 00 02 	movl   $0x2,0x140(%rbx)
    f0aa:	00 00 00 
    f0ad:	0f 1f 00             	nopl   (%rax)
    f0b0:	0f b6 32             	movzbl (%rdx),%esi
    f0b3:	48 83 c2 01          	add    $0x1,%rdx
    f0b7:	48 89 f0             	mov    %rsi,%rax
    f0ba:	83 e0 7f             	and    $0x7f,%eax
    f0bd:	48 d3 e0             	shl    %cl,%rax
    f0c0:	83 c1 07             	add    $0x7,%ecx
    f0c3:	48 09 c7             	or     %rax,%rdi
    f0c6:	40 84 f6             	test   %sil,%sil
    f0c9:	78 e5                	js     f0b0 <_Unwind_GetTextRelBase@@GCC_3.0+0x340>
    f0cb:	48 01 d7             	add    %rdx,%rdi
    f0ce:	e9 35 ff ff ff       	jmpq   f008 <_Unwind_GetTextRelBase@@GCC_3.0+0x298>
    f0d3:	0f b6 b3 70 01 00 00 	movzbl 0x170(%rbx),%esi
    f0da:	4c 89 e7             	mov    %r12,%rdi
    f0dd:	48 8d 4d c8          	lea    -0x38(%rbp),%rcx
    f0e1:	e8 9a fc ff ff       	callq  ed80 <_Unwind_GetTextRelBase@@GCC_3.0+0x10>
    f0e6:	48 89 c7             	mov    %rax,%rdi
    f0e9:	48 8b 45 c8          	mov    -0x38(%rbp),%rax
    f0ed:	48 89 83 48 01 00 00 	mov    %rax,0x148(%rbx)
    f0f4:	e9 0f ff ff ff       	jmpq   f008 <_Unwind_GetTextRelBase@@GCC_3.0+0x298>
    f0f9:	0f b6 47 01          	movzbl 0x1(%rdi),%eax
    f0fd:	48 0f af 83 60 01 00 	imul   0x160(%rbx),%rax
    f104:	00 
    f105:	48 83 c7 02          	add    $0x2,%rdi
    f109:	48 01 c8             	add    %rcx,%rax
    f10c:	48 89 83 48 01 00 00 	mov    %rax,0x148(%rbx)
    f113:	e9 f0 fe ff ff       	jmpq   f008 <_Unwind_GetTextRelBase@@GCC_3.0+0x298>
    f118:	0f b7 47 01          	movzwl 0x1(%rdi),%eax
    f11c:	48 0f af 83 60 01 00 	imul   0x160(%rbx),%rax
    f123:	00 
    f124:	48 83 c7 03          	add    $0x3,%rdi
    f128:	48 01 c8             	add    %rcx,%rax
    f12b:	48 89 83 48 01 00 00 	mov    %rax,0x148(%rbx)
    f132:	e9 d1 fe ff ff       	jmpq   f008 <_Unwind_GetTextRelBase@@GCC_3.0+0x298>
    f137:	8b 47 01             	mov    0x1(%rdi),%eax
    f13a:	48 0f af 83 60 01 00 	imul   0x160(%rbx),%rax
    f141:	00 
    f142:	48 83 c7 05          	add    $0x5,%rdi
    f146:	48 01 c8             	add    %rcx,%rax
    f149:	48 89 83 48 01 00 00 	mov    %rax,0x148(%rbx)
    f150:	e9 b3 fe ff ff       	jmpq   f008 <_Unwind_GetTextRelBase@@GCC_3.0+0x298>
    f155:	4d 85 ff             	test   %r15,%r15
    f158:	0f 84 59 06 00 00    	je     f7b7 <_Unwind_GetTextRelBase@@GCC_3.0+0xa47>
    f15e:	4c 89 f8             	mov    %r15,%rax
    f161:	4d 8b bf 20 01 00 00 	mov    0x120(%r15),%r15
    f168:	b9 29 00 00 00       	mov    $0x29,%ecx
    f16d:	48 89 c7             	mov    %rax,%rdi
    f170:	48 89 de             	mov    %rbx,%rsi
    f173:	f3 48 a5             	rep movsq %ds:(%rsi),%es:(%rdi)
    f176:	48 89 83 20 01 00 00 	mov    %rax,0x120(%rbx)
    f17d:	48 89 d7             	mov    %rdx,%rdi
    f180:	e9 83 fe ff ff       	jmpq   f008 <_Unwind_GetTextRelBase@@GCC_3.0+0x298>
    f185:	48 8b 83 20 01 00 00 	mov    0x120(%rbx),%rax
    f18c:	b9 29 00 00 00       	mov    $0x29,%ecx
    f191:	48 89 df             	mov    %rbx,%rdi
    f194:	48 89 c6             	mov    %rax,%rsi
    f197:	f3 48 a5             	rep movsq %ds:(%rsi),%es:(%rdi)
    f19a:	4c 89 b8 20 01 00 00 	mov    %r15,0x120(%rax)
    f1a1:	48 89 d7             	mov    %rdx,%rdi
    f1a4:	49 89 c7             	mov    %rax,%r15
    f1a7:	e9 5c fe ff ff       	jmpq   f008 <_Unwind_GetTextRelBase@@GCC_3.0+0x298>
    f1ac:	31 ff                	xor    %edi,%edi
    f1ae:	31 c9                	xor    %ecx,%ecx
    f1b0:	0f b6 32             	movzbl (%rdx),%esi
    f1b3:	48 83 c2 01          	add    $0x1,%rdx
    f1b7:	48 89 f0             	mov    %rsi,%rax
    f1ba:	83 e0 7f             	and    $0x7f,%eax
    f1bd:	48 d3 e0             	shl    %cl,%rax
    f1c0:	83 c1 07             	add    $0x7,%ecx
    f1c3:	48 09 c7             	or     %rax,%rdi
    f1c6:	40 84 f6             	test   %sil,%sil
    f1c9:	78 e5                	js     f1b0 <_Unwind_GetTextRelBase@@GCC_3.0+0x440>
    f1cb:	48 83 ff 11          	cmp    $0x11,%rdi
    f1cf:	77 12                	ja     f1e3 <_Unwind_GetTextRelBase@@GCC_3.0+0x473>
    f1d1:	48 c1 e7 04          	shl    $0x4,%rdi
    f1d5:	48 8d 04 3b          	lea    (%rbx,%rdi,1),%rax
    f1d9:	c7 40 08 03 00 00 00 	movl   $0x3,0x8(%rax)
    f1e0:	48 89 10             	mov    %rdx,(%rax)
    f1e3:	31 ff                	xor    %edi,%edi
    f1e5:	31 c9                	xor    %ecx,%ecx
    f1e7:	66 0f 1f 84 00 00 00 	nopw   0x0(%rax,%rax,1)
    f1ee:	00 00 
    f1f0:	0f b6 32             	movzbl (%rdx),%esi
    f1f3:	48 83 c2 01          	add    $0x1,%rdx
    f1f7:	48 89 f0             	mov    %rsi,%rax
    f1fa:	83 e0 7f             	and    $0x7f,%eax
    f1fd:	48 d3 e0             	shl    %cl,%rax
    f200:	83 c1 07             	add    $0x7,%ecx
    f203:	48 09 c7             	or     %rax,%rdi
    f206:	40 84 f6             	test   %sil,%sil
    f209:	78 e5                	js     f1f0 <_Unwind_GetTextRelBase@@GCC_3.0+0x480>
    f20b:	48 01 d7             	add    %rdx,%rdi
    f20e:	e9 f5 fd ff ff       	jmpq   f008 <_Unwind_GetTextRelBase@@GCC_3.0+0x298>
    f213:	48 89 d7             	mov    %rdx,%rdi
    f216:	31 c9                	xor    %ecx,%ecx
    f218:	31 d2                	xor    %edx,%edx
    f21a:	66 0f 1f 44 00 00    	nopw   0x0(%rax,%rax,1)
    f220:	0f b6 37             	movzbl (%rdi),%esi
    f223:	48 83 c7 01          	add    $0x1,%rdi
    f227:	48 89 f0             	mov    %rsi,%rax
    f22a:	83 e0 7f             	and    $0x7f,%eax
    f22d:	48 d3 e0             	shl    %cl,%rax
    f230:	83 c1 07             	add    $0x7,%ecx
    f233:	48 09 c2             	or     %rax,%rdx
    f236:	40 84 f6             	test   %sil,%sil
    f239:	78 e5                	js     f220 <_Unwind_GetTextRelBase@@GCC_3.0+0x4b0>
    f23b:	45 31 c0             	xor    %r8d,%r8d
    f23e:	31 c9                	xor    %ecx,%ecx
    f240:	0f b6 37             	movzbl (%rdi),%esi
    f243:	48 83 c7 01          	add    $0x1,%rdi
    f247:	48 89 f0             	mov    %rsi,%rax
    f24a:	83 e0 7f             	and    $0x7f,%eax
    f24d:	48 d3 e0             	shl    %cl,%rax
    f250:	83 c1 07             	add    $0x7,%ecx
    f253:	49 09 c0             	or     %rax,%r8
    f256:	40 84 f6             	test   %sil,%sil
    f259:	78 e5                	js     f240 <_Unwind_GetTextRelBase@@GCC_3.0+0x4d0>
    f25b:	48 83 fa 11          	cmp    $0x11,%rdx
    f25f:	0f 87 a3 fd ff ff    	ja     f008 <_Unwind_GetTextRelBase@@GCC_3.0+0x298>
    f265:	48 c1 e2 04          	shl    $0x4,%rdx
    f269:	48 8d 04 13          	lea    (%rbx,%rdx,1),%rax
    f26d:	c7 40 08 02 00 00 00 	movl   $0x2,0x8(%rax)
    f274:	4c 89 00             	mov    %r8,(%rax)
    f277:	e9 8c fd ff ff       	jmpq   f008 <_Unwind_GetTextRelBase@@GCC_3.0+0x298>
    f27c:	48 89 d7             	mov    %rdx,%rdi
    f27f:	31 c9                	xor    %ecx,%ecx
    f281:	31 d2                	xor    %edx,%edx
    f283:	0f 1f 44 00 00       	nopl   0x0(%rax,%rax,1)
    f288:	0f b6 37             	movzbl (%rdi),%esi
    f28b:	48 83 c7 01          	add    $0x1,%rdi
    f28f:	48 89 f0             	mov    %rsi,%rax
    f292:	83 e0 7f             	and    $0x7f,%eax
    f295:	48 d3 e0             	shl    %cl,%rax
    f298:	83 c1 07             	add    $0x7,%ecx
    f29b:	48 09 c2             	or     %rax,%rdx
    f29e:	40 84 f6             	test   %sil,%sil
    f2a1:	78 e5                	js     f288 <_Unwind_GetTextRelBase@@GCC_3.0+0x518>
    f2a3:	45 31 c0             	xor    %r8d,%r8d
    f2a6:	31 c9                	xor    %ecx,%ecx
    f2a8:	0f 1f 84 00 00 00 00 	nopl   0x0(%rax,%rax,1)
    f2af:	00 
    f2b0:	0f b6 37             	movzbl (%rdi),%esi
    f2b3:	48 83 c7 01          	add    $0x1,%rdi
    f2b7:	48 89 f0             	mov    %rsi,%rax
    f2ba:	83 e0 7f             	and    $0x7f,%eax
    f2bd:	48 d3 e0             	shl    %cl,%rax
    f2c0:	83 c1 07             	add    $0x7,%ecx
    f2c3:	49 09 c0             	or     %rax,%r8
    f2c6:	40 84 f6             	test   %sil,%sil
    f2c9:	78 e5                	js     f2b0 <_Unwind_GetTextRelBase@@GCC_3.0+0x540>
    f2cb:	83 f9 3f             	cmp    $0x3f,%ecx
    f2ce:	77 10                	ja     f2e0 <_Unwind_GetTextRelBase@@GCC_3.0+0x570>
    f2d0:	83 e6 40             	and    $0x40,%esi
    f2d3:	0f 85 cc 04 00 00    	jne    f7a5 <_Unwind_GetTextRelBase@@GCC_3.0+0xa35>
    f2d9:	0f 1f 80 00 00 00 00 	nopl   0x0(%rax)
    f2e0:	4c 0f af 83 58 01 00 	imul   0x158(%rbx),%r8
    f2e7:	00 
    f2e8:	48 83 fa 11          	cmp    $0x11,%rdx
    f2ec:	0f 87 16 fd ff ff    	ja     f008 <_Unwind_GetTextRelBase@@GCC_3.0+0x298>
    f2f2:	48 c1 e2 04          	shl    $0x4,%rdx
    f2f6:	48 8d 04 13          	lea    (%rbx,%rdx,1),%rax
    f2fa:	c7 40 08 01 00 00 00 	movl   $0x1,0x8(%rax)
    f301:	4c 89 00             	mov    %r8,(%rax)
    f304:	e9 ff fc ff ff       	jmpq   f008 <_Unwind_GetTextRelBase@@GCC_3.0+0x298>
    f309:	31 ff                	xor    %edi,%edi
    f30b:	31 c9                	xor    %ecx,%ecx
    f30d:	0f 1f 00             	nopl   (%rax)
    f310:	0f b6 32             	movzbl (%rdx),%esi
    f313:	48 83 c2 01          	add    $0x1,%rdx
    f317:	48 89 f0             	mov    %rsi,%rax
    f31a:	83 e0 7f             	and    $0x7f,%eax
    f31d:	48 d3 e0             	shl    %cl,%rax
    f320:	83 c1 07             	add    $0x7,%ecx
    f323:	48 09 c7             	or     %rax,%rdi
    f326:	40 84 f6             	test   %sil,%sil
    f329:	78 e5                	js     f310 <_Unwind_GetTextRelBase@@GCC_3.0+0x5a0>
    f32b:	48 89 bb 30 01 00 00 	mov    %rdi,0x130(%rbx)
    f332:	31 c9                	xor    %ecx,%ecx
    f334:	31 ff                	xor    %edi,%edi
    f336:	66 2e 0f 1f 84 00 00 	nopw   %cs:0x0(%rax,%rax,1)
    f33d:	00 00 00 
    f340:	0f b6 32             	movzbl (%rdx),%esi
    f343:	48 83 c2 01          	add    $0x1,%rdx
    f347:	48 89 f0             	mov    %rsi,%rax
    f34a:	83 e0 7f             	and    $0x7f,%eax
    f34d:	48 d3 e0             	shl    %cl,%rax
    f350:	83 c1 07             	add    $0x7,%ecx
    f353:	48 09 c7             	or     %rax,%rdi
    f356:	40 84 f6             	test   %sil,%sil
    f359:	78 e5                	js     f340 <_Unwind_GetTextRelBase@@GCC_3.0+0x5d0>
    f35b:	83 f9 3f             	cmp    $0x3f,%ecx
    f35e:	77 12                	ja     f372 <_Unwind_GetTextRelBase@@GCC_3.0+0x602>
    f360:	83 e6 40             	and    $0x40,%esi
    f363:	74 0d                	je     f372 <_Unwind_GetTextRelBase@@GCC_3.0+0x602>
    f365:	48 c7 c0 ff ff ff ff 	mov    $0xffffffffffffffff,%rax
    f36c:	48 d3 e0             	shl    %cl,%rax
    f36f:	48 09 c7             	or     %rax,%rdi
    f372:	c7 83 40 01 00 00 01 	movl   $0x1,0x140(%rbx)
    f379:	00 00 00 
    f37c:	48 0f af bb 58 01 00 	imul   0x158(%rbx),%rdi
    f383:	00 
    f384:	48 89 bb 28 01 00 00 	mov    %rdi,0x128(%rbx)
    f38b:	48 89 d7             	mov    %rdx,%rdi
    f38e:	e9 75 fc ff ff       	jmpq   f008 <_Unwind_GetTextRelBase@@GCC_3.0+0x298>
    f393:	48 89 d7             	mov    %rdx,%rdi
    f396:	31 c9                	xor    %ecx,%ecx
    f398:	31 d2                	xor    %edx,%edx
    f39a:	66 0f 1f 44 00 00    	nopw   0x0(%rax,%rax,1)
    f3a0:	0f b6 37             	movzbl (%rdi),%esi
    f3a3:	48 83 c7 01          	add    $0x1,%rdi
    f3a7:	48 89 f0             	mov    %rsi,%rax
    f3aa:	83 e0 7f             	and    $0x7f,%eax
    f3ad:	48 d3 e0             	shl    %cl,%rax
    f3b0:	83 c1 07             	add    $0x7,%ecx
    f3b3:	48 09 c2             	or     %rax,%rdx
    f3b6:	40 84 f6             	test   %sil,%sil
    f3b9:	78 e5                	js     f3a0 <_Unwind_GetTextRelBase@@GCC_3.0+0x630>
    f3bb:	45 31 c0             	xor    %r8d,%r8d
    f3be:	31 c9                	xor    %ecx,%ecx
    f3c0:	0f b6 37             	movzbl (%rdi),%esi
    f3c3:	48 83 c7 01          	add    $0x1,%rdi
    f3c7:	48 89 f0             	mov    %rsi,%rax
    f3ca:	83 e0 7f             	and    $0x7f,%eax
    f3cd:	48 d3 e0             	shl    %cl,%rax
    f3d0:	83 c1 07             	add    $0x7,%ecx
    f3d3:	49 09 c0             	or     %rax,%r8
    f3d6:	40 84 f6             	test   %sil,%sil
    f3d9:	78 e5                	js     f3c0 <_Unwind_GetTextRelBase@@GCC_3.0+0x650>
    f3db:	4c 0f af 83 58 01 00 	imul   0x158(%rbx),%r8
    f3e2:	00 
    f3e3:	48 83 fa 11          	cmp    $0x11,%rdx
    f3e7:	0f 87 1b fc ff ff    	ja     f008 <_Unwind_GetTextRelBase@@GCC_3.0+0x298>
    f3ed:	48 c1 e2 04          	shl    $0x4,%rdx
    f3f1:	49 f7 d8             	neg    %r8
    f3f4:	48 8d 04 13          	lea    (%rbx,%rdx,1),%rax
    f3f8:	c7 40 08 01 00 00 00 	movl   $0x1,0x8(%rax)
    f3ff:	4c 89 00             	mov    %r8,(%rax)
    f402:	e9 01 fc ff ff       	jmpq   f008 <_Unwind_GetTextRelBase@@GCC_3.0+0x298>
    f407:	48 89 d7             	mov    %rdx,%rdi
    f40a:	31 c9                	xor    %ecx,%ecx
    f40c:	31 d2                	xor    %edx,%edx
    f40e:	66 90                	xchg   %ax,%ax
    f410:	0f b6 37             	movzbl (%rdi),%esi
    f413:	48 83 c7 01          	add    $0x1,%rdi
    f417:	48 89 f0             	mov    %rsi,%rax
    f41a:	83 e0 7f             	and    $0x7f,%eax
    f41d:	48 d3 e0             	shl    %cl,%rax
    f420:	83 c1 07             	add    $0x7,%ecx
    f423:	48 09 c2             	or     %rax,%rdx
    f426:	40 84 f6             	test   %sil,%sil
    f429:	78 e5                	js     f410 <_Unwind_GetTextRelBase@@GCC_3.0+0x6a0>
    f42b:	45 31 c0             	xor    %r8d,%r8d
    f42e:	31 c9                	xor    %ecx,%ecx
    f430:	0f b6 37             	movzbl (%rdi),%esi
    f433:	48 83 c7 01          	add    $0x1,%rdi
    f437:	48 89 f0             	mov    %rsi,%rax
    f43a:	83 e0 7f             	and    $0x7f,%eax
    f43d:	48 d3 e0             	shl    %cl,%rax
    f440:	83 c1 07             	add    $0x7,%ecx
    f443:	49 09 c0             	or     %rax,%r8
    f446:	40 84 f6             	test   %sil,%sil
    f449:	78 e5                	js     f430 <_Unwind_GetTextRelBase@@GCC_3.0+0x6c0>
    f44b:	4c 0f af 83 58 01 00 	imul   0x158(%rbx),%r8
    f452:	00 
    f453:	48 83 fa 11          	cmp    $0x11,%rdx
    f457:	0f 87 ab fb ff ff    	ja     f008 <_Unwind_GetTextRelBase@@GCC_3.0+0x298>
    f45d:	48 c1 e2 04          	shl    $0x4,%rdx
    f461:	48 8d 04 13          	lea    (%rbx,%rdx,1),%rax
    f465:	c7 40 08 04 00 00 00 	movl   $0x4,0x8(%rax)
    f46c:	4c 89 00             	mov    %r8,(%rax)
    f46f:	e9 94 fb ff ff       	jmpq   f008 <_Unwind_GetTextRelBase@@GCC_3.0+0x298>
    f474:	48 89 d7             	mov    %rdx,%rdi
    f477:	31 c9                	xor    %ecx,%ecx
    f479:	31 d2                	xor    %edx,%edx
    f47b:	0f 1f 44 00 00       	nopl   0x0(%rax,%rax,1)
    f480:	0f b6 37             	movzbl (%rdi),%esi
    f483:	48 83 c7 01          	add    $0x1,%rdi
    f487:	48 89 f0             	mov    %rsi,%rax
    f48a:	83 e0 7f             	and    $0x7f,%eax
    f48d:	48 d3 e0             	shl    %cl,%rax
    f490:	83 c1 07             	add    $0x7,%ecx
    f493:	48 09 c2             	or     %rax,%rdx
    f496:	40 84 f6             	test   %sil,%sil
    f499:	78 e5                	js     f480 <_Unwind_GetTextRelBase@@GCC_3.0+0x710>
    f49b:	45 31 c0             	xor    %r8d,%r8d
    f49e:	31 c9                	xor    %ecx,%ecx
    f4a0:	0f b6 37             	movzbl (%rdi),%esi
    f4a3:	48 83 c7 01          	add    $0x1,%rdi
    f4a7:	48 89 f0             	mov    %rsi,%rax
    f4aa:	83 e0 7f             	and    $0x7f,%eax
    f4ad:	48 d3 e0             	shl    %cl,%rax
    f4b0:	83 c1 07             	add    $0x7,%ecx
    f4b3:	49 09 c0             	or     %rax,%r8
    f4b6:	40 84 f6             	test   %sil,%sil
    f4b9:	78 e5                	js     f4a0 <_Unwind_GetTextRelBase@@GCC_3.0+0x730>
    f4bb:	83 f9 3f             	cmp    $0x3f,%ecx
    f4be:	77 8b                	ja     f44b <_Unwind_GetTextRelBase@@GCC_3.0+0x6db>
    f4c0:	83 e6 40             	and    $0x40,%esi
    f4c3:	74 86                	je     f44b <_Unwind_GetTextRelBase@@GCC_3.0+0x6db>
    f4c5:	48 c7 c0 ff ff ff ff 	mov    $0xffffffffffffffff,%rax
    f4cc:	48 d3 e0             	shl    %cl,%rax
    f4cf:	49 09 c0             	or     %rax,%r8
    f4d2:	e9 74 ff ff ff       	jmpq   f44b <_Unwind_GetTextRelBase@@GCC_3.0+0x6db>
    f4d7:	31 ff                	xor    %edi,%edi
    f4d9:	31 c9                	xor    %ecx,%ecx
    f4db:	0f 1f 44 00 00       	nopl   0x0(%rax,%rax,1)
    f4e0:	0f b6 32             	movzbl (%rdx),%esi
    f4e3:	48 83 c2 01          	add    $0x1,%rdx
    f4e7:	48 89 f0             	mov    %rsi,%rax
    f4ea:	83 e0 7f             	and    $0x7f,%eax
    f4ed:	48 d3 e0             	shl    %cl,%rax
    f4f0:	83 c1 07             	add    $0x7,%ecx
    f4f3:	48 09 c7             	or     %rax,%rdi
    f4f6:	40 84 f6             	test   %sil,%sil
    f4f9:	78 e5                	js     f4e0 <_Unwind_GetTextRelBase@@GCC_3.0+0x770>
    f4fb:	48 83 ff 11          	cmp    $0x11,%rdi
    f4ff:	77 12                	ja     f513 <_Unwind_GetTextRelBase@@GCC_3.0+0x7a3>
    f501:	48 c1 e7 04          	shl    $0x4,%rdi
    f505:	48 8d 04 3b          	lea    (%rbx,%rdi,1),%rax
    f509:	c7 40 08 05 00 00 00 	movl   $0x5,0x8(%rax)
    f510:	48 89 10             	mov    %rdx,(%rax)
    f513:	31 ff                	xor    %edi,%edi
    f515:	31 c9                	xor    %ecx,%ecx
    f517:	66 0f 1f 84 00 00 00 	nopw   0x0(%rax,%rax,1)
    f51e:	00 00 
    f520:	0f b6 32             	movzbl (%rdx),%esi
    f523:	48 83 c2 01          	add    $0x1,%rdx
    f527:	48 89 f0             	mov    %rsi,%rax
    f52a:	83 e0 7f             	and    $0x7f,%eax
    f52d:	48 d3 e0             	shl    %cl,%rax
    f530:	83 c1 07             	add    $0x7,%ecx
    f533:	48 09 c7             	or     %rax,%rdi
    f536:	40 84 f6             	test   %sil,%sil
    f539:	78 e5                	js     f520 <_Unwind_GetTextRelBase@@GCC_3.0+0x7b0>
    f53b:	48 01 d7             	add    %rdx,%rdi
    f53e:	e9 c5 fa ff ff       	jmpq   f008 <_Unwind_GetTextRelBase@@GCC_3.0+0x298>
    f543:	31 ff                	xor    %edi,%edi
    f545:	31 c9                	xor    %ecx,%ecx
    f547:	66 0f 1f 84 00 00 00 	nopw   0x0(%rax,%rax,1)
    f54e:	00 00 
    f550:	0f b6 32             	movzbl (%rdx),%esi
    f553:	48 83 c2 01          	add    $0x1,%rdx
    f557:	48 89 f0             	mov    %rsi,%rax
    f55a:	83 e0 7f             	and    $0x7f,%eax
    f55d:	48 d3 e0             	shl    %cl,%rax
    f560:	83 c1 07             	add    $0x7,%ecx
    f563:	48 09 c7             	or     %rax,%rdi
    f566:	40 84 f6             	test   %sil,%sil
    f569:	78 e5                	js     f550 <_Unwind_GetTextRelBase@@GCC_3.0+0x7e0>
    f56b:	49 89 bc 24 d0 00 00 	mov    %rdi,0xd0(%r12)
    f572:	00 
    f573:	48 89 d7             	mov    %rdx,%rdi
    f576:	e9 8d fa ff ff       	jmpq   f008 <_Unwind_GetTextRelBase@@GCC_3.0+0x298>
    f57b:	31 ff                	xor    %edi,%edi
    f57d:	31 c9                	xor    %ecx,%ecx
    f57f:	90                   	nop
    f580:	0f b6 32             	movzbl (%rdx),%esi
    f583:	48 83 c2 01          	add    $0x1,%rdx
    f587:	48 89 f0             	mov    %rsi,%rax
    f58a:	83 e0 7f             	and    $0x7f,%eax
    f58d:	48 d3 e0             	shl    %cl,%rax
    f590:	83 c1 07             	add    $0x7,%ecx
    f593:	48 09 c7             	or     %rax,%rdi
    f596:	40 84 f6             	test   %sil,%sil
    f599:	78 e5                	js     f580 <_Unwind_GetTextRelBase@@GCC_3.0+0x810>
    f59b:	83 f9 3f             	cmp    $0x3f,%ecx
    f59e:	0f 87 d8 fd ff ff    	ja     f37c <_Unwind_GetTextRelBase@@GCC_3.0+0x60c>
    f5a4:	83 e6 40             	and    $0x40,%esi
    f5a7:	0f 84 cf fd ff ff    	je     f37c <_Unwind_GetTextRelBase@@GCC_3.0+0x60c>
    f5ad:	48 c7 c0 ff ff ff ff 	mov    $0xffffffffffffffff,%rax
    f5b4:	48 d3 e0             	shl    %cl,%rax
    f5b7:	48 09 c7             	or     %rax,%rdi
    f5ba:	e9 bd fd ff ff       	jmpq   f37c <_Unwind_GetTextRelBase@@GCC_3.0+0x60c>
    f5bf:	48 89 d7             	mov    %rdx,%rdi
    f5c2:	31 f6                	xor    %esi,%esi
    f5c4:	31 c9                	xor    %ecx,%ecx
    f5c6:	66 2e 0f 1f 84 00 00 	nopw   %cs:0x0(%rax,%rax,1)
    f5cd:	00 00 00 
    f5d0:	0f b6 17             	movzbl (%rdi),%edx
    f5d3:	48 83 c7 01          	add    $0x1,%rdi
    f5d7:	48 89 d0             	mov    %rdx,%rax
    f5da:	83 e0 7f             	and    $0x7f,%eax
    f5dd:	48 d3 e0             	shl    %cl,%rax
    f5e0:	83 c1 07             	add    $0x7,%ecx
    f5e3:	48 09 c6             	or     %rax,%rsi
    f5e6:	84 d2                	test   %dl,%dl
    f5e8:	78 e6                	js     f5d0 <_Unwind_GetTextRelBase@@GCC_3.0+0x860>
    f5ea:	48 83 fe 11          	cmp    $0x11,%rsi
    f5ee:	0f 87 14 fa ff ff    	ja     f008 <_Unwind_GetTextRelBase@@GCC_3.0+0x298>
    f5f4:	48 c1 e6 04          	shl    $0x4,%rsi
    f5f8:	c7 44 33 08 00 00 00 	movl   $0x0,0x8(%rbx,%rsi,1)
    f5ff:	00 
    f600:	e9 03 fa ff ff       	jmpq   f008 <_Unwind_GetTextRelBase@@GCC_3.0+0x298>
    f605:	48 89 d7             	mov    %rdx,%rdi
    f608:	31 f6                	xor    %esi,%esi
    f60a:	31 c9                	xor    %ecx,%ecx
    f60c:	0f 1f 40 00          	nopl   0x0(%rax)
    f610:	0f b6 17             	movzbl (%rdi),%edx
    f613:	48 83 c7 01          	add    $0x1,%rdi
    f617:	48 89 d0             	mov    %rdx,%rax
    f61a:	83 e0 7f             	and    $0x7f,%eax
    f61d:	48 d3 e0             	shl    %cl,%rax
    f620:	83 c1 07             	add    $0x7,%ecx
    f623:	48 09 c6             	or     %rax,%rsi
    f626:	84 d2                	test   %dl,%dl
    f628:	78 e6                	js     f610 <_Unwind_GetTextRelBase@@GCC_3.0+0x8a0>
    f62a:	eb be                	jmp    f5ea <_Unwind_GetTextRelBase@@GCC_3.0+0x87a>
    f62c:	48 89 d7             	mov    %rdx,%rdi
    f62f:	31 f6                	xor    %esi,%esi
    f631:	31 c9                	xor    %ecx,%ecx
    f633:	0f 1f 44 00 00       	nopl   0x0(%rax,%rax,1)
    f638:	0f b6 17             	movzbl (%rdi),%edx
    f63b:	48 83 c7 01          	add    $0x1,%rdi
    f63f:	48 89 d0             	mov    %rdx,%rax
    f642:	83 e0 7f             	and    $0x7f,%eax
    f645:	48 d3 e0             	shl    %cl,%rax
    f648:	83 c1 07             	add    $0x7,%ecx
    f64b:	48 09 c6             	or     %rax,%rsi
    f64e:	84 d2                	test   %dl,%dl
    f650:	78 e6                	js     f638 <_Unwind_GetTextRelBase@@GCC_3.0+0x8c8>
    f652:	48 83 fe 11          	cmp    $0x11,%rsi
    f656:	0f 87 ac f9 ff ff    	ja     f008 <_Unwind_GetTextRelBase@@GCC_3.0+0x298>
    f65c:	48 c1 e6 04          	shl    $0x4,%rsi
    f660:	c7 44 33 08 06 00 00 	movl   $0x6,0x8(%rbx,%rsi,1)
    f667:	00 
    f668:	e9 9b f9 ff ff       	jmpq   f008 <_Unwind_GetTextRelBase@@GCC_3.0+0x298>
    f66d:	48 89 d7             	mov    %rdx,%rdi
    f670:	31 c9                	xor    %ecx,%ecx
    f672:	31 d2                	xor    %edx,%edx
    f674:	0f 1f 40 00          	nopl   0x0(%rax)
    f678:	0f b6 37             	movzbl (%rdi),%esi
    f67b:	48 83 c7 01          	add    $0x1,%rdi
    f67f:	48 89 f0             	mov    %rsi,%rax
    f682:	83 e0 7f             	and    $0x7f,%eax
    f685:	48 d3 e0             	shl    %cl,%rax
    f688:	83 c1 07             	add    $0x7,%ecx
    f68b:	48 09 c2             	or     %rax,%rdx
    f68e:	40 84 f6             	test   %sil,%sil
    f691:	78 e5                	js     f678 <_Unwind_GetTextRelBase@@GCC_3.0+0x908>
    f693:	45 31 c0             	xor    %r8d,%r8d
    f696:	31 c9                	xor    %ecx,%ecx
    f698:	0f 1f 84 00 00 00 00 	nopl   0x0(%rax,%rax,1)
    f69f:	00 
    f6a0:	0f b6 37             	movzbl (%rdi),%esi
    f6a3:	48 83 c7 01          	add    $0x1,%rdi
    f6a7:	48 89 f0             	mov    %rsi,%rax
    f6aa:	83 e0 7f             	and    $0x7f,%eax
    f6ad:	48 d3 e0             	shl    %cl,%rax
    f6b0:	83 c1 07             	add    $0x7,%ecx
    f6b3:	49 09 c0             	or     %rax,%r8
    f6b6:	40 84 f6             	test   %sil,%sil
    f6b9:	78 e5                	js     f6a0 <_Unwind_GetTextRelBase@@GCC_3.0+0x930>
    f6bb:	e9 20 fc ff ff       	jmpq   f2e0 <_Unwind_GetTextRelBase@@GCC_3.0+0x570>
    f6c0:	31 ff                	xor    %edi,%edi
    f6c2:	31 c9                	xor    %ecx,%ecx
    f6c4:	0f 1f 40 00          	nopl   0x0(%rax)
    f6c8:	0f b6 32             	movzbl (%rdx),%esi
    f6cb:	48 83 c2 01          	add    $0x1,%rdx
    f6cf:	48 89 f0             	mov    %rsi,%rax
    f6d2:	83 e0 7f             	and    $0x7f,%eax
    f6d5:	48 d3 e0             	shl    %cl,%rax
    f6d8:	83 c1 07             	add    $0x7,%ecx
    f6db:	48 09 c7             	or     %rax,%rdi
    f6de:	40 84 f6             	test   %sil,%sil
    f6e1:	78 e5                	js     f6c8 <_Unwind_GetTextRelBase@@GCC_3.0+0x958>
    f6e3:	48 89 bb 28 01 00 00 	mov    %rdi,0x128(%rbx)
    f6ea:	48 89 d7             	mov    %rdx,%rdi
    f6ed:	e9 16 f9 ff ff       	jmpq   f008 <_Unwind_GetTextRelBase@@GCC_3.0+0x298>
    f6f2:	31 ff                	xor    %edi,%edi
    f6f4:	31 c9                	xor    %ecx,%ecx
    f6f6:	66 2e 0f 1f 84 00 00 	nopw   %cs:0x0(%rax,%rax,1)
    f6fd:	00 00 00 
    f700:	0f b6 32             	movzbl (%rdx),%esi
    f703:	48 83 c2 01          	add    $0x1,%rdx
    f707:	48 89 f0             	mov    %rsi,%rax
    f70a:	83 e0 7f             	and    $0x7f,%eax
    f70d:	48 d3 e0             	shl    %cl,%rax
    f710:	83 c1 07             	add    $0x7,%ecx
    f713:	48 09 c7             	or     %rax,%rdi
    f716:	40 84 f6             	test   %sil,%sil
    f719:	78 e5                	js     f700 <_Unwind_GetTextRelBase@@GCC_3.0+0x990>
    f71b:	48 89 bb 30 01 00 00 	mov    %rdi,0x130(%rbx)
    f722:	31 c9                	xor    %ecx,%ecx
    f724:	31 ff                	xor    %edi,%edi
    f726:	66 2e 0f 1f 84 00 00 	nopw   %cs:0x0(%rax,%rax,1)
    f72d:	00 00 00 
    f730:	0f b6 32             	movzbl (%rdx),%esi
    f733:	48 83 c2 01          	add    $0x1,%rdx
    f737:	48 89 f0             	mov    %rsi,%rax
    f73a:	83 e0 7f             	and    $0x7f,%eax
    f73d:	48 d3 e0             	shl    %cl,%rax
    f740:	83 c1 07             	add    $0x7,%ecx
    f743:	48 09 c7             	or     %rax,%rdi
    f746:	40 84 f6             	test   %sil,%sil
    f749:	78 e5                	js     f730 <_Unwind_GetTextRelBase@@GCC_3.0+0x9c0>
    f74b:	48 89 bb 28 01 00 00 	mov    %rdi,0x128(%rbx)
    f752:	48 89 d7             	mov    %rdx,%rdi
    f755:	c7 83 40 01 00 00 01 	movl   $0x1,0x140(%rbx)
    f75c:	00 00 00 
    f75f:	e9 a4 f8 ff ff       	jmpq   f008 <_Unwind_GetTextRelBase@@GCC_3.0+0x298>
    f764:	31 ff                	xor    %edi,%edi
    f766:	31 c9                	xor    %ecx,%ecx
    f768:	0f 1f 84 00 00 00 00 	nopl   0x0(%rax,%rax,1)
    f76f:	00 
    f770:	0f b6 32             	movzbl (%rdx),%esi
    f773:	48 83 c2 01          	add    $0x1,%rdx
    f777:	48 89 f0             	mov    %rsi,%rax
    f77a:	83 e0 7f             	and    $0x7f,%eax
    f77d:	48 d3 e0             	shl    %cl,%rax
    f780:	83 c1 07             	add    $0x7,%ecx
    f783:	48 09 c7             	or     %rax,%rdi
    f786:	40 84 f6             	test   %sil,%sil
    f789:	78 e5                	js     f770 <_Unwind_GetTextRelBase@@GCC_3.0+0xa00>
    f78b:	48 89 bb 30 01 00 00 	mov    %rdi,0x130(%rbx)
    f792:	48 89 d7             	mov    %rdx,%rdi
    f795:	c7 83 40 01 00 00 01 	movl   $0x1,0x140(%rbx)
    f79c:	00 00 00 
    f79f:	e9 64 f8 ff ff       	jmpq   f008 <_Unwind_GetTextRelBase@@GCC_3.0+0x298>
    f7a4:	c3                   	retq   
    f7a5:	48 c7 c0 ff ff ff ff 	mov    $0xffffffffffffffff,%rax
    f7ac:	48 d3 e0             	shl    %cl,%rax
    f7af:	49 09 c0             	or     %rax,%r8
    f7b2:	e9 29 fb ff ff       	jmpq   f2e0 <_Unwind_GetTextRelBase@@GCC_3.0+0x570>
    f7b7:	48 89 e0             	mov    %rsp,%rax
    f7ba:	48 39 c4             	cmp    %rax,%rsp
    f7bd:	74 15                	je     f7d4 <_Unwind_GetTextRelBase@@GCC_3.0+0xa64>
    f7bf:	48 81 ec 00 10 00 00 	sub    $0x1000,%rsp
    f7c6:	48 83 8c 24 f8 0f 00 	orq    $0x0,0xff8(%rsp)
    f7cd:	00 00 
    f7cf:	48 39 c4             	cmp    %rax,%rsp
    f7d2:	75 eb                	jne    f7bf <_Unwind_GetTextRelBase@@GCC_3.0+0xa4f>
    f7d4:	48 81 ec 50 01 00 00 	sub    $0x150,%rsp
    f7db:	48 83 8c 24 48 01 00 	orq    $0x0,0x148(%rsp)
    f7e2:	00 00 
    f7e4:	48 8d 44 24 0f       	lea    0xf(%rsp),%rax
    f7e9:	48 83 e0 f0          	and    $0xfffffffffffffff0,%rax
    f7ed:	e9 76 f9 ff ff       	jmpq   f168 <_Unwind_GetTextRelBase@@GCC_3.0+0x3f8>
    f7f2:	66 66 2e 0f 1f 84 00 	data16 nopw %cs:0x0(%rax,%rax,1)
    f7f9:	00 00 00 00 
    f7fd:	0f 1f 00             	nopl   (%rax)
    f800:	41 57                	push   %r15
    f802:	b9 30 00 00 00       	mov    $0x30,%ecx
    f807:	31 c0                	xor    %eax,%eax
    f809:	41 56                	push   %r14
    f80b:	41 55                	push   %r13
    f80d:	41 54                	push   %r12
    f80f:	49 89 fc             	mov    %rdi,%r12
    f812:	48 89 f7             	mov    %rsi,%rdi
    f815:	55                   	push   %rbp
    f816:	53                   	push   %rbx
    f817:	48 83 ec 28          	sub    $0x28,%rsp
    f81b:	f3 48 ab             	rep stos %rax,%es:(%rdi)
    f81e:	49 c7 84 24 d0 00 00 	movq   $0x0,0xd0(%r12)
    f825:	00 00 00 00 00 
    f82a:	49 c7 84 24 a0 00 00 	movq   $0x0,0xa0(%r12)
    f831:	00 00 00 00 00 
    f836:	49 8b 94 24 98 00 00 	mov    0x98(%r12),%rdx
    f83d:	00 
    f83e:	48 85 d2             	test   %rdx,%rdx
    f841:	0f 84 69 03 00 00    	je     fbb0 <_Unwind_GetTextRelBase@@GCC_3.0+0xe40>
    f847:	49 8b 84 24 c0 00 00 	mov    0xc0(%r12),%rax
    f84e:	00 
    f84f:	48 89 f5             	mov    %rsi,%rbp
    f852:	49 8d b4 24 a8 00 00 	lea    0xa8(%r12),%rsi
    f859:	00 
    f85a:	48 c1 e8 3f          	shr    $0x3f,%rax
    f85e:	48 8d 7c 02 ff       	lea    -0x1(%rdx,%rax,1),%rdi
    f863:	e8 a8 3c ff ff       	callq  3510 <_Unwind_Find_FDE@plt>
    f868:	49 89 c5             	mov    %rax,%r13
    f86b:	48 85 c0             	test   %rax,%rax
    f86e:	0f 84 d4 03 00 00    	je     fc48 <_Unwind_GetTextRelBase@@GCC_3.0+0xed8>
    f874:	49 8b 84 24 b8 00 00 	mov    0xb8(%r12),%rax
    f87b:	00 
    f87c:	4d 8d 75 04          	lea    0x4(%r13),%r14
    f880:	48 89 85 48 01 00 00 	mov    %rax,0x148(%rbp)
    f887:	49 63 45 04          	movslq 0x4(%r13),%rax
    f88b:	49 29 c6             	sub    %rax,%r14
    f88e:	49 8d 5e 09          	lea    0x9(%r14),%rbx
    f892:	48 89 df             	mov    %rbx,%rdi
    f895:	e8 26 3b ff ff       	callq  33c0 <strlen@plt>
    f89a:	41 80 7e 09 65       	cmpb   $0x65,0x9(%r14)
    f89f:	48 8d 44 03 01       	lea    0x1(%rbx,%rax,1),%rax
    f8a4:	0f 84 f6 01 00 00    	je     faa0 <_Unwind_GetTextRelBase@@GCC_3.0+0xd30>
    f8aa:	41 0f b6 7e 08       	movzbl 0x8(%r14),%edi
    f8af:	40 80 ff 03          	cmp    $0x3,%dil
    f8b3:	0f 87 81 05 00 00    	ja     fe3a <_Unwind_GetTextRelBase@@GCC_3.0+0x10ca>
    f8b9:	45 31 c0             	xor    %r8d,%r8d
    f8bc:	31 c9                	xor    %ecx,%ecx
    f8be:	66 90                	xchg   %ax,%ax
    f8c0:	0f b6 30             	movzbl (%rax),%esi
    f8c3:	48 83 c0 01          	add    $0x1,%rax
    f8c7:	48 89 f2             	mov    %rsi,%rdx
    f8ca:	83 e2 7f             	and    $0x7f,%edx
    f8cd:	48 d3 e2             	shl    %cl,%rdx
    f8d0:	83 c1 07             	add    $0x7,%ecx
    f8d3:	49 09 d0             	or     %rdx,%r8
    f8d6:	40 84 f6             	test   %sil,%sil
    f8d9:	78 e5                	js     f8c0 <_Unwind_GetTextRelBase@@GCC_3.0+0xb50>
    f8db:	4c 89 85 60 01 00 00 	mov    %r8,0x160(%rbp)
    f8e2:	31 c9                	xor    %ecx,%ecx
    f8e4:	45 31 c0             	xor    %r8d,%r8d
    f8e7:	66 0f 1f 84 00 00 00 	nopw   0x0(%rax,%rax,1)
    f8ee:	00 00 
    f8f0:	49 89 c1             	mov    %rax,%r9
    f8f3:	0f b6 30             	movzbl (%rax),%esi
    f8f6:	48 83 c0 01          	add    $0x1,%rax
    f8fa:	48 89 f2             	mov    %rsi,%rdx
    f8fd:	83 e2 7f             	and    $0x7f,%edx
    f900:	48 d3 e2             	shl    %cl,%rdx
    f903:	83 c1 07             	add    $0x7,%ecx
    f906:	49 09 d0             	or     %rdx,%r8
    f909:	40 84 f6             	test   %sil,%sil
    f90c:	78 e2                	js     f8f0 <_Unwind_GetTextRelBase@@GCC_3.0+0xb80>
    f90e:	83 f9 3f             	cmp    $0x3f,%ecx
    f911:	77 12                	ja     f925 <_Unwind_GetTextRelBase@@GCC_3.0+0xbb5>
    f913:	83 e6 40             	and    $0x40,%esi
    f916:	74 0d                	je     f925 <_Unwind_GetTextRelBase@@GCC_3.0+0xbb5>
    f918:	48 c7 c2 ff ff ff ff 	mov    $0xffffffffffffffff,%rdx
    f91f:	48 d3 e2             	shl    %cl,%rdx
    f922:	49 09 d0             	or     %rdx,%r8
    f925:	4c 89 85 58 01 00 00 	mov    %r8,0x158(%rbp)
    f92c:	31 c9                	xor    %ecx,%ecx
    f92e:	45 31 c0             	xor    %r8d,%r8d
    f931:	40 80 ff 01          	cmp    $0x1,%dil
    f935:	0f 84 8d 01 00 00    	je     fac8 <_Unwind_GetTextRelBase@@GCC_3.0+0xd58>
    f93b:	0f 1f 44 00 00       	nopl   0x0(%rax,%rax,1)
    f940:	0f b6 30             	movzbl (%rax),%esi
    f943:	48 83 c0 01          	add    $0x1,%rax
    f947:	48 89 f2             	mov    %rsi,%rdx
    f94a:	83 e2 7f             	and    $0x7f,%edx
    f94d:	48 d3 e2             	shl    %cl,%rdx
    f950:	83 c1 07             	add    $0x7,%ecx
    f953:	49 09 d0             	or     %rdx,%r8
    f956:	40 84 f6             	test   %sil,%sil
    f959:	78 e5                	js     f940 <_Unwind_GetTextRelBase@@GCC_3.0+0xbd0>
    f95b:	4c 89 85 68 01 00 00 	mov    %r8,0x168(%rbp)
    f962:	c6 85 71 01 00 00 ff 	movb   $0xff,0x171(%rbp)
    f969:	0f b6 13             	movzbl (%rbx),%edx
    f96c:	80 fa 7a             	cmp    $0x7a,%dl
    f96f:	0f 84 74 01 00 00    	je     fae9 <_Unwind_GetTextRelBase@@GCC_3.0+0xd79>
    f975:	45 31 ff             	xor    %r15d,%r15d
    f978:	84 d2                	test   %dl,%dl
    f97a:	0f 84 d6 04 00 00    	je     fe56 <_Unwind_GetTextRelBase@@GCC_3.0+0x10e6>
    f980:	48 83 c3 01          	add    $0x1,%rbx
    f984:	48 8d 4c 24 18       	lea    0x18(%rsp),%rcx
    f989:	eb 34                	jmp    f9bf <_Unwind_GetTextRelBase@@GCC_3.0+0xc4f>
    f98b:	0f 1f 44 00 00       	nopl   0x0(%rax,%rax,1)
    f990:	80 fa 52             	cmp    $0x52,%dl
    f993:	0f 84 97 01 00 00    	je     fb30 <_Unwind_GetTextRelBase@@GCC_3.0+0xdc0>
    f999:	80 fa 50             	cmp    $0x50,%dl
    f99c:	0f 84 b6 01 00 00    	je     fb58 <_Unwind_GetTextRelBase@@GCC_3.0+0xde8>
    f9a2:	80 fa 53             	cmp    $0x53,%dl
    f9a5:	0f 84 9d 01 00 00    	je     fb48 <_Unwind_GetTextRelBase@@GCC_3.0+0xdd8>
    f9ab:	80 fa 42             	cmp    $0x42,%dl
    f9ae:	0f 85 4f 02 00 00    	jne    fc03 <_Unwind_GetTextRelBase@@GCC_3.0+0xe93>
    f9b4:	0f b6 13             	movzbl (%rbx),%edx
    f9b7:	48 83 c3 01          	add    $0x1,%rbx
    f9bb:	84 d2                	test   %dl,%dl
    f9bd:	74 1e                	je     f9dd <_Unwind_GetTextRelBase@@GCC_3.0+0xc6d>
    f9bf:	80 fa 4c             	cmp    $0x4c,%dl
    f9c2:	75 cc                	jne    f990 <_Unwind_GetTextRelBase@@GCC_3.0+0xc20>
    f9c4:	0f b6 10             	movzbl (%rax),%edx
    f9c7:	48 83 c3 01          	add    $0x1,%rbx
    f9cb:	48 83 c0 01          	add    $0x1,%rax
    f9cf:	88 95 71 01 00 00    	mov    %dl,0x171(%rbp)
    f9d5:	0f b6 53 ff          	movzbl -0x1(%rbx),%edx
    f9d9:	84 d2                	test   %dl,%dl
    f9db:	75 e2                	jne    f9bf <_Unwind_GetTextRelBase@@GCC_3.0+0xc4f>
    f9dd:	4d 85 ff             	test   %r15,%r15
    f9e0:	0f 84 1a 02 00 00    	je     fc00 <_Unwind_GetTextRelBase@@GCC_3.0+0xe90>
    f9e6:	41 8b 06             	mov    (%r14),%eax
    f9e9:	48 89 e9             	mov    %rbp,%rcx
    f9ec:	4c 89 e2             	mov    %r12,%rdx
    f9ef:	4c 89 ff             	mov    %r15,%rdi
    f9f2:	49 8d 74 06 04       	lea    0x4(%r14,%rax,1),%rsi
    f9f7:	e8 64 f5 ff ff       	callq  ef60 <_Unwind_GetTextRelBase@@GCC_3.0+0x1f0>
    f9fc:	0f b6 85 70 01 00 00 	movzbl 0x170(%rbp),%eax
    fa03:	3c ff                	cmp    $0xff,%al
    fa05:	0f 84 25 04 00 00    	je     fe30 <_Unwind_GetTextRelBase@@GCC_3.0+0x10c0>
    fa0b:	83 e0 07             	and    $0x7,%eax
    fa0e:	3c 02                	cmp    $0x2,%al
    fa10:	0f 84 0a 04 00 00    	je     fe20 <_Unwind_GetTextRelBase@@GCC_3.0+0x10b0>
    fa16:	0f 86 84 01 00 00    	jbe    fba0 <_Unwind_GetTextRelBase@@GCC_3.0+0xe30>
    fa1c:	ba 10 00 00 00       	mov    $0x10,%edx
    fa21:	3c 03                	cmp    $0x3,%al
    fa23:	0f 85 5f 01 00 00    	jne    fb88 <_Unwind_GetTextRelBase@@GCC_3.0+0xe18>
    fa29:	4c 01 ea             	add    %r13,%rdx
    fa2c:	80 bd 72 01 00 00 00 	cmpb   $0x0,0x172(%rbp)
    fa33:	44 0f b6 85 71 01 00 	movzbl 0x171(%rbp),%r8d
    fa3a:	00 
    fa3b:	0f 84 87 01 00 00    	je     fbc8 <_Unwind_GetTextRelBase@@GCC_3.0+0xe58>
    fa41:	31 ff                	xor    %edi,%edi
    fa43:	31 c9                	xor    %ecx,%ecx
    fa45:	0f 1f 00             	nopl   (%rax)
    fa48:	0f b6 32             	movzbl (%rdx),%esi
    fa4b:	48 83 c2 01          	add    $0x1,%rdx
    fa4f:	48 89 f0             	mov    %rsi,%rax
    fa52:	83 e0 7f             	and    $0x7f,%eax
    fa55:	48 d3 e0             	shl    %cl,%rax
    fa58:	83 c1 07             	add    $0x7,%ecx
    fa5b:	48 09 c7             	or     %rax,%rdi
    fa5e:	40 84 f6             	test   %sil,%sil
    fa61:	78 e5                	js     fa48 <_Unwind_GetTextRelBase@@GCC_3.0+0xcd8>
    fa63:	4c 8d 34 3a          	lea    (%rdx,%rdi,1),%r14
    fa67:	41 80 f8 ff          	cmp    $0xff,%r8b
    fa6b:	0f 85 af 01 00 00    	jne    fc20 <_Unwind_GetTextRelBase@@GCC_3.0+0xeb0>
    fa71:	41 8b 45 00          	mov    0x0(%r13),%eax
    fa75:	48 89 e9             	mov    %rbp,%rcx
    fa78:	4c 89 e2             	mov    %r12,%rdx
    fa7b:	4c 89 f7             	mov    %r14,%rdi
    fa7e:	49 8d 74 05 04       	lea    0x4(%r13,%rax,1),%rsi
    fa83:	e8 d8 f4 ff ff       	callq  ef60 <_Unwind_GetTextRelBase@@GCC_3.0+0x1f0>
    fa88:	31 c0                	xor    %eax,%eax
    fa8a:	48 83 c4 28          	add    $0x28,%rsp
    fa8e:	5b                   	pop    %rbx
    fa8f:	5d                   	pop    %rbp
    fa90:	41 5c                	pop    %r12
    fa92:	41 5d                	pop    %r13
    fa94:	41 5e                	pop    %r14
    fa96:	41 5f                	pop    %r15
    fa98:	c3                   	retq   
    fa99:	0f 1f 80 00 00 00 00 	nopl   0x0(%rax)
    faa0:	41 80 7e 0a 68       	cmpb   $0x68,0xa(%r14)
    faa5:	0f 85 ff fd ff ff    	jne    f8aa <_Unwind_GetTextRelBase@@GCC_3.0+0xb3a>
    faab:	48 8b 10             	mov    (%rax),%rdx
    faae:	49 8d 5e 0b          	lea    0xb(%r14),%rbx
    fab2:	48 83 c0 08          	add    $0x8,%rax
    fab6:	48 89 95 78 01 00 00 	mov    %rdx,0x178(%rbp)
    fabd:	e9 e8 fd ff ff       	jmpq   f8aa <_Unwind_GetTextRelBase@@GCC_3.0+0xb3a>
    fac2:	66 0f 1f 44 00 00    	nopw   0x0(%rax,%rax,1)
    fac8:	0f b6 00             	movzbl (%rax),%eax
    facb:	c6 85 71 01 00 00 ff 	movb   $0xff,0x171(%rbp)
    fad2:	48 89 85 68 01 00 00 	mov    %rax,0x168(%rbp)
    fad9:	0f b6 13             	movzbl (%rbx),%edx
    fadc:	49 8d 41 02          	lea    0x2(%r9),%rax
    fae0:	80 fa 7a             	cmp    $0x7a,%dl
    fae3:	0f 85 8c fe ff ff    	jne    f975 <_Unwind_GetTextRelBase@@GCC_3.0+0xc05>
    fae9:	31 ff                	xor    %edi,%edi
    faeb:	31 c9                	xor    %ecx,%ecx
    faed:	0f 1f 00             	nopl   (%rax)
    faf0:	0f b6 30             	movzbl (%rax),%esi
    faf3:	48 83 c0 01          	add    $0x1,%rax
    faf7:	48 89 f2             	mov    %rsi,%rdx
    fafa:	83 e2 7f             	and    $0x7f,%edx
    fafd:	48 d3 e2             	shl    %cl,%rdx
    fb00:	83 c1 07             	add    $0x7,%ecx
    fb03:	48 09 d7             	or     %rdx,%rdi
    fb06:	40 84 f6             	test   %sil,%sil
    fb09:	78 e5                	js     faf0 <_Unwind_GetTextRelBase@@GCC_3.0+0xd80>
    fb0b:	c6 85 72 01 00 00 01 	movb   $0x1,0x172(%rbp)
    fb12:	0f b6 53 01          	movzbl 0x1(%rbx),%edx
    fb16:	4c 8d 3c 38          	lea    (%rax,%rdi,1),%r15
    fb1a:	48 8d 4b 01          	lea    0x1(%rbx),%rcx
    fb1e:	84 d2                	test   %dl,%dl
    fb20:	0f 84 c0 fe ff ff    	je     f9e6 <_Unwind_GetTextRelBase@@GCC_3.0+0xc76>
    fb26:	48 89 cb             	mov    %rcx,%rbx
    fb29:	e9 52 fe ff ff       	jmpq   f980 <_Unwind_GetTextRelBase@@GCC_3.0+0xc10>
    fb2e:	66 90                	xchg   %ax,%ax
    fb30:	0f b6 10             	movzbl (%rax),%edx
    fb33:	48 83 c0 01          	add    $0x1,%rax
    fb37:	88 95 70 01 00 00    	mov    %dl,0x170(%rbp)
    fb3d:	e9 72 fe ff ff       	jmpq   f9b4 <_Unwind_GetTextRelBase@@GCC_3.0+0xc44>
    fb42:	66 0f 1f 44 00 00    	nopw   0x0(%rax,%rax,1)
    fb48:	c6 85 73 01 00 00 01 	movb   $0x1,0x173(%rbp)
    fb4f:	e9 60 fe ff ff       	jmpq   f9b4 <_Unwind_GetTextRelBase@@GCC_3.0+0xc44>
    fb54:	0f 1f 40 00          	nopl   0x0(%rax)
    fb58:	0f b6 30             	movzbl (%rax),%esi
    fb5b:	48 8d 50 01          	lea    0x1(%rax),%rdx
    fb5f:	4c 89 e7             	mov    %r12,%rdi
    fb62:	48 89 4c 24 08       	mov    %rcx,0x8(%rsp)
    fb67:	e8 14 f2 ff ff       	callq  ed80 <_Unwind_GetTextRelBase@@GCC_3.0+0x10>
    fb6c:	48 8b 54 24 18       	mov    0x18(%rsp),%rdx
    fb71:	48 8b 4c 24 08       	mov    0x8(%rsp),%rcx
    fb76:	48 89 95 50 01 00 00 	mov    %rdx,0x150(%rbp)
    fb7d:	e9 32 fe ff ff       	jmpq   f9b4 <_Unwind_GetTextRelBase@@GCC_3.0+0xc44>
    fb82:	66 0f 1f 44 00 00    	nopw   0x0(%rax,%rax,1)
    fb88:	3c 04                	cmp    $0x4,%al
    fb8a:	0f 85 b4 3a ff ff    	jne    3644 <_Unwind_GetDataRelBase@plt+0x74>
    fb90:	ba 18 00 00 00       	mov    $0x18,%edx
    fb95:	e9 8f fe ff ff       	jmpq   fa29 <_Unwind_GetTextRelBase@@GCC_3.0+0xcb9>
    fb9a:	66 0f 1f 44 00 00    	nopw   0x0(%rax,%rax,1)
    fba0:	84 c0                	test   %al,%al
    fba2:	74 ec                	je     fb90 <_Unwind_GetTextRelBase@@GCC_3.0+0xe20>
    fba4:	e9 9b 3a ff ff       	jmpq   3644 <_Unwind_GetDataRelBase@plt+0x74>
    fba9:	0f 1f 80 00 00 00 00 	nopl   0x0(%rax)
    fbb0:	48 83 c4 28          	add    $0x28,%rsp
    fbb4:	b8 05 00 00 00       	mov    $0x5,%eax
    fbb9:	5b                   	pop    %rbx
    fbba:	5d                   	pop    %rbp
    fbbb:	41 5c                	pop    %r12
    fbbd:	41 5d                	pop    %r13
    fbbf:	41 5e                	pop    %r14
    fbc1:	41 5f                	pop    %r15
    fbc3:	c3                   	retq   
    fbc4:	0f 1f 40 00          	nopl   0x0(%rax)
    fbc8:	49 89 d6             	mov    %rdx,%r14
    fbcb:	41 80 f8 ff          	cmp    $0xff,%r8b
    fbcf:	0f 84 9c fe ff ff    	je     fa71 <_Unwind_GetTextRelBase@@GCC_3.0+0xd01>
    fbd5:	48 8d 4c 24 18       	lea    0x18(%rsp),%rcx
    fbda:	41 0f b6 f0          	movzbl %r8b,%esi
    fbde:	4c 89 e7             	mov    %r12,%rdi
    fbe1:	e8 9a f1 ff ff       	callq  ed80 <_Unwind_GetTextRelBase@@GCC_3.0+0x10>
    fbe6:	49 89 c6             	mov    %rax,%r14
    fbe9:	48 8b 44 24 18       	mov    0x18(%rsp),%rax
    fbee:	49 89 84 24 a0 00 00 	mov    %rax,0xa0(%r12)
    fbf5:	00 
    fbf6:	e9 76 fe ff ff       	jmpq   fa71 <_Unwind_GetTextRelBase@@GCC_3.0+0xd01>
    fbfb:	0f 1f 44 00 00       	nopl   0x0(%rax,%rax,1)
    fc00:	49 89 c7             	mov    %rax,%r15
    fc03:	4d 85 ff             	test   %r15,%r15
    fc06:	0f 85 da fd ff ff    	jne    f9e6 <_Unwind_GetTextRelBase@@GCC_3.0+0xc76>
    fc0c:	48 83 c4 28          	add    $0x28,%rsp
    fc10:	b8 03 00 00 00       	mov    $0x3,%eax
    fc15:	5b                   	pop    %rbx
    fc16:	5d                   	pop    %rbp
    fc17:	41 5c                	pop    %r12
    fc19:	41 5d                	pop    %r13
    fc1b:	41 5e                	pop    %r14
    fc1d:	41 5f                	pop    %r15
    fc1f:	c3                   	retq   
    fc20:	48 8d 4c 24 18       	lea    0x18(%rsp),%rcx
    fc25:	41 0f b6 f0          	movzbl %r8b,%esi
    fc29:	4c 89 e7             	mov    %r12,%rdi
    fc2c:	e8 4f f1 ff ff       	callq  ed80 <_Unwind_GetTextRelBase@@GCC_3.0+0x10>
    fc31:	48 8b 44 24 18       	mov    0x18(%rsp),%rax
    fc36:	49 89 84 24 a0 00 00 	mov    %rax,0xa0(%r12)
    fc3d:	00 
    fc3e:	e9 2e fe ff ff       	jmpq   fa71 <_Unwind_GetTextRelBase@@GCC_3.0+0xd01>
    fc43:	0f 1f 44 00 00       	nopl   0x0(%rax,%rax,1)
    fc48:	49 8b 84 24 98 00 00 	mov    0x98(%r12),%rax
    fc4f:	00 
    fc50:	80 38 48             	cmpb   $0x48,(%rax)
    fc53:	0f 85 57 ff ff ff    	jne    fbb0 <_Unwind_GetTextRelBase@@GCC_3.0+0xe40>
    fc59:	48 ba c7 c0 0f 00 00 	movabs $0x50f0000000fc0c7,%rdx
    fc60:	00 0f 05 
    fc63:	48 39 50 01          	cmp    %rdx,0x1(%rax)
    fc67:	0f 85 43 ff ff ff    	jne    fbb0 <_Unwind_GetTextRelBase@@GCC_3.0+0xe40>
    fc6d:	49 8b 84 24 90 00 00 	mov    0x90(%r12),%rax
    fc74:	00 
    fc75:	48 8b 90 a0 00 00 00 	mov    0xa0(%rax),%rdx
    fc7c:	48 8d b0 90 00 00 00 	lea    0x90(%rax),%rsi
    fc83:	c7 85 40 01 00 00 01 	movl   $0x1,0x140(%rbp)
    fc8a:	00 00 00 
    fc8d:	48 c7 85 30 01 00 00 	movq   $0x7,0x130(%rbp)
    fc94:	07 00 00 00 
    fc98:	48 89 d1             	mov    %rdx,%rcx
    fc9b:	48 29 d6             	sub    %rdx,%rsi
    fc9e:	c7 45 08 01 00 00 00 	movl   $0x1,0x8(%rbp)
    fca5:	48 29 c1             	sub    %rax,%rcx
    fca8:	48 89 75 00          	mov    %rsi,0x0(%rbp)
    fcac:	48 8d b0 88 00 00 00 	lea    0x88(%rax),%rsi
    fcb3:	48 89 8d 28 01 00 00 	mov    %rcx,0x128(%rbp)
    fcba:	48 8d 48 28          	lea    0x28(%rax),%rcx
    fcbe:	48 29 d6             	sub    %rdx,%rsi
    fcc1:	48 29 d1             	sub    %rdx,%rcx
    fcc4:	48 89 75 10          	mov    %rsi,0x10(%rbp)
    fcc8:	48 8d b0 98 00 00 00 	lea    0x98(%rax),%rsi
    fccf:	48 89 8d 80 00 00 00 	mov    %rcx,0x80(%rbp)
    fcd6:	48 8d 48 30          	lea    0x30(%rax),%rcx
    fcda:	48 29 d6             	sub    %rdx,%rsi
    fcdd:	48 29 d1             	sub    %rdx,%rcx
    fce0:	48 89 75 20          	mov    %rsi,0x20(%rbp)
    fce4:	48 8d b0 80 00 00 00 	lea    0x80(%rax),%rsi
    fceb:	48 89 8d 90 00 00 00 	mov    %rcx,0x90(%rbp)
    fcf2:	48 8d 48 38          	lea    0x38(%rax),%rcx
    fcf6:	48 29 d6             	sub    %rdx,%rsi
    fcf9:	48 29 d1             	sub    %rdx,%rcx
    fcfc:	48 89 75 30          	mov    %rsi,0x30(%rbp)
    fd00:	48 8d 70 70          	lea    0x70(%rax),%rsi
    fd04:	48 89 8d a0 00 00 00 	mov    %rcx,0xa0(%rbp)
    fd0b:	48 8d 48 40          	lea    0x40(%rax),%rcx
    fd0f:	48 29 d6             	sub    %rdx,%rsi
    fd12:	48 29 d1             	sub    %rdx,%rcx
    fd15:	48 89 75 40          	mov    %rsi,0x40(%rbp)
    fd19:	48 8d 70 68          	lea    0x68(%rax),%rsi
    fd1d:	48 89 8d b0 00 00 00 	mov    %rcx,0xb0(%rbp)
    fd24:	48 8d 48 48          	lea    0x48(%rax),%rcx
    fd28:	48 29 d6             	sub    %rdx,%rsi
    fd2b:	48 29 d1             	sub    %rdx,%rcx
    fd2e:	48 89 75 50          	mov    %rsi,0x50(%rbp)
    fd32:	48 8d 70 78          	lea    0x78(%rax),%rsi
    fd36:	48 89 8d c0 00 00 00 	mov    %rcx,0xc0(%rbp)
    fd3d:	48 8d 48 50          	lea    0x50(%rax),%rcx
    fd41:	48 29 d6             	sub    %rdx,%rsi
    fd44:	48 29 d1             	sub    %rdx,%rcx
    fd47:	c7 45 18 01 00 00 00 	movl   $0x1,0x18(%rbp)
    fd4e:	48 89 8d d0 00 00 00 	mov    %rcx,0xd0(%rbp)
    fd55:	48 8d 48 58          	lea    0x58(%rax),%rcx
    fd59:	48 29 d1             	sub    %rdx,%rcx
    fd5c:	c7 45 28 01 00 00 00 	movl   $0x1,0x28(%rbp)
    fd63:	c7 45 38 01 00 00 00 	movl   $0x1,0x38(%rbp)
    fd6a:	c7 45 48 01 00 00 00 	movl   $0x1,0x48(%rbp)
    fd71:	c7 45 58 01 00 00 00 	movl   $0x1,0x58(%rbp)
    fd78:	c7 45 68 01 00 00 00 	movl   $0x1,0x68(%rbp)
    fd7f:	48 89 75 60          	mov    %rsi,0x60(%rbp)
    fd83:	c7 85 88 00 00 00 01 	movl   $0x1,0x88(%rbp)
    fd8a:	00 00 00 
    fd8d:	c7 85 98 00 00 00 01 	movl   $0x1,0x98(%rbp)
    fd94:	00 00 00 
    fd97:	c7 85 a8 00 00 00 01 	movl   $0x1,0xa8(%rbp)
    fd9e:	00 00 00 
    fda1:	c7 85 b8 00 00 00 01 	movl   $0x1,0xb8(%rbp)
    fda8:	00 00 00 
    fdab:	c7 85 c8 00 00 00 01 	movl   $0x1,0xc8(%rbp)
    fdb2:	00 00 00 
    fdb5:	c7 85 d8 00 00 00 01 	movl   $0x1,0xd8(%rbp)
    fdbc:	00 00 00 
    fdbf:	c7 85 e8 00 00 00 01 	movl   $0x1,0xe8(%rbp)
    fdc6:	00 00 00 
    fdc9:	48 89 8d e0 00 00 00 	mov    %rcx,0xe0(%rbp)
    fdd0:	48 8d 48 60          	lea    0x60(%rax),%rcx
    fdd4:	48 05 a8 00 00 00    	add    $0xa8,%rax
    fdda:	48 29 d0             	sub    %rdx,%rax
    fddd:	48 29 d1             	sub    %rdx,%rcx
    fde0:	c7 85 f8 00 00 00 01 	movl   $0x1,0xf8(%rbp)
    fde7:	00 00 00 
    fdea:	48 89 85 00 01 00 00 	mov    %rax,0x100(%rbp)
    fdf1:	31 c0                	xor    %eax,%eax
    fdf3:	48 89 8d f0 00 00 00 	mov    %rcx,0xf0(%rbp)
    fdfa:	c7 85 08 01 00 00 01 	movl   $0x1,0x108(%rbp)
    fe01:	00 00 00 
    fe04:	48 c7 85 68 01 00 00 	movq   $0x10,0x168(%rbp)
    fe0b:	10 00 00 00 
    fe0f:	c6 85 73 01 00 00 01 	movb   $0x1,0x173(%rbp)
    fe16:	e9 6f fc ff ff       	jmpq   fa8a <_Unwind_GetTextRelBase@@GCC_3.0+0xd1a>
    fe1b:	0f 1f 44 00 00       	nopl   0x0(%rax,%rax,1)
    fe20:	ba 0c 00 00 00       	mov    $0xc,%edx
    fe25:	e9 ff fb ff ff       	jmpq   fa29 <_Unwind_GetTextRelBase@@GCC_3.0+0xcb9>
    fe2a:	66 0f 1f 44 00 00    	nopw   0x0(%rax,%rax,1)
    fe30:	ba 08 00 00 00       	mov    $0x8,%edx
    fe35:	e9 ef fb ff ff       	jmpq   fa29 <_Unwind_GetTextRelBase@@GCC_3.0+0xcb9>
    fe3a:	80 38 08             	cmpb   $0x8,(%rax)
    fe3d:	0f 85 c9 fd ff ff    	jne    fc0c <_Unwind_GetTextRelBase@@GCC_3.0+0xe9c>
    fe43:	80 78 01 00          	cmpb   $0x0,0x1(%rax)
    fe47:	0f 85 bf fd ff ff    	jne    fc0c <_Unwind_GetTextRelBase@@GCC_3.0+0xe9c>
    fe4d:	48 83 c0 02          	add    $0x2,%rax
    fe51:	e9 63 fa ff ff       	jmpq   f8b9 <_Unwind_GetTextRelBase@@GCC_3.0+0xb49>
    fe56:	49 89 c7             	mov    %rax,%r15
    fe59:	e9 88 fb ff ff       	jmpq   f9e6 <_Unwind_GetTextRelBase@@GCC_3.0+0xc76>
    fe5e:	66 90                	xchg   %ax,%ax
    fe60:	41 57                	push   %r15
    fe62:	41 56                	push   %r14
    fe64:	41 55                	push   %r13
    fe66:	41 54                	push   %r12
    fe68:	55                   	push   %rbp
    fe69:	53                   	push   %rbx
    fe6a:	48 81 ec 18 02 00 00 	sub    $0x218,%rsp
    fe71:	48 89 4c 24 10       	mov    %rcx,0x10(%rsp)
    fe76:	48 39 f7             	cmp    %rsi,%rdi
    fe79:	0f 83 e1 03 00 00    	jae    10260 <_Unwind_GetTextRelBase@@GCC_3.0+0x14f0>
    fe7f:	49 89 f4             	mov    %rsi,%r12
    fe82:	49 89 d7             	mov    %rdx,%r15
    fe85:	bb 01 00 00 00       	mov    $0x1,%ebx
    fe8a:	48 8d 2d 13 59 00 00 	lea    0x5913(%rip),%rbp        # 157a4 <__emutls_register_common@@GCC_4.3.0+0x1794>
    fe91:	4c 8d 2d c8 5c 00 00 	lea    0x5cc8(%rip),%r13        # 15b60 <__emutls_register_common@@GCC_4.3.0+0x1b50>
    fe98:	4c 8d 35 15 5d 00 00 	lea    0x5d15(%rip),%r14        # 15bb4 <__emutls_register_common@@GCC_4.3.0+0x1ba4>
    fe9f:	90                   	nop
    fea0:	0f b6 37             	movzbl (%rdi),%esi
    fea3:	4c 8d 47 01          	lea    0x1(%rdi),%r8
    fea7:	8d 46 fd             	lea    -0x3(%rsi),%eax
    feaa:	89 f2                	mov    %esi,%edx
    feac:	3c ee                	cmp    $0xee,%al
    feae:	0f 87 9a 37 ff ff    	ja     364e <_Unwind_GetDataRelBase@plt+0x7e>
    feb4:	0f b6 c0             	movzbl %al,%eax
    feb7:	48 63 44 85 00       	movslq 0x0(%rbp,%rax,4),%rax
    febc:	48 01 e8             	add    %rbp,%rax
    febf:	3e ff e0             	notrack jmpq *%rax
    fec2:	66 0f 1f 44 00 00    	nopw   0x0(%rax,%rax,1)
    fec8:	31 d2                	xor    %edx,%edx
    feca:	31 c9                	xor    %ecx,%ecx
    fecc:	41 0f b6 38          	movzbl (%r8),%edi
    fed0:	49 83 c0 01          	add    $0x1,%r8
    fed4:	48 89 f8             	mov    %rdi,%rax
    fed7:	83 e0 7f             	and    $0x7f,%eax
    feda:	48 d3 e0             	shl    %cl,%rax
    fedd:	83 c1 07             	add    $0x7,%ecx
    fee0:	48 09 c2             	or     %rax,%rdx
    fee3:	40 84 ff             	test   %dil,%dil
    fee6:	78 e4                	js     fecc <_Unwind_GetTextRelBase@@GCC_3.0+0x115c>
    fee8:	83 f9 3f             	cmp    $0x3f,%ecx
    feeb:	77 12                	ja     feff <_Unwind_GetTextRelBase@@GCC_3.0+0x118f>
    feed:	83 e7 40             	and    $0x40,%edi
    fef0:	74 0d                	je     feff <_Unwind_GetTextRelBase@@GCC_3.0+0x118f>
    fef2:	48 c7 c0 ff ff ff ff 	mov    $0xffffffffffffffff,%rax
    fef9:	48 d3 e0             	shl    %cl,%rax
    fefc:	48 09 c2             	or     %rax,%rdx
    feff:	83 ee 70             	sub    $0x70,%esi
    ff02:	83 fe 11             	cmp    $0x11,%esi
    ff05:	0f 8f 3e 37 ff ff    	jg     3649 <_Unwind_GetDataRelBase@plt+0x79>
    ff0b:	48 63 f6             	movslq %esi,%rsi
    ff0e:	4d 8b 0c f7          	mov    (%r15,%rsi,8),%r9
    ff12:	41 f6 87 c7 00 00 00 	testb  $0x40,0xc7(%r15)
    ff19:	40 
    ff1a:	74 0b                	je     ff27 <_Unwind_GetTextRelBase@@GCC_3.0+0x11b7>
    ff1c:	41 80 bc 37 d8 00 00 	cmpb   $0x0,0xd8(%r15,%rsi,1)
    ff23:	00 00 
    ff25:	75 14                	jne    ff3b <_Unwind_GetTextRelBase@@GCC_3.0+0x11cb>
    ff27:	48 8d 05 c2 a2 00 00 	lea    0xa2c2(%rip),%rax        # 1a1f0 <__cpu_model@GCC_4.8.0+0x20>
    ff2e:	80 3c 30 08          	cmpb   $0x8,(%rax,%rsi,1)
    ff32:	0f 85 11 37 ff ff    	jne    3649 <_Unwind_GetDataRelBase@plt+0x79>
    ff38:	4d 8b 09             	mov    (%r9),%r9
    ff3b:	49 01 d1             	add    %rdx,%r9
    ff3e:	89 de                	mov    %ebx,%esi
    ff40:	4c 89 c7             	mov    %r8,%rdi
    ff43:	eb 13                	jmp    ff58 <_Unwind_GetTextRelBase@@GCC_3.0+0x11e8>
    ff45:	0f 1f 00             	nopl   (%rax)
    ff48:	4c 8b 4f 01          	mov    0x1(%rdi),%r9
    ff4c:	89 de                	mov    %ebx,%esi
    ff4e:	48 83 c7 09          	add    $0x9,%rdi
    ff52:	66 0f 1f 44 00 00    	nopw   0x0(%rax,%rax,1)
    ff58:	83 fe 3f             	cmp    $0x3f,%esi
    ff5b:	0f 8f e8 36 ff ff    	jg     3649 <_Unwind_GetDataRelBase@plt+0x79>
    ff61:	8d 5e 01             	lea    0x1(%rsi),%ebx
    ff64:	48 63 f6             	movslq %esi,%rsi
    ff67:	4c 89 4c f4 10       	mov    %r9,0x10(%rsp,%rsi,8)
    ff6c:	49 39 fc             	cmp    %rdi,%r12
    ff6f:	0f 87 2b ff ff ff    	ja     fea0 <_Unwind_GetTextRelBase@@GCC_3.0+0x1130>
    ff75:	85 db                	test   %ebx,%ebx
    ff77:	0f 84 cc 36 ff ff    	je     3649 <_Unwind_GetDataRelBase@plt+0x79>
    ff7d:	83 eb 01             	sub    $0x1,%ebx
    ff80:	48 63 db             	movslq %ebx,%rbx
    ff83:	48 8b 44 dc 10       	mov    0x10(%rsp,%rbx,8),%rax
    ff88:	48 81 c4 18 02 00 00 	add    $0x218,%rsp
    ff8f:	5b                   	pop    %rbx
    ff90:	5d                   	pop    %rbp
    ff91:	41 5c                	pop    %r12
    ff93:	41 5d                	pop    %r13
    ff95:	41 5e                	pop    %r14
    ff97:	41 5f                	pop    %r15
    ff99:	c3                   	retq   
    ff9a:	66 0f 1f 44 00 00    	nopw   0x0(%rax,%rax,1)
    ffa0:	83 ee 50             	sub    $0x50,%esi
    ffa3:	83 fe 11             	cmp    $0x11,%esi
    ffa6:	0f 8f 9d 36 ff ff    	jg     3649 <_Unwind_GetDataRelBase@plt+0x79>
    ffac:	48 63 f6             	movslq %esi,%rsi
    ffaf:	4d 8b 0c f7          	mov    (%r15,%rsi,8),%r9
    ffb3:	41 f6 87 c7 00 00 00 	testb  $0x40,0xc7(%r15)
    ffba:	40 
    ffbb:	74 0b                	je     ffc8 <_Unwind_GetTextRelBase@@GCC_3.0+0x1258>
    ffbd:	41 80 bc 37 d8 00 00 	cmpb   $0x0,0xd8(%r15,%rsi,1)
    ffc4:	00 00 
    ffc6:	75 14                	jne    ffdc <_Unwind_GetTextRelBase@@GCC_3.0+0x126c>
    ffc8:	48 8d 05 21 a2 00 00 	lea    0xa221(%rip),%rax        # 1a1f0 <__cpu_model@GCC_4.8.0+0x20>
    ffcf:	80 3c 30 08          	cmpb   $0x8,(%rax,%rsi,1)
    ffd3:	0f 85 70 36 ff ff    	jne    3649 <_Unwind_GetDataRelBase@plt+0x79>
    ffd9:	4d 8b 09             	mov    (%r9),%r9
    ffdc:	89 de                	mov    %ebx,%esi
    ffde:	4c 89 c7             	mov    %r8,%rdi
    ffe1:	e9 72 ff ff ff       	jmpq   ff58 <_Unwind_GetTextRelBase@@GCC_3.0+0x11e8>
    ffe6:	66 2e 0f 1f 84 00 00 	nopw   %cs:0x0(%rax,%rax,1)
    ffed:	00 00 00 
    fff0:	44 8d 4e d0          	lea    -0x30(%rsi),%r9d
    fff4:	4c 89 c7             	mov    %r8,%rdi
    fff7:	89 de                	mov    %ebx,%esi
    fff9:	e9 5a ff ff ff       	jmpq   ff58 <_Unwind_GetTextRelBase@@GCC_3.0+0x11e8>
    fffe:	66 90                	xchg   %ax,%ax
   10000:	83 fb 01             	cmp    $0x1,%ebx
   10003:	0f 8e 40 36 ff ff    	jle    3649 <_Unwind_GetDataRelBase@plt+0x79>
   10009:	8d 73 fe             	lea    -0x2(%rbx),%esi
   1000c:	83 eb 01             	sub    $0x1,%ebx
   1000f:	83 ea 1a             	sub    $0x1a,%edx
   10012:	48 63 c6             	movslq %esi,%rax
   10015:	48 63 db             	movslq %ebx,%rbx
   10018:	4c 8b 4c c4 10       	mov    0x10(%rsp,%rax,8),%r9
   1001d:	48 8b 4c dc 10       	mov    0x10(%rsp,%rbx,8),%rcx
   10022:	80 fa 14             	cmp    $0x14,%dl
   10025:	0f 87 23 36 ff ff    	ja     364e <_Unwind_GetDataRelBase@plt+0x7e>
   1002b:	0f b6 d2             	movzbl %dl,%edx
   1002e:	49 63 44 95 00       	movslq 0x0(%r13,%rdx,4),%rax
   10033:	4c 01 e8             	add    %r13,%rax
   10036:	3e ff e0             	notrack jmpq *%rax
   10039:	0f 1f 80 00 00 00 00 	nopl   0x0(%rax)
   10040:	85 db                	test   %ebx,%ebx
   10042:	0f 84 01 36 ff ff    	je     3649 <_Unwind_GetDataRelBase@plt+0x79>
   10048:	8d 73 ff             	lea    -0x1(%rbx),%esi
   1004b:	48 63 c6             	movslq %esi,%rax
   1004e:	4c 8b 4c c4 10       	mov    0x10(%rsp,%rax,8),%r9
   10053:	80 fa 23             	cmp    $0x23,%dl
   10056:	0f 87 b9 01 00 00    	ja     10215 <_Unwind_GetTextRelBase@@GCC_3.0+0x14a5>
   1005c:	83 ea 06             	sub    $0x6,%edx
   1005f:	80 fa 1d             	cmp    $0x1d,%dl
   10062:	0f 87 e6 35 ff ff    	ja     364e <_Unwind_GetDataRelBase@plt+0x7e>
   10068:	0f b6 d2             	movzbl %dl,%edx
   1006b:	49 63 04 96          	movslq (%r14,%rdx,4),%rax
   1006f:	4c 01 f0             	add    %r14,%rax
   10072:	3e ff e0             	notrack jmpq *%rax
   10075:	48 0f bf 47 01       	movswq 0x1(%rdi),%rax
   1007a:	48 8d 7c 07 03       	lea    0x3(%rdi,%rax,1),%rdi
   1007f:	e9 e8 fe ff ff       	jmpq   ff6c <_Unwind_GetTextRelBase@@GCC_3.0+0x11fc>
   10084:	85 db                	test   %ebx,%ebx
   10086:	0f 84 bd 35 ff ff    	je     3649 <_Unwind_GetDataRelBase@plt+0x79>
   1008c:	83 eb 01             	sub    $0x1,%ebx
   1008f:	48 8d 57 03          	lea    0x3(%rdi),%rdx
   10093:	48 63 c3             	movslq %ebx,%rax
   10096:	48 83 7c c4 10 00    	cmpq   $0x0,0x10(%rsp,%rax,8)
   1009c:	0f 84 ae 01 00 00    	je     10250 <_Unwind_GetTextRelBase@@GCC_3.0+0x14e0>
   100a2:	48 0f bf 7f 01       	movswq 0x1(%rdi),%rdi
   100a7:	48 01 d7             	add    %rdx,%rdi
   100aa:	e9 bd fe ff ff       	jmpq   ff6c <_Unwind_GetTextRelBase@@GCC_3.0+0x11fc>
   100af:	83 fb 01             	cmp    $0x1,%ebx
   100b2:	0f 8e 91 35 ff ff    	jle    3649 <_Unwind_GetDataRelBase@plt+0x79>
   100b8:	8d 53 ff             	lea    -0x1(%rbx),%edx
   100bb:	8d 43 fe             	lea    -0x2(%rbx),%eax
   100be:	4c 89 c7             	mov    %r8,%rdi
   100c1:	48 63 d2             	movslq %edx,%rdx
   100c4:	48 98                	cltq   
   100c6:	48 8b 4c d4 10       	mov    0x10(%rsp,%rdx,8),%rcx
   100cb:	48 8b 74 c4 10       	mov    0x10(%rsp,%rax,8),%rsi
   100d0:	48 89 74 d4 10       	mov    %rsi,0x10(%rsp,%rdx,8)
   100d5:	48 89 4c c4 10       	mov    %rcx,0x10(%rsp,%rax,8)
   100da:	e9 8d fe ff ff       	jmpq   ff6c <_Unwind_GetTextRelBase@@GCC_3.0+0x11fc>
   100df:	8d 43 ff             	lea    -0x1(%rbx),%eax
   100e2:	0f b6 57 01          	movzbl 0x1(%rdi),%edx
   100e6:	48 8d 4f 02          	lea    0x2(%rdi),%rcx
   100ea:	48 98                	cltq   
   100ec:	48 39 c2             	cmp    %rax,%rdx
   100ef:	0f 8d 54 35 ff ff    	jge    3649 <_Unwind_GetDataRelBase@plt+0x79>
   100f5:	48 29 d0             	sub    %rdx,%rax
   100f8:	89 de                	mov    %ebx,%esi
   100fa:	48 89 cf             	mov    %rcx,%rdi
   100fd:	4c 8b 4c c4 10       	mov    0x10(%rsp,%rax,8),%r9
   10102:	e9 51 fe ff ff       	jmpq   ff58 <_Unwind_GetTextRelBase@@GCC_3.0+0x11e8>
   10107:	83 fb 01             	cmp    $0x1,%ebx
   1010a:	0f 8e 39 35 ff ff    	jle    3649 <_Unwind_GetDataRelBase@plt+0x79>
   10110:	8d 43 fe             	lea    -0x2(%rbx),%eax
   10113:	89 de                	mov    %ebx,%esi
   10115:	4c 89 c7             	mov    %r8,%rdi
   10118:	48 98                	cltq   
   1011a:	4c 8b 4c c4 10       	mov    0x10(%rsp,%rax,8),%r9
   1011f:	e9 34 fe ff ff       	jmpq   ff58 <_Unwind_GetTextRelBase@@GCC_3.0+0x11e8>
   10124:	85 db                	test   %ebx,%ebx
   10126:	0f 84 1d 35 ff ff    	je     3649 <_Unwind_GetDataRelBase@plt+0x79>
   1012c:	83 eb 01             	sub    $0x1,%ebx
   1012f:	4c 89 c7             	mov    %r8,%rdi
   10132:	e9 35 fe ff ff       	jmpq   ff6c <_Unwind_GetTextRelBase@@GCC_3.0+0x11fc>
   10137:	85 db                	test   %ebx,%ebx
   10139:	0f 84 0a 35 ff ff    	je     3649 <_Unwind_GetDataRelBase@plt+0x79>
   1013f:	8d 43 ff             	lea    -0x1(%rbx),%eax
   10142:	89 de                	mov    %ebx,%esi
   10144:	4c 89 c7             	mov    %r8,%rdi
   10147:	48 98                	cltq   
   10149:	4c 8b 4c c4 10       	mov    0x10(%rsp,%rax,8),%r9
   1014e:	e9 05 fe ff ff       	jmpq   ff58 <_Unwind_GetTextRelBase@@GCC_3.0+0x11e8>
   10153:	4c 63 4f 01          	movslq 0x1(%rdi),%r9
   10157:	89 de                	mov    %ebx,%esi
   10159:	48 83 c7 05          	add    $0x5,%rdi
   1015d:	e9 f6 fd ff ff       	jmpq   ff58 <_Unwind_GetTextRelBase@@GCC_3.0+0x11e8>
   10162:	44 8b 4f 01          	mov    0x1(%rdi),%r9d
   10166:	89 de                	mov    %ebx,%esi
   10168:	48 83 c7 05          	add    $0x5,%rdi
   1016c:	e9 e7 fd ff ff       	jmpq   ff58 <_Unwind_GetTextRelBase@@GCC_3.0+0x11e8>
   10171:	4c 0f bf 4f 01       	movswq 0x1(%rdi),%r9
   10176:	89 de                	mov    %ebx,%esi
   10178:	48 83 c7 03          	add    $0x3,%rdi
   1017c:	e9 d7 fd ff ff       	jmpq   ff58 <_Unwind_GetTextRelBase@@GCC_3.0+0x11e8>
   10181:	44 0f b7 4f 01       	movzwl 0x1(%rdi),%r9d
   10186:	89 de                	mov    %ebx,%esi
   10188:	48 83 c7 03          	add    $0x3,%rdi
   1018c:	e9 c7 fd ff ff       	jmpq   ff58 <_Unwind_GetTextRelBase@@GCC_3.0+0x11e8>
   10191:	4c 0f be 4f 01       	movsbq 0x1(%rdi),%r9
   10196:	89 de                	mov    %ebx,%esi
   10198:	48 83 c7 02          	add    $0x2,%rdi
   1019c:	e9 b7 fd ff ff       	jmpq   ff58 <_Unwind_GetTextRelBase@@GCC_3.0+0x11e8>
   101a1:	44 0f b6 4f 01       	movzbl 0x1(%rdi),%r9d
   101a6:	89 de                	mov    %ebx,%esi
   101a8:	48 83 c7 02          	add    $0x2,%rdi
   101ac:	e9 a7 fd ff ff       	jmpq   ff58 <_Unwind_GetTextRelBase@@GCC_3.0+0x11e8>
   101b1:	83 fb 02             	cmp    $0x2,%ebx
   101b4:	0f 8e 8f 34 ff ff    	jle    3649 <_Unwind_GetDataRelBase@plt+0x79>
   101ba:	8d 4b ff             	lea    -0x1(%rbx),%ecx
   101bd:	8d 53 fe             	lea    -0x2(%rbx),%edx
   101c0:	8d 43 fd             	lea    -0x3(%rbx),%eax
   101c3:	48 63 c9             	movslq %ecx,%rcx
   101c6:	48 63 d2             	movslq %edx,%rdx
   101c9:	48 98                	cltq   
   101cb:	48 8b 74 cc 10       	mov    0x10(%rsp,%rcx,8),%rsi
   101d0:	4c 8b 4c d4 10       	mov    0x10(%rsp,%rdx,8),%r9
   101d5:	48 8b 7c c4 10       	mov    0x10(%rsp,%rax,8),%rdi
   101da:	4c 89 4c cc 10       	mov    %r9,0x10(%rsp,%rcx,8)
   101df:	48 89 7c d4 10       	mov    %rdi,0x10(%rsp,%rdx,8)
   101e4:	4c 89 c7             	mov    %r8,%rdi
   101e7:	48 89 74 c4 10       	mov    %rsi,0x10(%rsp,%rax,8)
   101ec:	e9 7b fd ff ff       	jmpq   ff6c <_Unwind_GetTextRelBase@@GCC_3.0+0x11fc>
   101f1:	0f b6 77 01          	movzbl 0x1(%rdi),%esi
   101f5:	48 8d 57 02          	lea    0x2(%rdi),%rdx
   101f9:	48 8d 4c 24 08       	lea    0x8(%rsp),%rcx
   101fe:	4c 89 ff             	mov    %r15,%rdi
   10201:	e8 7a eb ff ff       	callq  ed80 <_Unwind_GetTextRelBase@@GCC_3.0+0x10>
   10206:	4c 8b 4c 24 08       	mov    0x8(%rsp),%r9
   1020b:	89 de                	mov    %ebx,%esi
   1020d:	48 89 c7             	mov    %rax,%rdi
   10210:	e9 43 fd ff ff       	jmpq   ff58 <_Unwind_GetTextRelBase@@GCC_3.0+0x11e8>
   10215:	80 fa 94             	cmp    $0x94,%dl
   10218:	0f 85 63 03 00 00    	jne    10581 <_Unwind_GetTextRelBase@@GCC_3.0+0x1811>
   1021e:	0f b6 47 01          	movzbl 0x1(%rdi),%eax
   10222:	48 8d 57 02          	lea    0x2(%rdi),%rdx
   10226:	3c 04                	cmp    $0x4,%al
   10228:	0f 84 bf 02 00 00    	je     104ed <_Unwind_GetTextRelBase@@GCC_3.0+0x177d>
   1022e:	0f 87 3e 03 00 00    	ja     10572 <_Unwind_GetTextRelBase@@GCC_3.0+0x1802>
   10234:	3c 01                	cmp    $0x1,%al
   10236:	0f 85 26 03 00 00    	jne    10562 <_Unwind_GetTextRelBase@@GCC_3.0+0x17f2>
   1023c:	45 0f b6 09          	movzbl (%r9),%r9d
   10240:	48 89 d7             	mov    %rdx,%rdi
   10243:	e9 10 fd ff ff       	jmpq   ff58 <_Unwind_GetTextRelBase@@GCC_3.0+0x11e8>
   10248:	0f 1f 84 00 00 00 00 	nopl   0x0(%rax,%rax,1)
   1024f:	00 
   10250:	48 89 d7             	mov    %rdx,%rdi
   10253:	e9 14 fd ff ff       	jmpq   ff6c <_Unwind_GetTextRelBase@@GCC_3.0+0x11fc>
   10258:	0f 1f 84 00 00 00 00 	nopl   0x0(%rax,%rax,1)
   1025f:	00 
   10260:	48 89 c8             	mov    %rcx,%rax
   10263:	e9 20 fd ff ff       	jmpq   ff88 <_Unwind_GetTextRelBase@@GCC_3.0+0x1218>
   10268:	4c 89 c7             	mov    %r8,%rdi
   1026b:	45 31 c9             	xor    %r9d,%r9d
   1026e:	31 c9                	xor    %ecx,%ecx
   10270:	0f b6 17             	movzbl (%rdi),%edx
   10273:	48 83 c7 01          	add    $0x1,%rdi
   10277:	48 89 d0             	mov    %rdx,%rax
   1027a:	83 e0 7f             	and    $0x7f,%eax
   1027d:	48 d3 e0             	shl    %cl,%rax
   10280:	83 c1 07             	add    $0x7,%ecx
   10283:	49 09 c1             	or     %rax,%r9
   10286:	84 d2                	test   %dl,%dl
   10288:	78 e6                	js     10270 <_Unwind_GetTextRelBase@@GCC_3.0+0x1500>
   1028a:	89 de                	mov    %ebx,%esi
   1028c:	e9 c7 fc ff ff       	jmpq   ff58 <_Unwind_GetTextRelBase@@GCC_3.0+0x11e8>
   10291:	4c 89 c7             	mov    %r8,%rdi
   10294:	e9 d3 fc ff ff       	jmpq   ff6c <_Unwind_GetTextRelBase@@GCC_3.0+0x11fc>
   10299:	4c 89 c7             	mov    %r8,%rdi
   1029c:	45 31 c9             	xor    %r9d,%r9d
   1029f:	31 c9                	xor    %ecx,%ecx
   102a1:	0f 1f 80 00 00 00 00 	nopl   0x0(%rax)
   102a8:	0f b6 17             	movzbl (%rdi),%edx
   102ab:	48 83 c7 01          	add    $0x1,%rdi
   102af:	48 89 d0             	mov    %rdx,%rax
   102b2:	83 e0 7f             	and    $0x7f,%eax
   102b5:	48 d3 e0             	shl    %cl,%rax
   102b8:	83 c1 07             	add    $0x7,%ecx
   102bb:	49 09 c1             	or     %rax,%r9
   102be:	84 d2                	test   %dl,%dl
   102c0:	78 e6                	js     102a8 <_Unwind_GetTextRelBase@@GCC_3.0+0x1538>
   102c2:	89 de                	mov    %ebx,%esi
   102c4:	83 f9 3f             	cmp    $0x3f,%ecx
   102c7:	0f 87 8b fc ff ff    	ja     ff58 <_Unwind_GetTextRelBase@@GCC_3.0+0x11e8>
   102cd:	83 e2 40             	and    $0x40,%edx
   102d0:	0f 84 82 fc ff ff    	je     ff58 <_Unwind_GetTextRelBase@@GCC_3.0+0x11e8>
   102d6:	48 c7 c0 ff ff ff ff 	mov    $0xffffffffffffffff,%rax
   102dd:	48 d3 e0             	shl    %cl,%rax
   102e0:	49 09 c1             	or     %rax,%r9
   102e3:	e9 70 fc ff ff       	jmpq   ff58 <_Unwind_GetTextRelBase@@GCC_3.0+0x11e8>
   102e8:	4c 89 c7             	mov    %r8,%rdi
   102eb:	31 f6                	xor    %esi,%esi
   102ed:	31 c9                	xor    %ecx,%ecx
   102ef:	90                   	nop
   102f0:	0f b6 17             	movzbl (%rdi),%edx
   102f3:	48 83 c7 01          	add    $0x1,%rdi
   102f7:	48 89 d0             	mov    %rdx,%rax
   102fa:	83 e0 7f             	and    $0x7f,%eax
   102fd:	48 d3 e0             	shl    %cl,%rax
   10300:	83 c1 07             	add    $0x7,%ecx
   10303:	48 09 c6             	or     %rax,%rsi
   10306:	84 d2                	test   %dl,%dl
   10308:	78 e6                	js     102f0 <_Unwind_GetTextRelBase@@GCC_3.0+0x1580>
   1030a:	45 31 c0             	xor    %r8d,%r8d
   1030d:	31 c9                	xor    %ecx,%ecx
   1030f:	90                   	nop
   10310:	0f b6 17             	movzbl (%rdi),%edx
   10313:	48 83 c7 01          	add    $0x1,%rdi
   10317:	48 89 d0             	mov    %rdx,%rax
   1031a:	83 e0 7f             	and    $0x7f,%eax
   1031d:	48 d3 e0             	shl    %cl,%rax
   10320:	83 c1 07             	add    $0x7,%ecx
   10323:	49 09 c0             	or     %rax,%r8
   10326:	84 d2                	test   %dl,%dl
   10328:	78 e6                	js     10310 <_Unwind_GetTextRelBase@@GCC_3.0+0x15a0>
   1032a:	83 f9 3f             	cmp    $0x3f,%ecx
   1032d:	77 12                	ja     10341 <_Unwind_GetTextRelBase@@GCC_3.0+0x15d1>
   1032f:	83 e2 40             	and    $0x40,%edx
   10332:	74 0d                	je     10341 <_Unwind_GetTextRelBase@@GCC_3.0+0x15d1>
   10334:	48 c7 c0 ff ff ff ff 	mov    $0xffffffffffffffff,%rax
   1033b:	48 d3 e0             	shl    %cl,%rax
   1033e:	49 09 c0             	or     %rax,%r8
   10341:	48 63 c6             	movslq %esi,%rax
   10344:	83 fe 11             	cmp    $0x11,%esi
   10347:	0f 8f fc 32 ff ff    	jg     3649 <_Unwind_GetDataRelBase@plt+0x79>
   1034d:	48 63 f6             	movslq %esi,%rsi
   10350:	4d 8b 0c f7          	mov    (%r15,%rsi,8),%r9
   10354:	41 f6 87 c7 00 00 00 	testb  $0x40,0xc7(%r15)
   1035b:	40 
   1035c:	74 0b                	je     10369 <_Unwind_GetTextRelBase@@GCC_3.0+0x15f9>
   1035e:	41 80 bc 37 d8 00 00 	cmpb   $0x0,0xd8(%r15,%rsi,1)
   10365:	00 00 
   10367:	75 14                	jne    1037d <_Unwind_GetTextRelBase@@GCC_3.0+0x160d>
   10369:	48 8d 15 80 9e 00 00 	lea    0x9e80(%rip),%rdx        # 1a1f0 <__cpu_model@GCC_4.8.0+0x20>
   10370:	80 3c 02 08          	cmpb   $0x8,(%rdx,%rax,1)
   10374:	0f 85 cf 32 ff ff    	jne    3649 <_Unwind_GetDataRelBase@plt+0x79>
   1037a:	4d 8b 09             	mov    (%r9),%r9
   1037d:	4d 01 c1             	add    %r8,%r9
   10380:	89 de                	mov    %ebx,%esi
   10382:	e9 d1 fb ff ff       	jmpq   ff58 <_Unwind_GetTextRelBase@@GCC_3.0+0x11e8>
   10387:	4c 89 c7             	mov    %r8,%rdi
   1038a:	31 f6                	xor    %esi,%esi
   1038c:	31 c9                	xor    %ecx,%ecx
   1038e:	66 90                	xchg   %ax,%ax
   10390:	0f b6 17             	movzbl (%rdi),%edx
   10393:	48 83 c7 01          	add    $0x1,%rdi
   10397:	48 89 d0             	mov    %rdx,%rax
   1039a:	83 e0 7f             	and    $0x7f,%eax
   1039d:	48 d3 e0             	shl    %cl,%rax
   103a0:	83 c1 07             	add    $0x7,%ecx
   103a3:	48 09 c6             	or     %rax,%rsi
   103a6:	84 d2                	test   %dl,%dl
   103a8:	78 e6                	js     10390 <_Unwind_GetTextRelBase@@GCC_3.0+0x1620>
   103aa:	48 63 d6             	movslq %esi,%rdx
   103ad:	83 fe 11             	cmp    $0x11,%esi
   103b0:	0f 8f 93 32 ff ff    	jg     3649 <_Unwind_GetDataRelBase@plt+0x79>
   103b6:	48 63 f6             	movslq %esi,%rsi
   103b9:	4d 8b 0c f7          	mov    (%r15,%rsi,8),%r9
   103bd:	41 f6 87 c7 00 00 00 	testb  $0x40,0xc7(%r15)
   103c4:	40 
   103c5:	74 0f                	je     103d6 <_Unwind_GetTextRelBase@@GCC_3.0+0x1666>
   103c7:	41 80 bc 37 d8 00 00 	cmpb   $0x0,0xd8(%r15,%rsi,1)
   103ce:	00 00 
   103d0:	0f 85 b4 fe ff ff    	jne    1028a <_Unwind_GetTextRelBase@@GCC_3.0+0x151a>
   103d6:	48 8d 05 13 9e 00 00 	lea    0x9e13(%rip),%rax        # 1a1f0 <__cpu_model@GCC_4.8.0+0x20>
   103dd:	80 3c 10 08          	cmpb   $0x8,(%rax,%rdx,1)
   103e1:	0f 85 62 32 ff ff    	jne    3649 <_Unwind_GetDataRelBase@plt+0x79>
   103e7:	4d 8b 09             	mov    (%r9),%r9
   103ea:	89 de                	mov    %ebx,%esi
   103ec:	e9 67 fb ff ff       	jmpq   ff58 <_Unwind_GetTextRelBase@@GCC_3.0+0x11e8>
   103f1:	49 39 c9             	cmp    %rcx,%r9
   103f4:	4c 89 c7             	mov    %r8,%rdi
   103f7:	41 0f 9e c1          	setle  %r9b
   103fb:	45 0f b6 c9          	movzbl %r9b,%r9d
   103ff:	e9 54 fb ff ff       	jmpq   ff58 <_Unwind_GetTextRelBase@@GCC_3.0+0x11e8>
   10404:	49 39 c9             	cmp    %rcx,%r9
   10407:	4c 89 c7             	mov    %r8,%rdi
   1040a:	41 0f 9c c1          	setl   %r9b
   1040e:	45 0f b6 c9          	movzbl %r9b,%r9d
   10412:	e9 41 fb ff ff       	jmpq   ff58 <_Unwind_GetTextRelBase@@GCC_3.0+0x11e8>
   10417:	49 01 c9             	add    %rcx,%r9
   1041a:	4c 89 c7             	mov    %r8,%rdi
   1041d:	e9 36 fb ff ff       	jmpq   ff58 <_Unwind_GetTextRelBase@@GCC_3.0+0x11e8>
   10422:	49 d3 e1             	shl    %cl,%r9
   10425:	4c 89 c7             	mov    %r8,%rdi
   10428:	e9 2b fb ff ff       	jmpq   ff58 <_Unwind_GetTextRelBase@@GCC_3.0+0x11e8>
   1042d:	49 d3 e9             	shr    %cl,%r9
   10430:	4c 89 c7             	mov    %r8,%rdi
   10433:	e9 20 fb ff ff       	jmpq   ff58 <_Unwind_GetTextRelBase@@GCC_3.0+0x11e8>
   10438:	49 d3 f9             	sar    %cl,%r9
   1043b:	4c 89 c7             	mov    %r8,%rdi
   1043e:	e9 15 fb ff ff       	jmpq   ff58 <_Unwind_GetTextRelBase@@GCC_3.0+0x11e8>
   10443:	49 31 c9             	xor    %rcx,%r9
   10446:	4c 89 c7             	mov    %r8,%rdi
   10449:	e9 0a fb ff ff       	jmpq   ff58 <_Unwind_GetTextRelBase@@GCC_3.0+0x11e8>
   1044e:	49 39 c9             	cmp    %rcx,%r9
   10451:	4c 89 c7             	mov    %r8,%rdi
   10454:	41 0f 94 c1          	sete   %r9b
   10458:	45 0f b6 c9          	movzbl %r9b,%r9d
   1045c:	e9 f7 fa ff ff       	jmpq   ff58 <_Unwind_GetTextRelBase@@GCC_3.0+0x11e8>
   10461:	49 39 c9             	cmp    %rcx,%r9
   10464:	4c 89 c7             	mov    %r8,%rdi
   10467:	41 0f 9d c1          	setge  %r9b
   1046b:	45 0f b6 c9          	movzbl %r9b,%r9d
   1046f:	e9 e4 fa ff ff       	jmpq   ff58 <_Unwind_GetTextRelBase@@GCC_3.0+0x11e8>
   10474:	49 39 c9             	cmp    %rcx,%r9
   10477:	4c 89 c7             	mov    %r8,%rdi
   1047a:	41 0f 9f c1          	setg   %r9b
   1047e:	45 0f b6 c9          	movzbl %r9b,%r9d
   10482:	e9 d1 fa ff ff       	jmpq   ff58 <_Unwind_GetTextRelBase@@GCC_3.0+0x11e8>
   10487:	49 21 c9             	and    %rcx,%r9
   1048a:	4c 89 c7             	mov    %r8,%rdi
   1048d:	e9 c6 fa ff ff       	jmpq   ff58 <_Unwind_GetTextRelBase@@GCC_3.0+0x11e8>
   10492:	4c 89 c8             	mov    %r9,%rax
   10495:	4c 89 c7             	mov    %r8,%rdi
   10498:	48 99                	cqto   
   1049a:	48 f7 f9             	idiv   %rcx
   1049d:	49 89 c1             	mov    %rax,%r9
   104a0:	e9 b3 fa ff ff       	jmpq   ff58 <_Unwind_GetTextRelBase@@GCC_3.0+0x11e8>
   104a5:	49 29 c9             	sub    %rcx,%r9
   104a8:	4c 89 c7             	mov    %r8,%rdi
   104ab:	e9 a8 fa ff ff       	jmpq   ff58 <_Unwind_GetTextRelBase@@GCC_3.0+0x11e8>
   104b0:	4c 89 c8             	mov    %r9,%rax
   104b3:	31 d2                	xor    %edx,%edx
   104b5:	4c 89 c7             	mov    %r8,%rdi
   104b8:	48 f7 f1             	div    %rcx
   104bb:	49 89 d1             	mov    %rdx,%r9
   104be:	e9 95 fa ff ff       	jmpq   ff58 <_Unwind_GetTextRelBase@@GCC_3.0+0x11e8>
   104c3:	4c 0f af c9          	imul   %rcx,%r9
   104c7:	4c 89 c7             	mov    %r8,%rdi
   104ca:	e9 89 fa ff ff       	jmpq   ff58 <_Unwind_GetTextRelBase@@GCC_3.0+0x11e8>
   104cf:	49 09 c9             	or     %rcx,%r9
   104d2:	4c 89 c7             	mov    %r8,%rdi
   104d5:	e9 7e fa ff ff       	jmpq   ff58 <_Unwind_GetTextRelBase@@GCC_3.0+0x11e8>
   104da:	49 39 c9             	cmp    %rcx,%r9
   104dd:	4c 89 c7             	mov    %r8,%rdi
   104e0:	41 0f 95 c1          	setne  %r9b
   104e4:	45 0f b6 c9          	movzbl %r9b,%r9d
   104e8:	e9 6b fa ff ff       	jmpq   ff58 <_Unwind_GetTextRelBase@@GCC_3.0+0x11e8>
   104ed:	45 8b 09             	mov    (%r9),%r9d
   104f0:	48 89 d7             	mov    %rdx,%rdi
   104f3:	e9 60 fa ff ff       	jmpq   ff58 <_Unwind_GetTextRelBase@@GCC_3.0+0x11e8>
   104f8:	49 f7 d1             	not    %r9
   104fb:	4c 89 c7             	mov    %r8,%rdi
   104fe:	e9 55 fa ff ff       	jmpq   ff58 <_Unwind_GetTextRelBase@@GCC_3.0+0x11e8>
   10503:	49 f7 d9             	neg    %r9
   10506:	4c 89 c7             	mov    %r8,%rdi
   10509:	e9 4a fa ff ff       	jmpq   ff58 <_Unwind_GetTextRelBase@@GCC_3.0+0x11e8>
   1050e:	4c 89 c8             	mov    %r9,%rax
   10511:	4c 89 c7             	mov    %r8,%rdi
   10514:	48 c1 f8 3f          	sar    $0x3f,%rax
   10518:	49 31 c1             	xor    %rax,%r9
   1051b:	49 29 c1             	sub    %rax,%r9
   1051e:	e9 35 fa ff ff       	jmpq   ff58 <_Unwind_GetTextRelBase@@GCC_3.0+0x11e8>
   10523:	4d 8b 09             	mov    (%r9),%r9
   10526:	4c 89 c7             	mov    %r8,%rdi
   10529:	e9 2a fa ff ff       	jmpq   ff58 <_Unwind_GetTextRelBase@@GCC_3.0+0x11e8>
   1052e:	4c 89 c7             	mov    %r8,%rdi
   10531:	31 c9                	xor    %ecx,%ecx
   10533:	45 31 c0             	xor    %r8d,%r8d
   10536:	66 2e 0f 1f 84 00 00 	nopw   %cs:0x0(%rax,%rax,1)
   1053d:	00 00 00 
   10540:	0f b6 17             	movzbl (%rdi),%edx
   10543:	48 83 c7 01          	add    $0x1,%rdi
   10547:	48 89 d0             	mov    %rdx,%rax
   1054a:	83 e0 7f             	and    $0x7f,%eax
   1054d:	48 d3 e0             	shl    %cl,%rax
   10550:	83 c1 07             	add    $0x7,%ecx
   10553:	49 09 c0             	or     %rax,%r8
   10556:	84 d2                	test   %dl,%dl
   10558:	78 e6                	js     10540 <_Unwind_GetTextRelBase@@GCC_3.0+0x17d0>
   1055a:	4d 01 c1             	add    %r8,%r9
   1055d:	e9 f6 f9 ff ff       	jmpq   ff58 <_Unwind_GetTextRelBase@@GCC_3.0+0x11e8>
   10562:	3c 02                	cmp    $0x2,%al
   10564:	75 20                	jne    10586 <_Unwind_GetTextRelBase@@GCC_3.0+0x1816>
   10566:	45 0f b7 09          	movzwl (%r9),%r9d
   1056a:	48 89 d7             	mov    %rdx,%rdi
   1056d:	e9 e6 f9 ff ff       	jmpq   ff58 <_Unwind_GetTextRelBase@@GCC_3.0+0x11e8>
   10572:	3c 08                	cmp    $0x8,%al
   10574:	75 15                	jne    1058b <_Unwind_GetTextRelBase@@GCC_3.0+0x181b>
   10576:	4d 8b 09             	mov    (%r9),%r9
   10579:	48 89 d7             	mov    %rdx,%rdi
   1057c:	e9 d7 f9 ff ff       	jmpq   ff58 <_Unwind_GetTextRelBase@@GCC_3.0+0x11e8>
   10581:	e9 c8 30 ff ff       	jmpq   364e <_Unwind_GetDataRelBase@plt+0x7e>
   10586:	e9 c3 30 ff ff       	jmpq   364e <_Unwind_GetDataRelBase@plt+0x7e>
   1058b:	e9 be 30 ff ff       	jmpq   364e <_Unwind_GetDataRelBase@plt+0x7e>
   10590:	41 57                	push   %r15
   10592:	41 56                	push   %r14
   10594:	49 89 fe             	mov    %rdi,%r14
   10597:	41 55                	push   %r13
   10599:	41 54                	push   %r12
   1059b:	55                   	push   %rbp
   1059c:	53                   	push   %rbx
   1059d:	48 81 ec 38 01 00 00 	sub    $0x138,%rsp
   105a4:	f3 0f 6f 07          	movdqu (%rdi),%xmm0
   105a8:	f3 0f 6f 4f 10       	movdqu 0x10(%rdi),%xmm1
   105ad:	f3 0f 6f 57 20       	movdqu 0x20(%rdi),%xmm2
   105b2:	f3 0f 6f 5f 30       	movdqu 0x30(%rdi),%xmm3
   105b7:	48 89 74 24 20       	mov    %rsi,0x20(%rsp)
   105bc:	f3 0f 6f 67 40       	movdqu 0x40(%rdi),%xmm4
   105c1:	f3 0f 6f 6f 50       	movdqu 0x50(%rdi),%xmm5
   105c6:	0f 11 44 24 40       	movups %xmm0,0x40(%rsp)
   105cb:	f3 0f 6f 77 60       	movdqu 0x60(%rdi),%xmm6
   105d0:	f3 0f 6f 7f 70       	movdqu 0x70(%rdi),%xmm7
   105d5:	0f 11 4c 24 50       	movups %xmm1,0x50(%rsp)
   105da:	f3 0f 6f 87 80 00 00 	movdqu 0x80(%rdi),%xmm0
   105e1:	00 
   105e2:	f3 0f 6f 8f 90 00 00 	movdqu 0x90(%rdi),%xmm1
   105e9:	00 
   105ea:	0f 11 54 24 60       	movups %xmm2,0x60(%rsp)
   105ef:	0f 11 5c 24 70       	movups %xmm3,0x70(%rsp)
   105f4:	f3 0f 6f 97 a0 00 00 	movdqu 0xa0(%rdi),%xmm2
   105fb:	00 
   105fc:	f3 0f 6f 9f b0 00 00 	movdqu 0xb0(%rdi),%xmm3
   10603:	00 
   10604:	0f 11 a4 24 80 00 00 	movups %xmm4,0x80(%rsp)
   1060b:	00 
   1060c:	0f 11 ac 24 90 00 00 	movups %xmm5,0x90(%rsp)
   10613:	00 
   10614:	0f 11 b4 24 a0 00 00 	movups %xmm6,0xa0(%rsp)
   1061b:	00 
   1061c:	0f 11 bc 24 b0 00 00 	movups %xmm7,0xb0(%rsp)
   10623:	00 
   10624:	0f 11 84 24 c0 00 00 	movups %xmm0,0xc0(%rsp)
   1062b:	00 
   1062c:	0f 11 8c 24 d0 00 00 	movups %xmm1,0xd0(%rsp)
   10633:	00 
   10634:	0f 11 94 24 e0 00 00 	movups %xmm2,0xe0(%rsp)
   1063b:	00 
   1063c:	0f 11 9c 24 f0 00 00 	movups %xmm3,0xf0(%rsp)
   10643:	00 
   10644:	48 8b 87 c0 00 00 00 	mov    0xc0(%rdi),%rax
   1064b:	f3 0f 6f a7 c0 00 00 	movdqu 0xc0(%rdi),%xmm4
   10652:	00 
   10653:	f3 0f 6f af d0 00 00 	movdqu 0xd0(%rdi),%xmm5
   1065a:	00 
   1065b:	f3 0f 6f b7 e0 00 00 	movdqu 0xe0(%rdi),%xmm6
   10662:	00 
   10663:	48 0f ba e0 3e       	bt     $0x3e,%rax
   10668:	0f 11 a4 24 00 01 00 	movups %xmm4,0x100(%rsp)
   1066f:	00 
   10670:	0f 11 ac 24 10 01 00 	movups %xmm5,0x110(%rsp)
   10677:	00 
   10678:	0f 11 b4 24 20 01 00 	movups %xmm6,0x120(%rsp)
   1067f:	00 
   10680:	73 0a                	jae    1068c <_Unwind_GetTextRelBase@@GCC_3.0+0x191c>
   10682:	80 bc 24 1f 01 00 00 	cmpb   $0x0,0x11f(%rsp)
   10689:	00 
   1068a:	75 0c                	jne    10698 <_Unwind_GetTextRelBase@@GCC_3.0+0x1928>
   1068c:	48 83 7c 24 78 00    	cmpq   $0x0,0x78(%rsp)
   10692:	0f 84 f9 02 00 00    	je     10991 <_Unwind_GetTextRelBase@@GCC_3.0+0x1c21>
   10698:	41 f6 86 c7 00 00 00 	testb  $0x40,0xc7(%r14)
   1069f:	40 
   106a0:	74 08                	je     106aa <_Unwind_GetTextRelBase@@GCC_3.0+0x193a>
   106a2:	41 c6 86 df 00 00 00 	movb   $0x0,0xdf(%r14)
   106a9:	00 
   106aa:	48 8b 44 24 20       	mov    0x20(%rsp),%rax
   106af:	49 c7 46 38 00 00 00 	movq   $0x0,0x38(%r14)
   106b6:	00 
   106b7:	8b 80 40 01 00 00    	mov    0x140(%rax),%eax
   106bd:	83 f8 01             	cmp    $0x1,%eax
   106c0:	75 5e                	jne    10720 <_Unwind_GetTextRelBase@@GCC_3.0+0x19b0>
   106c2:	48 8b 44 24 20       	mov    0x20(%rsp),%rax
   106c7:	48 8b 90 30 01 00 00 	mov    0x130(%rax),%rdx
   106ce:	83 fa 11             	cmp    $0x11,%edx
   106d1:	0f 8f 7c 2f ff ff    	jg     3653 <_Unwind_GetDataRelBase@plt+0x83>
   106d7:	48 63 d2             	movslq %edx,%rdx
   106da:	48 8d 05 0f 9b 00 00 	lea    0x9b0f(%rip),%rax        # 1a1f0 <__cpu_model@GCC_4.8.0+0x20>
   106e1:	4c 8b 5c d4 40       	mov    0x40(%rsp,%rdx,8),%r11
   106e6:	f6 84 24 07 01 00 00 	testb  $0x40,0x107(%rsp)
   106ed:	40 
   106ee:	74 0e                	je     106fe <_Unwind_GetTextRelBase@@GCC_3.0+0x198e>
   106f0:	80 bc 14 18 01 00 00 	cmpb   $0x0,0x118(%rsp,%rdx,1)
   106f7:	00 
   106f8:	0f 85 89 02 00 00    	jne    10987 <_Unwind_GetTextRelBase@@GCC_3.0+0x1c17>
   106fe:	80 3c 10 08          	cmpb   $0x8,(%rax,%rdx,1)
   10702:	48 89 44 24 28       	mov    %rax,0x28(%rsp)
   10707:	0f 85 46 2f ff ff    	jne    3653 <_Unwind_GetDataRelBase@plt+0x83>
   1070d:	4d 8b 1b             	mov    (%r11),%r11
   10710:	48 8b 44 24 20       	mov    0x20(%rsp),%rax
   10715:	4c 03 98 28 01 00 00 	add    0x128(%rax),%r11
   1071c:	eb 5a                	jmp    10778 <_Unwind_GetTextRelBase@@GCC_3.0+0x1a08>
   1071e:	66 90                	xchg   %ax,%ax
   10720:	83 f8 02             	cmp    $0x2,%eax
   10723:	0f 85 a2 02 00 00    	jne    109cb <_Unwind_GetTextRelBase@@GCC_3.0+0x1c5b>
   10729:	48 8b 44 24 20       	mov    0x20(%rsp),%rax
   1072e:	31 f6                	xor    %esi,%esi
   10730:	31 c9                	xor    %ecx,%ecx
   10732:	48 8b b8 38 01 00 00 	mov    0x138(%rax),%rdi
   10739:	0f 1f 80 00 00 00 00 	nopl   0x0(%rax)
   10740:	0f b6 17             	movzbl (%rdi),%edx
   10743:	48 83 c7 01          	add    $0x1,%rdi
   10747:	48 89 d0             	mov    %rdx,%rax
   1074a:	83 e0 7f             	and    $0x7f,%eax
   1074d:	48 d3 e0             	shl    %cl,%rax
   10750:	83 c1 07             	add    $0x7,%ecx
   10753:	48 09 c6             	or     %rax,%rsi
   10756:	84 d2                	test   %dl,%dl
   10758:	78 e6                	js     10740 <_Unwind_GetTextRelBase@@GCC_3.0+0x19d0>
   1075a:	48 8d 54 24 40       	lea    0x40(%rsp),%rdx
   1075f:	48 01 fe             	add    %rdi,%rsi
   10762:	31 c9                	xor    %ecx,%ecx
   10764:	e8 f7 f6 ff ff       	callq  fe60 <_Unwind_GetTextRelBase@@GCC_3.0+0x10f0>
   10769:	49 89 c3             	mov    %rax,%r11
   1076c:	48 8d 05 7d 9a 00 00 	lea    0x9a7d(%rip),%rax        # 1a1f0 <__cpu_model@GCC_4.8.0+0x20>
   10773:	48 89 44 24 28       	mov    %rax,0x28(%rsp)
   10778:	48 8d 44 24 40       	lea    0x40(%rsp),%rax
   1077d:	4c 8d 2d 6c 9a 00 00 	lea    0x9a6c(%rip),%r13        # 1a1f0 <__cpu_model@GCC_4.8.0+0x20>
   10784:	4d 89 dc             	mov    %r11,%r12
   10787:	48 8b 5c 24 20       	mov    0x20(%rsp),%rbx
   1078c:	48 89 44 24 10       	mov    %rax,0x10(%rsp)
   10791:	4d 8d 96 ea 00 00 00 	lea    0xea(%r14),%r10
   10798:	4d 89 e8             	mov    %r13,%r8
   1079b:	49 8d ae d8 00 00 00 	lea    0xd8(%r14),%rbp
   107a2:	4c 89 74 24 08       	mov    %r14,0x8(%rsp)
   107a7:	4d 89 f5             	mov    %r14,%r13
   107aa:	4c 8d 3d 7b 54 00 00 	lea    0x547b(%rip),%r15        # 15c2c <__emutls_register_common@@GCC_4.3.0+0x1c1c>
   107b1:	4d 89 9e 90 00 00 00 	mov    %r11,0x90(%r14)
   107b8:	4d 89 d6             	mov    %r10,%r14
   107bb:	0f 1f 44 00 00       	nopl   0x0(%rax,%rax,1)
   107c0:	83 7b 08 05          	cmpl   $0x5,0x8(%rbx)
   107c4:	77 72                	ja     10838 <_Unwind_GetTextRelBase@@GCC_3.0+0x1ac8>
   107c6:	8b 43 08             	mov    0x8(%rbx),%eax
   107c9:	49 63 04 87          	movslq (%r15,%rax,4),%rax
   107cd:	4c 01 f8             	add    %r15,%rax
   107d0:	3e ff e0             	notrack jmpq *%rax
   107d3:	0f 1f 44 00 00       	nopl   0x0(%rax,%rax,1)
   107d8:	48 8b 3b             	mov    (%rbx),%rdi
   107db:	31 f6                	xor    %esi,%esi
   107dd:	31 c9                	xor    %ecx,%ecx
   107df:	90                   	nop
   107e0:	0f b6 17             	movzbl (%rdi),%edx
   107e3:	48 83 c7 01          	add    $0x1,%rdi
   107e7:	48 89 d0             	mov    %rdx,%rax
   107ea:	83 e0 7f             	and    $0x7f,%eax
   107ed:	48 d3 e0             	shl    %cl,%rax
   107f0:	83 c1 07             	add    $0x7,%ecx
   107f3:	48 09 c6             	or     %rax,%rsi
   107f6:	84 d2                	test   %dl,%dl
   107f8:	78 e6                	js     107e0 <_Unwind_GetTextRelBase@@GCC_3.0+0x1a70>
   107fa:	48 8b 54 24 10       	mov    0x10(%rsp),%rdx
   107ff:	48 01 fe             	add    %rdi,%rsi
   10802:	4c 89 e1             	mov    %r12,%rcx
   10805:	4c 89 44 24 18       	mov    %r8,0x18(%rsp)
   1080a:	e8 51 f6 ff ff       	callq  fe60 <_Unwind_GetTextRelBase@@GCC_3.0+0x10f0>
   1080f:	4c 8b 44 24 18       	mov    0x18(%rsp),%r8
   10814:	41 80 38 08          	cmpb   $0x8,(%r8)
   10818:	76 16                	jbe    10830 <_Unwind_GetTextRelBase@@GCC_3.0+0x1ac0>
   1081a:	e9 34 2e ff ff       	jmpq   3653 <_Unwind_GetDataRelBase@plt+0x83>
   1081f:	90                   	nop
   10820:	48 8b 03             	mov    (%rbx),%rax
   10823:	4c 01 e0             	add    %r12,%rax
   10826:	41 80 38 08          	cmpb   $0x8,(%r8)
   1082a:	0f 87 23 2e ff ff    	ja     3653 <_Unwind_GetDataRelBase@plt+0x83>
   10830:	c6 45 00 01          	movb   $0x1,0x0(%rbp)
   10834:	49 89 45 00          	mov    %rax,0x0(%r13)
   10838:	48 83 c5 01          	add    $0x1,%rbp
   1083c:	48 83 c3 10          	add    $0x10,%rbx
   10840:	49 83 c5 08          	add    $0x8,%r13
   10844:	49 83 c0 01          	add    $0x1,%r8
   10848:	49 39 ee             	cmp    %rbp,%r14
   1084b:	0f 85 6f ff ff ff    	jne    107c0 <_Unwind_GetTextRelBase@@GCC_3.0+0x1a50>
   10851:	4c 8b 74 24 08       	mov    0x8(%rsp),%r14
   10856:	48 8b 5c 24 20       	mov    0x20(%rsp),%rbx
   1085b:	49 8b 96 c0 00 00 00 	mov    0xc0(%r14),%rdx
   10862:	48 89 d0             	mov    %rdx,%rax
   10865:	48 0f ba f0 3f       	btr    $0x3f,%rax
   1086a:	80 bb 73 01 00 00 00 	cmpb   $0x0,0x173(%rbx)
   10871:	74 08                	je     1087b <_Unwind_GetTextRelBase@@GCC_3.0+0x1b0b>
   10873:	48 89 d0             	mov    %rdx,%rax
   10876:	48 0f ba e8 3f       	bts    $0x3f,%rax
   1087b:	49 89 86 c0 00 00 00 	mov    %rax,0xc0(%r14)
   10882:	48 81 c4 38 01 00 00 	add    $0x138,%rsp
   10889:	5b                   	pop    %rbx
   1088a:	5d                   	pop    %rbp
   1088b:	41 5c                	pop    %r12
   1088d:	41 5d                	pop    %r13
   1088f:	41 5e                	pop    %r14
   10891:	41 5f                	pop    %r15
   10893:	c3                   	retq   
   10894:	0f 1f 40 00          	nopl   0x0(%rax)
   10898:	48 8b 3b             	mov    (%rbx),%rdi
   1089b:	31 f6                	xor    %esi,%esi
   1089d:	31 c9                	xor    %ecx,%ecx
   1089f:	90                   	nop
   108a0:	0f b6 17             	movzbl (%rdi),%edx
   108a3:	48 83 c7 01          	add    $0x1,%rdi
   108a7:	48 89 d0             	mov    %rdx,%rax
   108aa:	83 e0 7f             	and    $0x7f,%eax
   108ad:	48 d3 e0             	shl    %cl,%rax
   108b0:	83 c1 07             	add    $0x7,%ecx
   108b3:	48 09 c6             	or     %rax,%rsi
   108b6:	84 d2                	test   %dl,%dl
   108b8:	78 e6                	js     108a0 <_Unwind_GetTextRelBase@@GCC_3.0+0x1b30>
   108ba:	48 8b 54 24 10       	mov    0x10(%rsp),%rdx
   108bf:	48 01 fe             	add    %rdi,%rsi
   108c2:	4c 89 e1             	mov    %r12,%rcx
   108c5:	4c 89 44 24 18       	mov    %r8,0x18(%rsp)
   108ca:	e8 91 f5 ff ff       	callq  fe60 <_Unwind_GetTextRelBase@@GCC_3.0+0x10f0>
   108cf:	48 8b 74 24 08       	mov    0x8(%rsp),%rsi
   108d4:	4c 8b 44 24 18       	mov    0x18(%rsp),%r8
   108d9:	f6 86 c7 00 00 00 40 	testb  $0x40,0xc7(%rsi)
   108e0:	0f 84 4e ff ff ff    	je     10834 <_Unwind_GetTextRelBase@@GCC_3.0+0x1ac4>
   108e6:	eb 20                	jmp    10908 <_Unwind_GetTextRelBase@@GCC_3.0+0x1b98>
   108e8:	0f 1f 84 00 00 00 00 	nopl   0x0(%rax,%rax,1)
   108ef:	00 
   108f0:	48 8b 03             	mov    (%rbx),%rax
   108f3:	48 8b 74 24 08       	mov    0x8(%rsp),%rsi
   108f8:	4c 01 e0             	add    %r12,%rax
   108fb:	f6 86 c7 00 00 00 40 	testb  $0x40,0xc7(%rsi)
   10902:	0f 84 2c ff ff ff    	je     10834 <_Unwind_GetTextRelBase@@GCC_3.0+0x1ac4>
   10908:	c6 45 00 00          	movb   $0x0,0x0(%rbp)
   1090c:	e9 23 ff ff ff       	jmpq   10834 <_Unwind_GetTextRelBase@@GCC_3.0+0x1ac4>
   10911:	0f 1f 80 00 00 00 00 	nopl   0x0(%rax)
   10918:	48 8b 13             	mov    (%rbx),%rdx
   1091b:	48 63 c2             	movslq %edx,%rax
   1091e:	80 bc 04 18 01 00 00 	cmpb   $0x0,0x118(%rsp,%rax,1)
   10925:	00 
   10926:	75 20                	jne    10948 <_Unwind_GetTextRelBase@@GCC_3.0+0x1bd8>
   10928:	48 8b 74 24 08       	mov    0x8(%rsp),%rsi
   1092d:	48 8b 44 c4 40       	mov    0x40(%rsp,%rax,8),%rax
   10932:	f6 86 c7 00 00 00 40 	testb  $0x40,0xc7(%rsi)
   10939:	0f 84 f5 fe ff ff    	je     10834 <_Unwind_GetTextRelBase@@GCC_3.0+0x1ac4>
   1093f:	eb c7                	jmp    10908 <_Unwind_GetTextRelBase@@GCC_3.0+0x1b98>
   10941:	0f 1f 80 00 00 00 00 	nopl   0x0(%rax)
   10948:	83 fa 11             	cmp    $0x11,%edx
   1094b:	0f 8f 02 2d ff ff    	jg     3653 <_Unwind_GetDataRelBase@plt+0x83>
   10951:	48 8b 54 c4 40       	mov    0x40(%rsp,%rax,8),%rdx
   10956:	f6 84 24 07 01 00 00 	testb  $0x40,0x107(%rsp)
   1095d:	40 
   1095e:	74 10                	je     10970 <_Unwind_GetTextRelBase@@GCC_3.0+0x1c00>
   10960:	48 89 d0             	mov    %rdx,%rax
   10963:	e9 ac fe ff ff       	jmpq   10814 <_Unwind_GetTextRelBase@@GCC_3.0+0x1aa4>
   10968:	0f 1f 84 00 00 00 00 	nopl   0x0(%rax,%rax,1)
   1096f:	00 
   10970:	48 8b 74 24 28       	mov    0x28(%rsp),%rsi
   10975:	80 3c 06 08          	cmpb   $0x8,(%rsi,%rax,1)
   10979:	0f 85 d4 2c ff ff    	jne    3653 <_Unwind_GetDataRelBase@plt+0x83>
   1097f:	48 8b 02             	mov    (%rdx),%rax
   10982:	e9 8d fe ff ff       	jmpq   10814 <_Unwind_GetTextRelBase@@GCC_3.0+0x1aa4>
   10987:	48 89 44 24 28       	mov    %rax,0x28(%rsp)
   1098c:	e9 7f fd ff ff       	jmpq   10710 <_Unwind_GetTextRelBase@@GCC_3.0+0x19a0>
   10991:	80 3d 5f 98 00 00 08 	cmpb   $0x8,0x985f(%rip)        # 1a1f7 <__cpu_model@GCC_4.8.0+0x27>
   10998:	49 8b 86 90 00 00 00 	mov    0x90(%r14),%rax
   1099f:	0f 85 ae 2c ff ff    	jne    3653 <_Unwind_GetDataRelBase@plt+0x83>
   109a5:	48 89 44 24 38       	mov    %rax,0x38(%rsp)
   109aa:	f6 84 24 07 01 00 00 	testb  $0x40,0x107(%rsp)
   109b1:	40 
   109b2:	74 08                	je     109bc <_Unwind_GetTextRelBase@@GCC_3.0+0x1c4c>
   109b4:	c6 84 24 1f 01 00 00 	movb   $0x0,0x11f(%rsp)
   109bb:	00 
   109bc:	48 8d 44 24 38       	lea    0x38(%rsp),%rax
   109c1:	48 89 44 24 78       	mov    %rax,0x78(%rsp)
   109c6:	e9 cd fc ff ff       	jmpq   10698 <_Unwind_GetTextRelBase@@GCC_3.0+0x1928>
   109cb:	e9 88 2c ff ff       	jmpq   3658 <_Unwind_GetDataRelBase@plt+0x88>
   109d0:	41 55                	push   %r13
   109d2:	31 c0                	xor    %eax,%eax
   109d4:	b9 1e 00 00 00       	mov    $0x1e,%ecx
   109d9:	41 54                	push   %r12
   109db:	49 89 f4             	mov    %rsi,%r12
   109de:	55                   	push   %rbp
   109df:	48 89 fd             	mov    %rdi,%rbp
   109e2:	53                   	push   %rbx
   109e3:	48 89 d3             	mov    %rdx,%rbx
   109e6:	48 81 ec 98 01 00 00 	sub    $0x198,%rsp
   109ed:	f3 48 ab             	rep stos %rax,%es:(%rdi)
   109f0:	4c 8d 6c 24 10       	lea    0x10(%rsp),%r13
   109f5:	48 89 ef             	mov    %rbp,%rdi
   109f8:	4c 89 ee             	mov    %r13,%rsi
   109fb:	48 8b 84 24 b8 01 00 	mov    0x1b8(%rsp),%rax
   10a02:	00 
   10a03:	48 89 85 98 00 00 00 	mov    %rax,0x98(%rbp)
   10a0a:	48 b8 00 00 00 00 00 	movabs $0x4000000000000000,%rax
   10a11:	00 00 40 
   10a14:	48 89 85 c0 00 00 00 	mov    %rax,0xc0(%rbp)
   10a1b:	e8 e0 ed ff ff       	callq  f800 <_Unwind_GetTextRelBase@@GCC_3.0+0xa90>
   10a20:	85 c0                	test   %eax,%eax
   10a22:	0f 85 35 2c ff ff    	jne    365d <_Unwind_GetDataRelBase@plt+0x8d>
   10a28:	48 83 3d a0 95 00 00 	cmpq   $0x0,0x95a0(%rip)        # 19fd0 <__emutls_register_common@@GCC_4.3.0+0x5fc0>
   10a2f:	00 
   10a30:	0f 84 8a 00 00 00    	je     10ac0 <_Unwind_GetTextRelBase@@GCC_3.0+0x1d50>
   10a36:	48 8d 35 b3 df ff ff 	lea    -0x204d(%rip),%rsi        # e9f0 <__enable_execute_stack@@GCC_3.4.2+0x10>
   10a3d:	48 8d 3d 9c 97 00 00 	lea    0x979c(%rip),%rdi        # 1a1e0 <__cpu_model@GCC_4.8.0+0x10>
   10a44:	e8 87 2a ff ff       	callq  34d0 <pthread_once@plt>
   10a49:	85 c0                	test   %eax,%eax
   10a4b:	75 73                	jne    10ac0 <_Unwind_GetTextRelBase@@GCC_3.0+0x1d50>
   10a4d:	80 3d a3 97 00 00 08 	cmpb   $0x8,0x97a3(%rip)        # 1a1f7 <__cpu_model@GCC_4.8.0+0x27>
   10a54:	0f 85 03 2c ff ff    	jne    365d <_Unwind_GetDataRelBase@plt+0x8d>
   10a5a:	4c 89 64 24 08       	mov    %r12,0x8(%rsp)
   10a5f:	f6 85 c7 00 00 00 40 	testb  $0x40,0xc7(%rbp)
   10a66:	74 07                	je     10a6f <_Unwind_GetTextRelBase@@GCC_3.0+0x1cff>
   10a68:	c6 85 df 00 00 00 00 	movb   $0x0,0xdf(%rbp)
   10a6f:	48 8d 44 24 08       	lea    0x8(%rsp),%rax
   10a74:	4c 89 ee             	mov    %r13,%rsi
   10a77:	48 89 ef             	mov    %rbp,%rdi
   10a7a:	c7 84 24 50 01 00 00 	movl   $0x1,0x150(%rsp)
   10a81:	01 00 00 00 
   10a85:	48 89 45 38          	mov    %rax,0x38(%rbp)
   10a89:	48 c7 84 24 40 01 00 	movq   $0x7,0x140(%rsp)
   10a90:	00 07 00 00 00 
   10a95:	48 c7 84 24 38 01 00 	movq   $0x0,0x138(%rsp)
   10a9c:	00 00 00 00 00 
   10aa1:	e8 ea fa ff ff       	callq  10590 <_Unwind_GetTextRelBase@@GCC_3.0+0x1820>
   10aa6:	48 89 9d 98 00 00 00 	mov    %rbx,0x98(%rbp)
   10aad:	48 81 c4 98 01 00 00 	add    $0x198,%rsp
   10ab4:	5b                   	pop    %rbx
   10ab5:	5d                   	pop    %rbp
   10ab6:	41 5c                	pop    %r12
   10ab8:	41 5d                	pop    %r13
   10aba:	c3                   	retq   
   10abb:	0f 1f 44 00 00       	nopl   0x0(%rax,%rax,1)
   10ac0:	80 3d 29 97 00 00 00 	cmpb   $0x0,0x9729(%rip)        # 1a1f0 <__cpu_model@GCC_4.8.0+0x20>
   10ac7:	75 84                	jne    10a4d <_Unwind_GetTextRelBase@@GCC_3.0+0x1cdd>
   10ac9:	c6 05 20 97 00 00 08 	movb   $0x8,0x9720(%rip)        # 1a1f0 <__cpu_model@GCC_4.8.0+0x20>
   10ad0:	c6 05 1a 97 00 00 08 	movb   $0x8,0x971a(%rip)        # 1a1f1 <__cpu_model@GCC_4.8.0+0x21>
   10ad7:	c6 05 14 97 00 00 08 	movb   $0x8,0x9714(%rip)        # 1a1f2 <__cpu_model@GCC_4.8.0+0x22>
   10ade:	c6 05 0e 97 00 00 08 	movb   $0x8,0x970e(%rip)        # 1a1f3 <__cpu_model@GCC_4.8.0+0x23>
   10ae5:	c6 05 08 97 00 00 08 	movb   $0x8,0x9708(%rip)        # 1a1f4 <__cpu_model@GCC_4.8.0+0x24>
   10aec:	c6 05 02 97 00 00 08 	movb   $0x8,0x9702(%rip)        # 1a1f5 <__cpu_model@GCC_4.8.0+0x25>
   10af3:	c6 05 fc 96 00 00 08 	movb   $0x8,0x96fc(%rip)        # 1a1f6 <__cpu_model@GCC_4.8.0+0x26>
   10afa:	c6 05 f6 96 00 00 08 	movb   $0x8,0x96f6(%rip)        # 1a1f7 <__cpu_model@GCC_4.8.0+0x27>
   10b01:	c6 05 f0 96 00 00 08 	movb   $0x8,0x96f0(%rip)        # 1a1f8 <__cpu_model@GCC_4.8.0+0x28>
   10b08:	c6 05 ea 96 00 00 08 	movb   $0x8,0x96ea(%rip)        # 1a1f9 <__cpu_model@GCC_4.8.0+0x29>
   10b0f:	c6 05 e4 96 00 00 08 	movb   $0x8,0x96e4(%rip)        # 1a1fa <__cpu_model@GCC_4.8.0+0x2a>
   10b16:	c6 05 de 96 00 00 08 	movb   $0x8,0x96de(%rip)        # 1a1fb <__cpu_model@GCC_4.8.0+0x2b>
   10b1d:	c6 05 d8 96 00 00 08 	movb   $0x8,0x96d8(%rip)        # 1a1fc <__cpu_model@GCC_4.8.0+0x2c>
   10b24:	c6 05 d2 96 00 00 08 	movb   $0x8,0x96d2(%rip)        # 1a1fd <__cpu_model@GCC_4.8.0+0x2d>
   10b2b:	c6 05 cc 96 00 00 08 	movb   $0x8,0x96cc(%rip)        # 1a1fe <__cpu_model@GCC_4.8.0+0x2e>
   10b32:	c6 05 c6 96 00 00 08 	movb   $0x8,0x96c6(%rip)        # 1a1ff <__cpu_model@GCC_4.8.0+0x2f>
   10b39:	c6 05 c0 96 00 00 08 	movb   $0x8,0x96c0(%rip)        # 1a200 <__cpu_model@GCC_4.8.0+0x30>
   10b40:	e9 08 ff ff ff       	jmpq   10a4d <_Unwind_GetTextRelBase@@GCC_3.0+0x1cdd>
   10b45:	66 66 2e 0f 1f 84 00 	data16 nopw %cs:0x0(%rax,%rax,1)
   10b4c:	00 00 00 00 
   10b50:	41 57                	push   %r15
   10b52:	41 56                	push   %r14
   10b54:	41 55                	push   %r13
   10b56:	41 bd 01 00 00 00    	mov    $0x1,%r13d
   10b5c:	41 54                	push   %r12
   10b5e:	55                   	push   %rbp
   10b5f:	48 89 fd             	mov    %rdi,%rbp
   10b62:	53                   	push   %rbx
   10b63:	48 89 f3             	mov    %rsi,%rbx
   10b66:	48 81 ec 98 01 00 00 	sub    $0x198,%rsp
   10b6d:	48 89 54 24 08       	mov    %rdx,0x8(%rsp)
   10b72:	4c 8d 64 24 10       	lea    0x10(%rsp),%r12
   10b77:	eb 16                	jmp    10b8f <_Unwind_GetTextRelBase@@GCC_3.0+0x1e1f>
   10b79:	0f 1f 80 00 00 00 00 	nopl   0x0(%rax)
   10b80:	48 c7 83 98 00 00 00 	movq   $0x0,0x98(%rbx)
   10b87:	00 00 00 00 
   10b8b:	49 83 c5 01          	add    $0x1,%r13
   10b8f:	4c 89 e6             	mov    %r12,%rsi
   10b92:	48 89 df             	mov    %rbx,%rdi
   10b95:	45 31 ff             	xor    %r15d,%r15d
   10b98:	e8 63 ec ff ff       	callq  f800 <_Unwind_GetTextRelBase@@GCC_3.0+0xa90>
   10b9d:	48 89 df             	mov    %rbx,%rdi
   10ba0:	41 89 c6             	mov    %eax,%r14d
   10ba3:	e8 68 28 ff ff       	callq  3410 <_Unwind_GetCFA@plt>
   10ba8:	48 8b 8b c0 00 00 00 	mov    0xc0(%rbx),%rcx
   10baf:	48 c1 e9 3f          	shr    $0x3f,%rcx
   10bb3:	48 29 c8             	sub    %rcx,%rax
   10bb6:	48 39 45 18          	cmp    %rax,0x18(%rbp)
   10bba:	41 0f 94 c7          	sete   %r15b
   10bbe:	41 c1 e7 02          	shl    $0x2,%r15d
   10bc2:	45 85 f6             	test   %r14d,%r14d
   10bc5:	0f 85 a5 00 00 00    	jne    10c70 <_Unwind_GetTextRelBase@@GCC_3.0+0x1f00>
   10bcb:	48 8b 84 24 60 01 00 	mov    0x160(%rsp),%rax
   10bd2:	00 
   10bd3:	48 85 c0             	test   %rax,%rax
   10bd6:	74 25                	je     10bfd <_Unwind_GetTextRelBase@@GCC_3.0+0x1e8d>
   10bd8:	44 89 fe             	mov    %r15d,%esi
   10bdb:	48 8b 55 00          	mov    0x0(%rbp),%rdx
   10bdf:	49 89 d8             	mov    %rbx,%r8
   10be2:	48 89 e9             	mov    %rbp,%rcx
   10be5:	83 ce 02             	or     $0x2,%esi
   10be8:	bf 01 00 00 00       	mov    $0x1,%edi
   10bed:	ff d0                	callq  *%rax
   10bef:	83 f8 07             	cmp    $0x7,%eax
   10bf2:	0f 84 98 00 00 00    	je     10c90 <_Unwind_GetTextRelBase@@GCC_3.0+0x1f20>
   10bf8:	83 f8 08             	cmp    $0x8,%eax
   10bfb:	75 73                	jne    10c70 <_Unwind_GetTextRelBase@@GCC_3.0+0x1f00>
   10bfd:	45 85 ff             	test   %r15d,%r15d
   10c00:	0f 85 94 00 00 00    	jne    10c9a <_Unwind_GetTextRelBase@@GCC_3.0+0x1f2a>
   10c06:	4c 89 e6             	mov    %r12,%rsi
   10c09:	48 89 df             	mov    %rbx,%rdi
   10c0c:	e8 7f f9 ff ff       	callq  10590 <_Unwind_GetTextRelBase@@GCC_3.0+0x1820>
   10c11:	48 8b 84 24 78 01 00 	mov    0x178(%rsp),%rax
   10c18:	00 
   10c19:	48 89 c2             	mov    %rax,%rdx
   10c1c:	48 c1 e2 04          	shl    $0x4,%rdx
   10c20:	83 7c 14 18 06       	cmpl   $0x6,0x18(%rsp,%rdx,1)
   10c25:	0f 84 55 ff ff ff    	je     10b80 <_Unwind_GetTextRelBase@@GCC_3.0+0x1e10>
   10c2b:	83 f8 11             	cmp    $0x11,%eax
   10c2e:	0f 8f 2e 2a ff ff    	jg     3662 <_Unwind_GetDataRelBase@plt+0x92>
   10c34:	48 98                	cltq   
   10c36:	48 8b 14 c3          	mov    (%rbx,%rax,8),%rdx
   10c3a:	f6 83 c7 00 00 00 40 	testb  $0x40,0xc7(%rbx)
   10c41:	74 0a                	je     10c4d <_Unwind_GetTextRelBase@@GCC_3.0+0x1edd>
   10c43:	80 bc 03 d8 00 00 00 	cmpb   $0x0,0xd8(%rbx,%rax,1)
   10c4a:	00 
   10c4b:	75 14                	jne    10c61 <_Unwind_GetTextRelBase@@GCC_3.0+0x1ef1>
   10c4d:	48 8d 3d 9c 95 00 00 	lea    0x959c(%rip),%rdi        # 1a1f0 <__cpu_model@GCC_4.8.0+0x20>
   10c54:	80 3c 07 08          	cmpb   $0x8,(%rdi,%rax,1)
   10c58:	0f 85 04 2a ff ff    	jne    3662 <_Unwind_GetDataRelBase@plt+0x92>
   10c5e:	48 8b 12             	mov    (%rdx),%rdx
   10c61:	48 89 93 98 00 00 00 	mov    %rdx,0x98(%rbx)
   10c68:	e9 1e ff ff ff       	jmpq   10b8b <_Unwind_GetTextRelBase@@GCC_3.0+0x1e1b>
   10c6d:	0f 1f 00             	nopl   (%rax)
   10c70:	b8 02 00 00 00       	mov    $0x2,%eax
   10c75:	48 81 c4 98 01 00 00 	add    $0x198,%rsp
   10c7c:	5b                   	pop    %rbx
   10c7d:	5d                   	pop    %rbp
   10c7e:	41 5c                	pop    %r12
   10c80:	41 5d                	pop    %r13
   10c82:	41 5e                	pop    %r14
   10c84:	41 5f                	pop    %r15
   10c86:	c3                   	retq   
   10c87:	66 0f 1f 84 00 00 00 	nopw   0x0(%rax,%rax,1)
   10c8e:	00 00 
   10c90:	48 8b 7c 24 08       	mov    0x8(%rsp),%rdi
   10c95:	4c 89 2f             	mov    %r13,(%rdi)
   10c98:	eb db                	jmp    10c75 <_Unwind_GetTextRelBase@@GCC_3.0+0x1f05>
   10c9a:	e9 c3 29 ff ff       	jmpq   3662 <_Unwind_GetDataRelBase@plt+0x92>
   10c9f:	90                   	nop
   10ca0:	41 57                	push   %r15
   10ca2:	41 56                	push   %r14
   10ca4:	41 55                	push   %r13
   10ca6:	49 89 f5             	mov    %rsi,%r13
   10ca9:	41 54                	push   %r12
   10cab:	49 89 fc             	mov    %rdi,%r12
   10cae:	55                   	push   %rbp
   10caf:	bd 01 00 00 00       	mov    $0x1,%ebp
   10cb4:	53                   	push   %rbx
   10cb5:	48 81 ec 98 01 00 00 	sub    $0x198,%rsp
   10cbc:	48 8b 47 10          	mov    0x10(%rdi),%rax
   10cc0:	4c 8b 77 18          	mov    0x18(%rdi),%r14
   10cc4:	48 89 54 24 08       	mov    %rdx,0x8(%rsp)
   10cc9:	48 8d 5c 24 10       	lea    0x10(%rsp),%rbx
   10cce:	48 89 04 24          	mov    %rax,(%rsp)
   10cd2:	eb 13                	jmp    10ce7 <_Unwind_GetTextRelBase@@GCC_3.0+0x1f77>
   10cd4:	0f 1f 40 00          	nopl   0x0(%rax)
   10cd8:	49 c7 85 98 00 00 00 	movq   $0x0,0x98(%r13)
   10cdf:	00 00 00 00 
   10ce3:	48 83 c5 01          	add    $0x1,%rbp
   10ce7:	48 89 de             	mov    %rbx,%rsi
   10cea:	4c 89 ef             	mov    %r13,%rdi
   10ced:	e8 0e eb ff ff       	callq  f800 <_Unwind_GetTextRelBase@@GCC_3.0+0xa90>
   10cf2:	41 89 c7             	mov    %eax,%r15d
   10cf5:	85 c0                	test   %eax,%eax
   10cf7:	74 09                	je     10d02 <_Unwind_GetTextRelBase@@GCC_3.0+0x1f92>
   10cf9:	83 f8 05             	cmp    $0x5,%eax
   10cfc:	0f 85 f3 00 00 00    	jne    10df5 <_Unwind_GetTextRelBase@@GCC_3.0+0x2085>
   10d02:	49 8b 14 24          	mov    (%r12),%rdx
   10d06:	41 83 ff 05          	cmp    $0x5,%r15d
   10d0a:	0f 84 c8 00 00 00    	je     10dd8 <_Unwind_GetTextRelBase@@GCC_3.0+0x2068>
   10d10:	48 8b 04 24          	mov    (%rsp),%rax
   10d14:	4d 89 f1             	mov    %r14,%r9
   10d17:	4d 89 e8             	mov    %r13,%r8
   10d1a:	4c 89 e1             	mov    %r12,%rcx
   10d1d:	be 0a 00 00 00       	mov    $0xa,%esi
   10d22:	bf 01 00 00 00       	mov    $0x1,%edi
   10d27:	ff d0                	callq  *%rax
   10d29:	85 c0                	test   %eax,%eax
   10d2b:	0f 85 c4 00 00 00    	jne    10df5 <_Unwind_GetTextRelBase@@GCC_3.0+0x2085>
   10d31:	48 8b 84 24 60 01 00 	mov    0x160(%rsp),%rax
   10d38:	00 
   10d39:	48 85 c0             	test   %rax,%rax
   10d3c:	74 2b                	je     10d69 <_Unwind_GetTextRelBase@@GCC_3.0+0x1ff9>
   10d3e:	49 8b 14 24          	mov    (%r12),%rdx
   10d42:	4d 89 e8             	mov    %r13,%r8
   10d45:	4c 89 e1             	mov    %r12,%rcx
   10d48:	be 0a 00 00 00       	mov    $0xa,%esi
   10d4d:	bf 01 00 00 00       	mov    $0x1,%edi
   10d52:	ff d0                	callq  *%rax
   10d54:	41 89 c7             	mov    %eax,%r15d
   10d57:	83 f8 07             	cmp    $0x7,%eax
   10d5a:	0f 84 b0 00 00 00    	je     10e10 <_Unwind_GetTextRelBase@@GCC_3.0+0x20a0>
   10d60:	83 f8 08             	cmp    $0x8,%eax
   10d63:	0f 85 8c 00 00 00    	jne    10df5 <_Unwind_GetTextRelBase@@GCC_3.0+0x2085>
   10d69:	48 89 de             	mov    %rbx,%rsi
   10d6c:	4c 89 ef             	mov    %r13,%rdi
   10d6f:	e8 1c f8 ff ff       	callq  10590 <_Unwind_GetTextRelBase@@GCC_3.0+0x1820>
   10d74:	48 8b 84 24 78 01 00 	mov    0x178(%rsp),%rax
   10d7b:	00 
   10d7c:	48 89 c2             	mov    %rax,%rdx
   10d7f:	48 c1 e2 04          	shl    $0x4,%rdx
   10d83:	83 7c 14 18 06       	cmpl   $0x6,0x18(%rsp,%rdx,1)
   10d88:	0f 84 4a ff ff ff    	je     10cd8 <_Unwind_GetTextRelBase@@GCC_3.0+0x1f68>
   10d8e:	83 f8 11             	cmp    $0x11,%eax
   10d91:	0f 8f d0 28 ff ff    	jg     3667 <_Unwind_GetDataRelBase@plt+0x97>
   10d97:	48 98                	cltq   
   10d99:	49 8b 54 c5 00       	mov    0x0(%r13,%rax,8),%rdx
   10d9e:	41 f6 85 c7 00 00 00 	testb  $0x40,0xc7(%r13)
   10da5:	40 
   10da6:	74 0b                	je     10db3 <_Unwind_GetTextRelBase@@GCC_3.0+0x2043>
   10da8:	41 80 bc 05 d8 00 00 	cmpb   $0x0,0xd8(%r13,%rax,1)
   10daf:	00 00 
   10db1:	75 14                	jne    10dc7 <_Unwind_GetTextRelBase@@GCC_3.0+0x2057>
   10db3:	48 8d 0d 36 94 00 00 	lea    0x9436(%rip),%rcx        # 1a1f0 <__cpu_model@GCC_4.8.0+0x20>
   10dba:	80 3c 01 08          	cmpb   $0x8,(%rcx,%rax,1)
   10dbe:	0f 85 a3 28 ff ff    	jne    3667 <_Unwind_GetDataRelBase@plt+0x97>
   10dc4:	48 8b 12             	mov    (%rdx),%rdx
   10dc7:	49 89 95 98 00 00 00 	mov    %rdx,0x98(%r13)
   10dce:	e9 10 ff ff ff       	jmpq   10ce3 <_Unwind_GetTextRelBase@@GCC_3.0+0x1f73>
   10dd3:	0f 1f 44 00 00       	nopl   0x0(%rax,%rax,1)
   10dd8:	48 8b 04 24          	mov    (%rsp),%rax
   10ddc:	4d 89 f1             	mov    %r14,%r9
   10ddf:	4d 89 e8             	mov    %r13,%r8
   10de2:	4c 89 e1             	mov    %r12,%rcx
   10de5:	be 1a 00 00 00       	mov    $0x1a,%esi
   10dea:	bf 01 00 00 00       	mov    $0x1,%edi
   10def:	ff d0                	callq  *%rax
   10df1:	85 c0                	test   %eax,%eax
   10df3:	74 1b                	je     10e10 <_Unwind_GetTextRelBase@@GCC_3.0+0x20a0>
   10df5:	41 bf 02 00 00 00    	mov    $0x2,%r15d
   10dfb:	48 81 c4 98 01 00 00 	add    $0x198,%rsp
   10e02:	44 89 f8             	mov    %r15d,%eax
   10e05:	5b                   	pop    %rbx
   10e06:	5d                   	pop    %rbp
   10e07:	41 5c                	pop    %r12
   10e09:	41 5d                	pop    %r13
   10e0b:	41 5e                	pop    %r14
   10e0d:	41 5f                	pop    %r15
   10e0f:	c3                   	retq   
   10e10:	48 8b 44 24 08       	mov    0x8(%rsp),%rax
   10e15:	48 89 28             	mov    %rbp,(%rax)
   10e18:	eb e1                	jmp    10dfb <_Unwind_GetTextRelBase@@GCC_3.0+0x208b>
   10e1a:	66 0f 1f 44 00 00    	nopw   0x0(%rax,%rax,1)
   10e20:	f3 0f 1e fa          	endbr64 
   10e24:	55                   	push   %rbp
   10e25:	31 c0                	xor    %eax,%eax
   10e27:	49 89 f9             	mov    %rdi,%r9
   10e2a:	b9 1e 00 00 00       	mov    $0x1e,%ecx
   10e2f:	53                   	push   %rbx
   10e30:	49 83 c1 01          	add    $0x1,%r9
   10e34:	48 89 f5             	mov    %rsi,%rbp
   10e37:	48 81 ec 78 02 00 00 	sub    $0x278,%rsp
   10e3e:	49 89 e0             	mov    %rsp,%r8
   10e41:	48 8d 9c 24 f0 00 00 	lea    0xf0(%rsp),%rbx
   10e48:	00 
   10e49:	4c 89 c7             	mov    %r8,%rdi
   10e4c:	48 89 de             	mov    %rbx,%rsi
   10e4f:	f3 48 ab             	rep stos %rax,%es:(%rdi)
   10e52:	4c 89 c7             	mov    %r8,%rdi
   10e55:	4c 89 8c 24 98 00 00 	mov    %r9,0x98(%rsp)
   10e5c:	00 
   10e5d:	48 b8 00 00 00 00 00 	movabs $0x4000000000000000,%rax
   10e64:	00 00 40 
   10e67:	48 89 84 24 c0 00 00 	mov    %rax,0xc0(%rsp)
   10e6e:	00 
   10e6f:	e8 8c e9 ff ff       	callq  f800 <_Unwind_GetTextRelBase@@GCC_3.0+0xa90>
   10e74:	85 c0                	test   %eax,%eax
   10e76:	0f 85 b4 00 00 00    	jne    10f30 <_Unwind_GetTextRelBase@@GCC_3.0+0x21c0>
   10e7c:	83 bc 24 30 02 00 00 	cmpl   $0x2,0x230(%rsp)
   10e83:	02 
   10e84:	0f 84 a6 00 00 00    	je     10f30 <_Unwind_GetTextRelBase@@GCC_3.0+0x21c0>
   10e8a:	48 89 d9             	mov    %rbx,%rcx
   10e8d:	31 c0                	xor    %eax,%eax
   10e8f:	eb 1e                	jmp    10eaf <_Unwind_GetTextRelBase@@GCC_3.0+0x213f>
   10e91:	0f 1f 80 00 00 00 00 	nopl   0x0(%rax)
   10e98:	48 c7 44 c5 20 00 00 	movq   $0x0,0x20(%rbp,%rax,8)
   10e9f:	00 00 
   10ea1:	48 83 c0 01          	add    $0x1,%rax
   10ea5:	48 83 c1 10          	add    $0x10,%rcx
   10ea9:	48 83 f8 12          	cmp    $0x12,%rax
   10ead:	74 2a                	je     10ed9 <_Unwind_GetTextRelBase@@GCC_3.0+0x2169>
   10eaf:	8b 51 08             	mov    0x8(%rcx),%edx
   10eb2:	88 94 05 b4 00 00 00 	mov    %dl,0xb4(%rbp,%rax,1)
   10eb9:	80 fa 01             	cmp    $0x1,%dl
   10ebc:	74 05                	je     10ec3 <_Unwind_GetTextRelBase@@GCC_3.0+0x2153>
   10ebe:	80 fa 02             	cmp    $0x2,%dl
   10ec1:	75 d5                	jne    10e98 <_Unwind_GetTextRelBase@@GCC_3.0+0x2128>
   10ec3:	48 8b 11             	mov    (%rcx),%rdx
   10ec6:	48 83 c1 10          	add    $0x10,%rcx
   10eca:	48 89 54 c5 20       	mov    %rdx,0x20(%rbp,%rax,8)
   10ecf:	48 83 c0 01          	add    $0x1,%rax
   10ed3:	48 83 f8 12          	cmp    $0x12,%rax
   10ed7:	75 d6                	jne    10eaf <_Unwind_GetTextRelBase@@GCC_3.0+0x213f>
   10ed9:	48 8b 84 24 18 02 00 	mov    0x218(%rsp),%rax
   10ee0:	00 
   10ee1:	48 89 45 10          	mov    %rax,0x10(%rbp)
   10ee5:	48 8b 84 24 20 02 00 	mov    0x220(%rsp),%rax
   10eec:	00 
   10eed:	66 89 85 b0 00 00 00 	mov    %ax,0xb0(%rbp)
   10ef4:	48 8b 84 24 58 02 00 	mov    0x258(%rsp),%rax
   10efb:	00 
   10efc:	66 89 85 b2 00 00 00 	mov    %ax,0xb2(%rbp)
   10f03:	48 8b 84 24 d0 00 00 	mov    0xd0(%rsp),%rax
   10f0a:	00 
   10f0b:	48 89 45 18          	mov    %rax,0x18(%rbp)
   10f0f:	48 8b 84 24 68 02 00 	mov    0x268(%rsp),%rax
   10f16:	00 
   10f17:	48 89 45 08          	mov    %rax,0x8(%rbp)
   10f1b:	48 81 c4 78 02 00 00 	add    $0x278,%rsp
   10f22:	48 89 e8             	mov    %rbp,%rax
   10f25:	5b                   	pop    %rbx
   10f26:	5d                   	pop    %rbp
   10f27:	c3                   	retq   
   10f28:	0f 1f 84 00 00 00 00 	nopl   0x0(%rax,%rax,1)
   10f2f:	00 
   10f30:	48 81 c4 78 02 00 00 	add    $0x278,%rsp
   10f37:	31 c0                	xor    %eax,%eax
   10f39:	5b                   	pop    %rbx
   10f3a:	5d                   	pop    %rbp
   10f3b:	c3                   	retq   
   10f3c:	0f 1f 40 00          	nopl   0x0(%rax)
   10f40:	f3 0f 1e fa          	endbr64 
   10f44:	c3                   	retq   
   10f45:	66 66 2e 0f 1f 84 00 	data16 nopw %cs:0x0(%rax,%rax,1)
   10f4c:	00 00 00 00 

0000000000010f50 <_Unwind_RaiseException@@GCC_3.0>:
   10f50:	f3 0f 1e fa          	endbr64 
   10f54:	55                   	push   %rbp
   10f55:	48 89 e5             	mov    %rsp,%rbp
   10f58:	41 57                	push   %r15
   10f5a:	41 56                	push   %r14
   10f5c:	4c 8d bd 60 fc ff ff 	lea    -0x3a0(%rbp),%r15
   10f63:	49 89 fe             	mov    %rdi,%r14
   10f66:	48 8d 75 10          	lea    0x10(%rbp),%rsi
   10f6a:	41 55                	push   %r13
   10f6c:	4c 89 ff             	mov    %r15,%rdi
   10f6f:	4c 8d ad 40 fe ff ff 	lea    -0x1c0(%rbp),%r13
   10f76:	41 54                	push   %r12
   10f78:	4c 8d a5 50 fd ff ff 	lea    -0x2b0(%rbp),%r12
   10f7f:	53                   	push   %rbx
   10f80:	48 8d 1d 69 92 00 00 	lea    0x9269(%rip),%rbx        # 1a1f0 <__cpu_model@GCC_4.8.0+0x20>
   10f87:	52                   	push   %rdx
   10f88:	50                   	push   %rax
   10f89:	48 81 ec 68 03 00 00 	sub    $0x368,%rsp
   10f90:	48 8b 55 08          	mov    0x8(%rbp),%rdx
   10f94:	e8 37 fa ff ff       	callq  109d0 <_Unwind_GetTextRelBase@@GCC_3.0+0x1c60>
   10f99:	f3 0f 6f 85 60 fc ff 	movdqu -0x3a0(%rbp),%xmm0
   10fa0:	ff 
   10fa1:	f3 0f 6f 8d 70 fc ff 	movdqu -0x390(%rbp),%xmm1
   10fa8:	ff 
   10fa9:	f3 0f 6f 95 80 fc ff 	movdqu -0x380(%rbp),%xmm2
   10fb0:	ff 
   10fb1:	f3 0f 6f 9d 90 fc ff 	movdqu -0x370(%rbp),%xmm3
   10fb8:	ff 
   10fb9:	f3 0f 6f a5 a0 fc ff 	movdqu -0x360(%rbp),%xmm4
   10fc0:	ff 
   10fc1:	f3 0f 6f ad b0 fc ff 	movdqu -0x350(%rbp),%xmm5
   10fc8:	ff 
   10fc9:	0f 11 85 50 fd ff ff 	movups %xmm0,-0x2b0(%rbp)
   10fd0:	f3 0f 6f b5 c0 fc ff 	movdqu -0x340(%rbp),%xmm6
   10fd7:	ff 
   10fd8:	f3 0f 6f bd d0 fc ff 	movdqu -0x330(%rbp),%xmm7
   10fdf:	ff 
   10fe0:	0f 11 8d 60 fd ff ff 	movups %xmm1,-0x2a0(%rbp)
   10fe7:	f3 0f 6f 85 e0 fc ff 	movdqu -0x320(%rbp),%xmm0
   10fee:	ff 
   10fef:	f3 0f 6f 8d f0 fc ff 	movdqu -0x310(%rbp),%xmm1
   10ff6:	ff 
   10ff7:	0f 11 95 70 fd ff ff 	movups %xmm2,-0x290(%rbp)
   10ffe:	0f 11 9d 80 fd ff ff 	movups %xmm3,-0x280(%rbp)
   11005:	f3 0f 6f 95 00 fd ff 	movdqu -0x300(%rbp),%xmm2
   1100c:	ff 
   1100d:	f3 0f 6f 9d 10 fd ff 	movdqu -0x2f0(%rbp),%xmm3
   11014:	ff 
   11015:	0f 11 a5 90 fd ff ff 	movups %xmm4,-0x270(%rbp)
   1101c:	f3 0f 6f a5 20 fd ff 	movdqu -0x2e0(%rbp),%xmm4
   11023:	ff 
   11024:	0f 11 ad a0 fd ff ff 	movups %xmm5,-0x260(%rbp)
   1102b:	f3 0f 6f ad 30 fd ff 	movdqu -0x2d0(%rbp),%xmm5
   11032:	ff 
   11033:	0f 11 b5 b0 fd ff ff 	movups %xmm6,-0x250(%rbp)
   1103a:	f3 0f 6f b5 40 fd ff 	movdqu -0x2c0(%rbp),%xmm6
   11041:	ff 
   11042:	0f 11 bd c0 fd ff ff 	movups %xmm7,-0x240(%rbp)
   11049:	0f 11 85 d0 fd ff ff 	movups %xmm0,-0x230(%rbp)
   11050:	0f 11 8d e0 fd ff ff 	movups %xmm1,-0x220(%rbp)
   11057:	0f 11 95 f0 fd ff ff 	movups %xmm2,-0x210(%rbp)
   1105e:	0f 11 9d 00 fe ff ff 	movups %xmm3,-0x200(%rbp)
   11065:	0f 11 a5 10 fe ff ff 	movups %xmm4,-0x1f0(%rbp)
   1106c:	0f 11 ad 20 fe ff ff 	movups %xmm5,-0x1e0(%rbp)
   11073:	0f 11 b5 30 fe ff ff 	movups %xmm6,-0x1d0(%rbp)
   1107a:	66 0f 1f 44 00 00    	nopw   0x0(%rax,%rax,1)
   11080:	4c 89 ee             	mov    %r13,%rsi
   11083:	4c 89 e7             	mov    %r12,%rdi
   11086:	e8 75 e7 ff ff       	callq  f800 <_Unwind_GetTextRelBase@@GCC_3.0+0xa90>
   1108b:	83 f8 05             	cmp    $0x5,%eax
   1108e:	74 73                	je     11103 <_Unwind_RaiseException@@GCC_3.0+0x1b3>
   11090:	85 c0                	test   %eax,%eax
   11092:	0f 85 c8 00 00 00    	jne    11160 <_Unwind_RaiseException@@GCC_3.0+0x210>
   11098:	48 8b 45 90          	mov    -0x70(%rbp),%rax
   1109c:	48 85 c0             	test   %rax,%rax
   1109f:	74 27                	je     110c8 <_Unwind_RaiseException@@GCC_3.0+0x178>
   110a1:	49 8b 16             	mov    (%r14),%rdx
   110a4:	4d 89 e0             	mov    %r12,%r8
   110a7:	4c 89 f1             	mov    %r14,%rcx
   110aa:	be 01 00 00 00       	mov    $0x1,%esi
   110af:	bf 01 00 00 00       	mov    $0x1,%edi
   110b4:	ff d0                	callq  *%rax
   110b6:	83 f8 06             	cmp    $0x6,%eax
   110b9:	0f 84 b1 00 00 00    	je     11170 <_Unwind_RaiseException@@GCC_3.0+0x220>
   110bf:	83 f8 08             	cmp    $0x8,%eax
   110c2:	0f 85 98 00 00 00    	jne    11160 <_Unwind_RaiseException@@GCC_3.0+0x210>
   110c8:	4c 89 ee             	mov    %r13,%rsi
   110cb:	4c 89 e7             	mov    %r12,%rdi
   110ce:	e8 bd f4 ff ff       	callq  10590 <_Unwind_GetTextRelBase@@GCC_3.0+0x1820>
   110d3:	48 8b 45 a8          	mov    -0x58(%rbp),%rax
   110d7:	48 89 c2             	mov    %rax,%rdx
   110da:	48 c1 e2 04          	shl    $0x4,%rdx
   110de:	83 bc 15 48 fe ff ff 	cmpl   $0x6,-0x1b8(%rbp,%rdx,1)
   110e5:	06 
   110e6:	75 38                	jne    11120 <_Unwind_RaiseException@@GCC_3.0+0x1d0>
   110e8:	4c 89 ee             	mov    %r13,%rsi
   110eb:	4c 89 e7             	mov    %r12,%rdi
   110ee:	48 c7 85 e8 fd ff ff 	movq   $0x0,-0x218(%rbp)
   110f5:	00 00 00 00 
   110f9:	e8 02 e7 ff ff       	callq  f800 <_Unwind_GetTextRelBase@@GCC_3.0+0xa90>
   110fe:	83 f8 05             	cmp    $0x5,%eax
   11101:	75 8d                	jne    11090 <_Unwind_RaiseException@@GCC_3.0+0x140>
   11103:	48 8b 5d d8          	mov    -0x28(%rbp),%rbx
   11107:	4c 8b 65 e0          	mov    -0x20(%rbp),%r12
   1110b:	4c 8b 6d e8          	mov    -0x18(%rbp),%r13
   1110f:	4c 8b 75 f0          	mov    -0x10(%rbp),%r14
   11113:	4c 8b 7d f8          	mov    -0x8(%rbp),%r15
   11117:	c9                   	leaveq 
   11118:	c3                   	retq   
   11119:	0f 1f 80 00 00 00 00 	nopl   0x0(%rax)
   11120:	83 f8 11             	cmp    $0x11,%eax
   11123:	0f 8f 43 25 ff ff    	jg     366c <_Unwind_GetDataRelBase@plt+0x9c>
   11129:	48 98                	cltq   
   1112b:	48 8b 94 c5 50 fd ff 	mov    -0x2b0(%rbp,%rax,8),%rdx
   11132:	ff 
   11133:	f6 85 17 fe ff ff 40 	testb  $0x40,-0x1e9(%rbp)
   1113a:	74 0a                	je     11146 <_Unwind_RaiseException@@GCC_3.0+0x1f6>
   1113c:	80 bc 05 28 fe ff ff 	cmpb   $0x0,-0x1d8(%rbp,%rax,1)
   11143:	00 
   11144:	75 0d                	jne    11153 <_Unwind_RaiseException@@GCC_3.0+0x203>
   11146:	80 3c 03 08          	cmpb   $0x8,(%rbx,%rax,1)
   1114a:	0f 85 1c 25 ff ff    	jne    366c <_Unwind_GetDataRelBase@plt+0x9c>
   11150:	48 8b 12             	mov    (%rdx),%rdx
   11153:	48 89 95 e8 fd ff ff 	mov    %rdx,-0x218(%rbp)
   1115a:	e9 21 ff ff ff       	jmpq   11080 <_Unwind_RaiseException@@GCC_3.0+0x130>
   1115f:	90                   	nop
   11160:	b8 03 00 00 00       	mov    $0x3,%eax
   11165:	eb 9c                	jmp    11103 <_Unwind_RaiseException@@GCC_3.0+0x1b3>
   11167:	66 0f 1f 84 00 00 00 	nopw   0x0(%rax,%rax,1)
   1116e:	00 00 
   11170:	49 c7 46 10 00 00 00 	movq   $0x0,0x10(%r14)
   11177:	00 
   11178:	4c 89 e7             	mov    %r12,%rdi
   1117b:	e8 90 22 ff ff       	callq  3410 <_Unwind_GetCFA@plt>
   11180:	f3 0f 6f bd 60 fc ff 	movdqu -0x3a0(%rbp),%xmm7
   11187:	ff 
   11188:	4c 89 e6             	mov    %r12,%rsi
   1118b:	48 8b 95 10 fe ff ff 	mov    -0x1f0(%rbp),%rdx
   11192:	f3 0f 6f 85 b0 fc ff 	movdqu -0x350(%rbp),%xmm0
   11199:	ff 
   1119a:	f3 0f 6f 8d c0 fc ff 	movdqu -0x340(%rbp),%xmm1
   111a1:	ff 
   111a2:	4c 89 f7             	mov    %r14,%rdi
   111a5:	0f 11 bd 50 fd ff ff 	movups %xmm7,-0x2b0(%rbp)
   111ac:	f3 0f 6f bd 70 fc ff 	movdqu -0x390(%rbp),%xmm7
   111b3:	ff 
   111b4:	48 c1 ea 3f          	shr    $0x3f,%rdx
   111b8:	f3 0f 6f 95 d0 fc ff 	movdqu -0x330(%rbp),%xmm2
   111bf:	ff 
   111c0:	48 29 d0             	sub    %rdx,%rax
   111c3:	f3 0f 6f 9d e0 fc ff 	movdqu -0x320(%rbp),%xmm3
   111ca:	ff 
   111cb:	f3 0f 6f a5 f0 fc ff 	movdqu -0x310(%rbp),%xmm4
   111d2:	ff 
   111d3:	0f 11 85 a0 fd ff ff 	movups %xmm0,-0x260(%rbp)
   111da:	49 89 46 18          	mov    %rax,0x18(%r14)
   111de:	f3 0f 6f ad 00 fd ff 	movdqu -0x300(%rbp),%xmm5
   111e5:	ff 
   111e6:	4c 89 ea             	mov    %r13,%rdx
   111e9:	0f 11 bd 60 fd ff ff 	movups %xmm7,-0x2a0(%rbp)
   111f0:	f3 0f 6f bd 80 fc ff 	movdqu -0x380(%rbp),%xmm7
   111f7:	ff 
   111f8:	f3 0f 6f b5 10 fd ff 	movdqu -0x2f0(%rbp),%xmm6
   111ff:	ff 
   11200:	f3 0f 6f 85 30 fd ff 	movdqu -0x2d0(%rbp),%xmm0
   11207:	ff 
   11208:	0f 11 8d b0 fd ff ff 	movups %xmm1,-0x250(%rbp)
   1120f:	f3 0f 6f 8d 40 fd ff 	movdqu -0x2c0(%rbp),%xmm1
   11216:	ff 
   11217:	0f 11 bd 70 fd ff ff 	movups %xmm7,-0x290(%rbp)
   1121e:	f3 0f 6f bd 90 fc ff 	movdqu -0x370(%rbp),%xmm7
   11225:	ff 
   11226:	0f 11 95 c0 fd ff ff 	movups %xmm2,-0x240(%rbp)
   1122d:	0f 11 bd 80 fd ff ff 	movups %xmm7,-0x280(%rbp)
   11234:	f3 0f 6f bd a0 fc ff 	movdqu -0x360(%rbp),%xmm7
   1123b:	ff 
   1123c:	0f 11 9d d0 fd ff ff 	movups %xmm3,-0x230(%rbp)
   11243:	0f 11 bd 90 fd ff ff 	movups %xmm7,-0x270(%rbp)
   1124a:	f3 0f 6f bd 20 fd ff 	movdqu -0x2e0(%rbp),%xmm7
   11251:	ff 
   11252:	0f 11 a5 e0 fd ff ff 	movups %xmm4,-0x220(%rbp)
   11259:	0f 11 ad f0 fd ff ff 	movups %xmm5,-0x210(%rbp)
   11260:	0f 11 b5 00 fe ff ff 	movups %xmm6,-0x200(%rbp)
   11267:	0f 11 bd 10 fe ff ff 	movups %xmm7,-0x1f0(%rbp)
   1126e:	0f 11 85 20 fe ff ff 	movups %xmm0,-0x1e0(%rbp)
   11275:	0f 11 8d 30 fe ff ff 	movups %xmm1,-0x1d0(%rbp)
   1127c:	e8 cf f8 ff ff       	callq  10b50 <_Unwind_GetTextRelBase@@GCC_3.0+0x1de0>
   11281:	83 f8 07             	cmp    $0x7,%eax
   11284:	0f 85 79 fe ff ff    	jne    11103 <_Unwind_RaiseException@@GCC_3.0+0x1b3>
   1128a:	4c 89 e6             	mov    %r12,%rsi
   1128d:	4c 89 ff             	mov    %r15,%rdi
   11290:	e8 db d7 ff ff       	callq  ea70 <__enable_execute_stack@@GCC_3.4.2+0x90>
   11295:	48 8b b5 e8 fd ff ff 	mov    -0x218(%rbp),%rsi
   1129c:	48 8b bd e0 fd ff ff 	mov    -0x220(%rbp),%rdi
   112a3:	48 89 c1             	mov    %rax,%rcx
   112a6:	e8 95 fc ff ff       	callq  10f40 <_Unwind_GetTextRelBase@@GCC_3.0+0x21d0>
   112ab:	48 8d 4c 0d 08       	lea    0x8(%rbp,%rcx,1),%rcx
   112b0:	48 89 74 05 08       	mov    %rsi,0x8(%rbp,%rax,1)
   112b5:	48 8b 45 c8          	mov    -0x38(%rbp),%rax
   112b9:	48 8b 55 d0          	mov    -0x30(%rbp),%rdx
   112bd:	48 8b 5d d8          	mov    -0x28(%rbp),%rbx
   112c1:	4c 8b 65 e0          	mov    -0x20(%rbp),%r12
   112c5:	4c 8b 6d e8          	mov    -0x18(%rbp),%r13
   112c9:	4c 8b 75 f0          	mov    -0x10(%rbp),%r14
   112cd:	4c 8b 7d f8          	mov    -0x8(%rbp),%r15
   112d1:	48 8b 6d 00          	mov    0x0(%rbp),%rbp
   112d5:	48 89 cc             	mov    %rcx,%rsp
   112d8:	59                   	pop    %rcx
   112d9:	ff e1                	jmpq   *%rcx
   112db:	0f 1f 44 00 00       	nopl   0x0(%rax,%rax,1)

00000000000112e0 <_Unwind_ForcedUnwind@@GCC_3.0>:
   112e0:	f3 0f 1e fa          	endbr64 
   112e4:	55                   	push   %rbp
   112e5:	48 89 e5             	mov    %rsp,%rbp
   112e8:	41 57                	push   %r15
   112ea:	41 56                	push   %r14
   112ec:	4c 8d b5 e0 fd ff ff 	lea    -0x220(%rbp),%r14
   112f3:	41 55                	push   %r13
   112f5:	49 89 f5             	mov    %rsi,%r13
   112f8:	48 8d 75 10          	lea    0x10(%rbp),%rsi
   112fc:	41 54                	push   %r12
   112fe:	49 89 fc             	mov    %rdi,%r12
   11301:	4c 89 f7             	mov    %r14,%rdi
   11304:	53                   	push   %rbx
   11305:	48 89 d3             	mov    %rdx,%rbx
   11308:	52                   	push   %rdx
   11309:	50                   	push   %rax
   1130a:	48 81 ec f8 01 00 00 	sub    $0x1f8,%rsp
   11311:	48 8b 55 08          	mov    0x8(%rbp),%rdx
   11315:	e8 b6 f6 ff ff       	callq  109d0 <_Unwind_GetTextRelBase@@GCC_3.0+0x1c60>
   1131a:	f3 0f 6f 85 e0 fd ff 	movdqu -0x220(%rbp),%xmm0
   11321:	ff 
   11322:	4c 89 e7             	mov    %r12,%rdi
   11325:	f3 0f 6f 8d f0 fd ff 	movdqu -0x210(%rbp),%xmm1
   1132c:	ff 
   1132d:	f3 0f 6f 95 00 fe ff 	movdqu -0x200(%rbp),%xmm2
   11334:	ff 
   11335:	f3 0f 6f 9d 10 fe ff 	movdqu -0x1f0(%rbp),%xmm3
   1133c:	ff 
   1133d:	4d 89 6c 24 10       	mov    %r13,0x10(%r12)
   11342:	4c 8d ad d0 fe ff ff 	lea    -0x130(%rbp),%r13
   11349:	f3 0f 6f a5 20 fe ff 	movdqu -0x1e0(%rbp),%xmm4
   11350:	ff 
   11351:	f3 0f 6f ad 30 fe ff 	movdqu -0x1d0(%rbp),%xmm5
   11358:	ff 
   11359:	4c 89 ee             	mov    %r13,%rsi
   1135c:	49 89 5c 24 18       	mov    %rbx,0x18(%r12)
   11361:	f3 0f 6f b5 40 fe ff 	movdqu -0x1c0(%rbp),%xmm6
   11368:	ff 
   11369:	f3 0f 6f bd 50 fe ff 	movdqu -0x1b0(%rbp),%xmm7
   11370:	ff 
   11371:	0f 11 85 d0 fe ff ff 	movups %xmm0,-0x130(%rbp)
   11378:	48 8d 95 d8 fd ff ff 	lea    -0x228(%rbp),%rdx
   1137f:	f3 0f 6f 85 60 fe ff 	movdqu -0x1a0(%rbp),%xmm0
   11386:	ff 
   11387:	0f 11 8d e0 fe ff ff 	movups %xmm1,-0x120(%rbp)
   1138e:	f3 0f 6f 8d 70 fe ff 	movdqu -0x190(%rbp),%xmm1
   11395:	ff 
   11396:	0f 11 95 f0 fe ff ff 	movups %xmm2,-0x110(%rbp)
   1139d:	f3 0f 6f 95 80 fe ff 	movdqu -0x180(%rbp),%xmm2
   113a4:	ff 
   113a5:	0f 11 9d 00 ff ff ff 	movups %xmm3,-0x100(%rbp)
   113ac:	f3 0f 6f 9d 90 fe ff 	movdqu -0x170(%rbp),%xmm3
   113b3:	ff 
   113b4:	0f 11 a5 10 ff ff ff 	movups %xmm4,-0xf0(%rbp)
   113bb:	f3 0f 6f a5 a0 fe ff 	movdqu -0x160(%rbp),%xmm4
   113c2:	ff 
   113c3:	0f 11 ad 20 ff ff ff 	movups %xmm5,-0xe0(%rbp)
   113ca:	f3 0f 6f ad b0 fe ff 	movdqu -0x150(%rbp),%xmm5
   113d1:	ff 
   113d2:	0f 11 b5 30 ff ff ff 	movups %xmm6,-0xd0(%rbp)
   113d9:	f3 0f 6f b5 c0 fe ff 	movdqu -0x140(%rbp),%xmm6
   113e0:	ff 
   113e1:	0f 11 bd 40 ff ff ff 	movups %xmm7,-0xc0(%rbp)
   113e8:	0f 11 85 50 ff ff ff 	movups %xmm0,-0xb0(%rbp)
   113ef:	0f 11 8d 60 ff ff ff 	movups %xmm1,-0xa0(%rbp)
   113f6:	0f 11 95 70 ff ff ff 	movups %xmm2,-0x90(%rbp)
   113fd:	0f 11 5d 80          	movups %xmm3,-0x80(%rbp)
   11401:	0f 11 65 90          	movups %xmm4,-0x70(%rbp)
   11405:	0f 11 6d a0          	movups %xmm5,-0x60(%rbp)
   11409:	0f 11 75 b0          	movups %xmm6,-0x50(%rbp)
   1140d:	e8 8e f8 ff ff       	callq  10ca0 <_Unwind_GetTextRelBase@@GCC_3.0+0x1f30>
   11412:	83 f8 07             	cmp    $0x7,%eax
   11415:	74 16                	je     1142d <_Unwind_ForcedUnwind@@GCC_3.0+0x14d>
   11417:	48 8b 5d d8          	mov    -0x28(%rbp),%rbx
   1141b:	4c 8b 65 e0          	mov    -0x20(%rbp),%r12
   1141f:	4c 8b 6d e8          	mov    -0x18(%rbp),%r13
   11423:	4c 8b 75 f0          	mov    -0x10(%rbp),%r14
   11427:	4c 8b 7d f8          	mov    -0x8(%rbp),%r15
   1142b:	c9                   	leaveq 
   1142c:	c3                   	retq   
   1142d:	4c 89 ee             	mov    %r13,%rsi
   11430:	4c 89 f7             	mov    %r14,%rdi
   11433:	e8 38 d6 ff ff       	callq  ea70 <__enable_execute_stack@@GCC_3.4.2+0x90>
   11438:	48 8b b5 68 ff ff ff 	mov    -0x98(%rbp),%rsi
   1143f:	48 8b bd 60 ff ff ff 	mov    -0xa0(%rbp),%rdi
   11446:	48 89 c1             	mov    %rax,%rcx
   11449:	e8 f2 fa ff ff       	callq  10f40 <_Unwind_GetTextRelBase@@GCC_3.0+0x21d0>
   1144e:	48 8d 4c 0d 08       	lea    0x8(%rbp,%rcx,1),%rcx
   11453:	48 89 74 05 08       	mov    %rsi,0x8(%rbp,%rax,1)
   11458:	48 8b 45 c8          	mov    -0x38(%rbp),%rax
   1145c:	48 8b 55 d0          	mov    -0x30(%rbp),%rdx
   11460:	48 8b 5d d8          	mov    -0x28(%rbp),%rbx
   11464:	4c 8b 65 e0          	mov    -0x20(%rbp),%r12
   11468:	4c 8b 6d e8          	mov    -0x18(%rbp),%r13
   1146c:	4c 8b 75 f0          	mov    -0x10(%rbp),%r14
   11470:	4c 8b 7d f8          	mov    -0x8(%rbp),%r15
   11474:	48 8b 6d 00          	mov    0x0(%rbp),%rbp
   11478:	48 89 cc             	mov    %rcx,%rsp
   1147b:	59                   	pop    %rcx
   1147c:	ff e1                	jmpq   *%rcx
   1147e:	66 90                	xchg   %ax,%ax

0000000000011480 <_Unwind_Resume@@GCC_3.0>:
   11480:	f3 0f 1e fa          	endbr64 
   11484:	55                   	push   %rbp
   11485:	48 89 e5             	mov    %rsp,%rbp
   11488:	41 57                	push   %r15
   1148a:	41 56                	push   %r14
   1148c:	48 8d 75 10          	lea    0x10(%rbp),%rsi
   11490:	4c 8d b5 d0 fe ff ff 	lea    -0x130(%rbp),%r14
   11497:	41 55                	push   %r13
   11499:	4c 8d ad e0 fd ff ff 	lea    -0x220(%rbp),%r13
   114a0:	41 54                	push   %r12
   114a2:	49 89 fc             	mov    %rdi,%r12
   114a5:	4c 89 ef             	mov    %r13,%rdi
   114a8:	53                   	push   %rbx
   114a9:	52                   	push   %rdx
   114aa:	50                   	push   %rax
   114ab:	48 81 ec f8 01 00 00 	sub    $0x1f8,%rsp
   114b2:	48 8b 55 08          	mov    0x8(%rbp),%rdx
   114b6:	e8 15 f5 ff ff       	callq  109d0 <_Unwind_GetTextRelBase@@GCC_3.0+0x1c60>
   114bb:	f3 0f 6f 85 e0 fd ff 	movdqu -0x220(%rbp),%xmm0
   114c2:	ff 
   114c3:	4c 89 f6             	mov    %r14,%rsi
   114c6:	f3 0f 6f 8d f0 fd ff 	movdqu -0x210(%rbp),%xmm1
   114cd:	ff 
   114ce:	f3 0f 6f 95 00 fe ff 	movdqu -0x200(%rbp),%xmm2
   114d5:	ff 
   114d6:	f3 0f 6f 9d 10 fe ff 	movdqu -0x1f0(%rbp),%xmm3
   114dd:	ff 
   114de:	48 8d 95 d8 fd ff ff 	lea    -0x228(%rbp),%rdx
   114e5:	4c 89 e7             	mov    %r12,%rdi
   114e8:	f3 0f 6f a5 20 fe ff 	movdqu -0x1e0(%rbp),%xmm4
   114ef:	ff 
   114f0:	f3 0f 6f ad 30 fe ff 	movdqu -0x1d0(%rbp),%xmm5
   114f7:	ff 
   114f8:	0f 11 85 d0 fe ff ff 	movups %xmm0,-0x130(%rbp)
   114ff:	f3 0f 6f b5 40 fe ff 	movdqu -0x1c0(%rbp),%xmm6
   11506:	ff 
   11507:	f3 0f 6f bd 50 fe ff 	movdqu -0x1b0(%rbp),%xmm7
   1150e:	ff 
   1150f:	0f 11 8d e0 fe ff ff 	movups %xmm1,-0x120(%rbp)
   11516:	f3 0f 6f 85 60 fe ff 	movdqu -0x1a0(%rbp),%xmm0
   1151d:	ff 
   1151e:	f3 0f 6f 8d 70 fe ff 	movdqu -0x190(%rbp),%xmm1
   11525:	ff 
   11526:	0f 11 95 f0 fe ff ff 	movups %xmm2,-0x110(%rbp)
   1152d:	0f 11 9d 00 ff ff ff 	movups %xmm3,-0x100(%rbp)
   11534:	f3 0f 6f 95 80 fe ff 	movdqu -0x180(%rbp),%xmm2
   1153b:	ff 
   1153c:	f3 0f 6f 9d 90 fe ff 	movdqu -0x170(%rbp),%xmm3
   11543:	ff 
   11544:	0f 11 a5 10 ff ff ff 	movups %xmm4,-0xf0(%rbp)
   1154b:	f3 0f 6f a5 a0 fe ff 	movdqu -0x160(%rbp),%xmm4
   11552:	ff 
   11553:	49 83 7c 24 10 00    	cmpq   $0x0,0x10(%r12)
   11559:	0f 11 ad 20 ff ff ff 	movups %xmm5,-0xe0(%rbp)
   11560:	f3 0f 6f ad b0 fe ff 	movdqu -0x150(%rbp),%xmm5
   11567:	ff 
   11568:	0f 11 b5 30 ff ff ff 	movups %xmm6,-0xd0(%rbp)
   1156f:	f3 0f 6f b5 c0 fe ff 	movdqu -0x140(%rbp),%xmm6
   11576:	ff 
   11577:	0f 11 bd 40 ff ff ff 	movups %xmm7,-0xc0(%rbp)
   1157e:	0f 11 85 50 ff ff ff 	movups %xmm0,-0xb0(%rbp)
   11585:	0f 11 8d 60 ff ff ff 	movups %xmm1,-0xa0(%rbp)
   1158c:	0f 11 95 70 ff ff ff 	movups %xmm2,-0x90(%rbp)
   11593:	0f 11 5d 80          	movups %xmm3,-0x80(%rbp)
   11597:	0f 11 65 90          	movups %xmm4,-0x70(%rbp)
   1159b:	0f 11 6d a0          	movups %xmm5,-0x60(%rbp)
   1159f:	0f 11 75 b0          	movups %xmm6,-0x50(%rbp)
   115a3:	75 6b                	jne    11610 <_Unwind_Resume@@GCC_3.0+0x190>
   115a5:	e8 a6 f5 ff ff       	callq  10b50 <_Unwind_GetTextRelBase@@GCC_3.0+0x1de0>
   115aa:	83 f8 07             	cmp    $0x7,%eax
   115ad:	0f 85 be 20 ff ff    	jne    3671 <_Unwind_GetDataRelBase@plt+0xa1>
   115b3:	4c 89 f6             	mov    %r14,%rsi
   115b6:	4c 89 ef             	mov    %r13,%rdi
   115b9:	e8 b2 d4 ff ff       	callq  ea70 <__enable_execute_stack@@GCC_3.4.2+0x90>
   115be:	48 8b 95 68 ff ff ff 	mov    -0x98(%rbp),%rdx
   115c5:	48 8b bd 60 ff ff ff 	mov    -0xa0(%rbp),%rdi
   115cc:	48 89 c1             	mov    %rax,%rcx
   115cf:	48 8d 4c 0d 08       	lea    0x8(%rbp,%rcx,1),%rcx
   115d4:	48 89 d6             	mov    %rdx,%rsi
   115d7:	e8 64 f9 ff ff       	callq  10f40 <_Unwind_GetTextRelBase@@GCC_3.0+0x21d0>
   115dc:	48 89 54 05 08       	mov    %rdx,0x8(%rbp,%rax,1)
   115e1:	48 8b 45 c8          	mov    -0x38(%rbp),%rax
   115e5:	48 8b 55 d0          	mov    -0x30(%rbp),%rdx
   115e9:	48 8b 5d d8          	mov    -0x28(%rbp),%rbx
   115ed:	4c 8b 65 e0          	mov    -0x20(%rbp),%r12
   115f1:	4c 8b 6d e8          	mov    -0x18(%rbp),%r13
   115f5:	4c 8b 75 f0          	mov    -0x10(%rbp),%r14
   115f9:	4c 8b 7d f8          	mov    -0x8(%rbp),%r15
   115fd:	48 8b 6d 00          	mov    0x0(%rbp),%rbp
   11601:	48 89 cc             	mov    %rcx,%rsp
   11604:	59                   	pop    %rcx
   11605:	ff e1                	jmpq   *%rcx
   11607:	66 0f 1f 84 00 00 00 	nopw   0x0(%rax,%rax,1)
   1160e:	00 00 
   11610:	e8 8b f6 ff ff       	callq  10ca0 <_Unwind_GetTextRelBase@@GCC_3.0+0x1f30>
   11615:	eb 93                	jmp    115aa <_Unwind_Resume@@GCC_3.0+0x12a>
   11617:	66 0f 1f 84 00 00 00 	nopw   0x0(%rax,%rax,1)
   1161e:	00 00 

0000000000011620 <_Unwind_Resume_or_Rethrow@@GCC_3.3>:
   11620:	f3 0f 1e fa          	endbr64 
   11624:	55                   	push   %rbp
   11625:	48 89 e5             	mov    %rsp,%rbp
   11628:	41 57                	push   %r15
   1162a:	41 56                	push   %r14
   1162c:	41 55                	push   %r13
   1162e:	41 54                	push   %r12
   11630:	49 89 fc             	mov    %rdi,%r12
   11633:	53                   	push   %rbx
   11634:	52                   	push   %rdx
   11635:	50                   	push   %rax
   11636:	48 81 ec f8 01 00 00 	sub    $0x1f8,%rsp
   1163d:	48 83 7f 10 00       	cmpq   $0x0,0x10(%rdi)
   11642:	75 1b                	jne    1165f <_Unwind_Resume_or_Rethrow@@GCC_3.3+0x3f>
   11644:	e8 f7 1c ff ff       	callq  3340 <_Unwind_RaiseException@plt>
   11649:	48 8b 5d d8          	mov    -0x28(%rbp),%rbx
   1164d:	4c 8b 65 e0          	mov    -0x20(%rbp),%r12
   11651:	4c 8b 6d e8          	mov    -0x18(%rbp),%r13
   11655:	4c 8b 75 f0          	mov    -0x10(%rbp),%r14
   11659:	4c 8b 7d f8          	mov    -0x8(%rbp),%r15
   1165d:	c9                   	leaveq 
   1165e:	c3                   	retq   
   1165f:	48 8b 55 08          	mov    0x8(%rbp),%rdx
   11663:	4c 8d ad e0 fd ff ff 	lea    -0x220(%rbp),%r13
   1166a:	48 8d 75 10          	lea    0x10(%rbp),%rsi
   1166e:	4c 89 ef             	mov    %r13,%rdi
   11671:	4c 8d b5 d0 fe ff ff 	lea    -0x130(%rbp),%r14
   11678:	e8 53 f3 ff ff       	callq  109d0 <_Unwind_GetTextRelBase@@GCC_3.0+0x1c60>
   1167d:	48 8d bd d0 fe ff ff 	lea    -0x130(%rbp),%rdi
   11684:	4c 89 ee             	mov    %r13,%rsi
   11687:	b9 3c 00 00 00       	mov    $0x3c,%ecx
   1168c:	f3 a5                	rep movsl %ds:(%rsi),%es:(%rdi)
   1168e:	48 8d 95 d8 fd ff ff 	lea    -0x228(%rbp),%rdx
   11695:	4c 89 f6             	mov    %r14,%rsi
   11698:	4c 89 e7             	mov    %r12,%rdi
   1169b:	e8 00 f6 ff ff       	callq  10ca0 <_Unwind_GetTextRelBase@@GCC_3.0+0x1f30>
   116a0:	83 f8 07             	cmp    $0x7,%eax
   116a3:	0f 85 cd 1f ff ff    	jne    3676 <_Unwind_GetDataRelBase@plt+0xa6>
   116a9:	4c 89 f6             	mov    %r14,%rsi
   116ac:	4c 89 ef             	mov    %r13,%rdi
   116af:	e8 bc d3 ff ff       	callq  ea70 <__enable_execute_stack@@GCC_3.4.2+0x90>
   116b4:	48 8b b5 68 ff ff ff 	mov    -0x98(%rbp),%rsi
   116bb:	48 8b bd 60 ff ff ff 	mov    -0xa0(%rbp),%rdi
   116c2:	48 89 c1             	mov    %rax,%rcx
   116c5:	e8 76 f8 ff ff       	callq  10f40 <_Unwind_GetTextRelBase@@GCC_3.0+0x21d0>
   116ca:	48 8d 4c 0d 08       	lea    0x8(%rbp,%rcx,1),%rcx
   116cf:	48 89 74 05 08       	mov    %rsi,0x8(%rbp,%rax,1)
   116d4:	48 8b 45 c8          	mov    -0x38(%rbp),%rax
   116d8:	48 8b 55 d0          	mov    -0x30(%rbp),%rdx
   116dc:	48 8b 5d d8          	mov    -0x28(%rbp),%rbx
   116e0:	4c 8b 65 e0          	mov    -0x20(%rbp),%r12
   116e4:	4c 8b 6d e8          	mov    -0x18(%rbp),%r13
   116e8:	4c 8b 75 f0          	mov    -0x10(%rbp),%r14
   116ec:	4c 8b 7d f8          	mov    -0x8(%rbp),%r15
   116f0:	48 8b 6d 00          	mov    0x0(%rbp),%rbp
   116f4:	48 89 cc             	mov    %rcx,%rsp
   116f7:	59                   	pop    %rcx
   116f8:	ff e1                	jmpq   *%rcx
   116fa:	66 0f 1f 44 00 00    	nopw   0x0(%rax,%rax,1)

0000000000011700 <_Unwind_DeleteException@@GCC_3.0>:
   11700:	f3 0f 1e fa          	endbr64 
   11704:	48 8b 47 08          	mov    0x8(%rdi),%rax
   11708:	48 89 fe             	mov    %rdi,%rsi
   1170b:	48 85 c0             	test   %rax,%rax
   1170e:	74 10                	je     11720 <_Unwind_DeleteException@@GCC_3.0+0x20>
   11710:	bf 01 00 00 00       	mov    $0x1,%edi
   11715:	ff e0                	jmpq   *%rax
   11717:	66 0f 1f 84 00 00 00 	nopw   0x0(%rax,%rax,1)
   1171e:	00 00 
   11720:	c3                   	retq   
   11721:	66 66 2e 0f 1f 84 00 	data16 nopw %cs:0x0(%rax,%rax,1)
   11728:	00 00 00 00 
   1172c:	0f 1f 40 00          	nopl   0x0(%rax)

0000000000011730 <_Unwind_Backtrace@@GCC_3.3>:
   11730:	f3 0f 1e fa          	endbr64 
   11734:	55                   	push   %rbp
   11735:	48 89 e5             	mov    %rsp,%rbp
   11738:	41 57                	push   %r15
   1173a:	41 56                	push   %r14
   1173c:	49 89 fe             	mov    %rdi,%r14
   1173f:	41 55                	push   %r13
   11741:	49 89 f5             	mov    %rsi,%r13
   11744:	48 8d 75 10          	lea    0x10(%rbp),%rsi
   11748:	41 54                	push   %r12
   1174a:	4c 8d a5 50 fe ff ff 	lea    -0x1b0(%rbp),%r12
   11751:	53                   	push   %rbx
   11752:	48 8d 9d 60 fd ff ff 	lea    -0x2a0(%rbp),%rbx
   11759:	48 89 df             	mov    %rbx,%rdi
   1175c:	48 81 ec 78 02 00 00 	sub    $0x278,%rsp
   11763:	48 8b 55 08          	mov    0x8(%rbp),%rdx
   11767:	e8 64 f2 ff ff       	callq  109d0 <_Unwind_GetTextRelBase@@GCC_3.0+0x1c60>
   1176c:	0f 1f 40 00          	nopl   0x0(%rax)
   11770:	4c 89 e6             	mov    %r12,%rsi
   11773:	48 89 df             	mov    %rbx,%rdi
   11776:	e8 85 e0 ff ff       	callq  f800 <_Unwind_GetTextRelBase@@GCC_3.0+0xa90>
   1177b:	41 89 c7             	mov    %eax,%r15d
   1177e:	85 c0                	test   %eax,%eax
   11780:	74 09                	je     1178b <_Unwind_Backtrace@@GCC_3.3+0x5b>
   11782:	83 f8 05             	cmp    $0x5,%eax
   11785:	0f 85 95 00 00 00    	jne    11820 <_Unwind_Backtrace@@GCC_3.3+0xf0>
   1178b:	4c 89 ee             	mov    %r13,%rsi
   1178e:	48 89 df             	mov    %rbx,%rdi
   11791:	41 ff d6             	callq  *%r14
   11794:	85 c0                	test   %eax,%eax
   11796:	0f 85 84 00 00 00    	jne    11820 <_Unwind_Backtrace@@GCC_3.3+0xf0>
   1179c:	41 83 ff 05          	cmp    $0x5,%r15d
   117a0:	0f 84 80 00 00 00    	je     11826 <_Unwind_Backtrace@@GCC_3.3+0xf6>
   117a6:	4c 89 e6             	mov    %r12,%rsi
   117a9:	48 89 df             	mov    %rbx,%rdi
   117ac:	e8 df ed ff ff       	callq  10590 <_Unwind_GetTextRelBase@@GCC_3.0+0x1820>
   117b1:	48 8b 45 b8          	mov    -0x48(%rbp),%rax
   117b5:	48 89 c2             	mov    %rax,%rdx
   117b8:	48 c1 e2 04          	shl    $0x4,%rdx
   117bc:	83 bc 15 58 fe ff ff 	cmpl   $0x6,-0x1a8(%rbp,%rdx,1)
   117c3:	06 
   117c4:	75 12                	jne    117d8 <_Unwind_Backtrace@@GCC_3.3+0xa8>
   117c6:	48 c7 85 f8 fd ff ff 	movq   $0x0,-0x208(%rbp)
   117cd:	00 00 00 00 
   117d1:	eb 9d                	jmp    11770 <_Unwind_Backtrace@@GCC_3.3+0x40>
   117d3:	0f 1f 44 00 00       	nopl   0x0(%rax,%rax,1)
   117d8:	83 f8 11             	cmp    $0x11,%eax
   117db:	0f 8f 9a 1e ff ff    	jg     367b <_Unwind_GetDataRelBase@plt+0xab>
   117e1:	48 98                	cltq   
   117e3:	48 8b 94 c5 60 fd ff 	mov    -0x2a0(%rbp,%rax,8),%rdx
   117ea:	ff 
   117eb:	f6 85 27 fe ff ff 40 	testb  $0x40,-0x1d9(%rbp)
   117f2:	74 0a                	je     117fe <_Unwind_Backtrace@@GCC_3.3+0xce>
   117f4:	80 bc 05 38 fe ff ff 	cmpb   $0x0,-0x1c8(%rbp,%rax,1)
   117fb:	00 
   117fc:	75 14                	jne    11812 <_Unwind_Backtrace@@GCC_3.3+0xe2>
   117fe:	48 8d 0d eb 89 00 00 	lea    0x89eb(%rip),%rcx        # 1a1f0 <__cpu_model@GCC_4.8.0+0x20>
   11805:	80 3c 01 08          	cmpb   $0x8,(%rcx,%rax,1)
   11809:	0f 85 6c 1e ff ff    	jne    367b <_Unwind_GetDataRelBase@plt+0xab>
   1180f:	48 8b 12             	mov    (%rdx),%rdx
   11812:	48 89 95 f8 fd ff ff 	mov    %rdx,-0x208(%rbp)
   11819:	e9 52 ff ff ff       	jmpq   11770 <_Unwind_Backtrace@@GCC_3.3+0x40>
   1181e:	66 90                	xchg   %ax,%ax
   11820:	41 bf 03 00 00 00    	mov    $0x3,%r15d
   11826:	48 81 c4 78 02 00 00 	add    $0x278,%rsp
   1182d:	44 89 f8             	mov    %r15d,%eax
   11830:	5b                   	pop    %rbx
   11831:	41 5c                	pop    %r12
   11833:	41 5d                	pop    %r13
   11835:	41 5e                	pop    %r14
   11837:	41 5f                	pop    %r15
   11839:	5d                   	pop    %rbp
   1183a:	c3                   	retq   
   1183b:	0f 1f 44 00 00       	nopl   0x0(%rax,%rax,1)
   11840:	f3 0f 1e fa          	endbr64 
   11844:	48 8b 4a 08          	mov    0x8(%rdx),%rcx
   11848:	b8 01 00 00 00       	mov    $0x1,%eax
   1184d:	48 39 4e 08          	cmp    %rcx,0x8(%rsi)
   11851:	77 02                	ja     11855 <_Unwind_Backtrace@@GCC_3.3+0x125>
   11853:	19 c0                	sbb    %eax,%eax
   11855:	c3                   	retq   
   11856:	66 2e 0f 1f 84 00 00 	nopw   %cs:0x0(%rax,%rax,1)
   1185d:	00 00 00 
   11860:	41 57                	push   %r15
   11862:	4c 63 c9             	movslq %ecx,%r9
   11865:	49 89 ff             	mov    %rdi,%r15
   11868:	41 56                	push   %r14
   1186a:	43 8d 4c 09 01       	lea    0x1(%r9,%r9,1),%ecx
   1186f:	41 55                	push   %r13
   11871:	45 89 c5             	mov    %r8d,%r13d
   11874:	41 54                	push   %r12
   11876:	49 89 d4             	mov    %rdx,%r12
   11879:	55                   	push   %rbp
   1187a:	53                   	push   %rbx
   1187b:	48 83 ec 18          	sub    $0x18,%rsp
   1187f:	48 89 34 24          	mov    %rsi,(%rsp)
   11883:	44 39 c1             	cmp    %r8d,%ecx
   11886:	7c 66                	jl     118ee <_Unwind_Backtrace@@GCC_3.3+0x1be>
   11888:	eb 7e                	jmp    11908 <_Unwind_Backtrace@@GCC_3.3+0x1d8>
   1188a:	66 0f 1f 44 00 00    	nopw   0x0(%rax,%rax,1)
   11890:	4d 8d 74 04 08       	lea    0x8(%r12,%rax,1),%r14
   11895:	44 89 4c 24 0c       	mov    %r9d,0xc(%rsp)
   1189a:	48 8b 33             	mov    (%rbx),%rsi
   1189d:	4c 89 ff             	mov    %r15,%rdi
   118a0:	49 8b 16             	mov    (%r14),%rdx
   118a3:	48 8b 04 24          	mov    (%rsp),%rax
   118a7:	89 4c 24 08          	mov    %ecx,0x8(%rsp)
   118ab:	ff d0                	callq  *%rax
   118ad:	8b 4c 24 08          	mov    0x8(%rsp),%ecx
   118b1:	4c 63 4c 24 0c       	movslq 0xc(%rsp),%r9
   118b6:	85 c0                	test   %eax,%eax
   118b8:	0f 49 e9             	cmovns %ecx,%ebp
   118bb:	49 0f 48 de          	cmovs  %r14,%rbx
   118bf:	4f 8d 34 cc          	lea    (%r12,%r9,8),%r14
   118c3:	48 8b 13             	mov    (%rbx),%rdx
   118c6:	48 8b 04 24          	mov    (%rsp),%rax
   118ca:	4c 89 ff             	mov    %r15,%rdi
   118cd:	49 8b 36             	mov    (%r14),%rsi
   118d0:	ff d0                	callq  *%rax
   118d2:	85 c0                	test   %eax,%eax
   118d4:	79 32                	jns    11908 <_Unwind_Backtrace@@GCC_3.3+0x1d8>
   118d6:	49 8b 06             	mov    (%r14),%rax
   118d9:	48 8b 13             	mov    (%rbx),%rdx
   118dc:	8d 4c 2d 01          	lea    0x1(%rbp,%rbp,1),%ecx
   118e0:	49 89 16             	mov    %rdx,(%r14)
   118e3:	48 89 03             	mov    %rax,(%rbx)
   118e6:	41 39 cd             	cmp    %ecx,%r13d
   118e9:	7e 1d                	jle    11908 <_Unwind_Backtrace@@GCC_3.3+0x1d8>
   118eb:	4c 63 cd             	movslq %ebp,%r9
   118ee:	48 63 c1             	movslq %ecx,%rax
   118f1:	8d 69 01             	lea    0x1(%rcx),%ebp
   118f4:	48 c1 e0 03          	shl    $0x3,%rax
   118f8:	49 8d 1c 04          	lea    (%r12,%rax,1),%rbx
   118fc:	44 39 ed             	cmp    %r13d,%ebp
   118ff:	7c 8f                	jl     11890 <_Unwind_Backtrace@@GCC_3.3+0x160>
   11901:	89 cd                	mov    %ecx,%ebp
   11903:	eb ba                	jmp    118bf <_Unwind_Backtrace@@GCC_3.3+0x18f>
   11905:	0f 1f 00             	nopl   (%rax)
   11908:	48 83 c4 18          	add    $0x18,%rsp
   1190c:	5b                   	pop    %rbx
   1190d:	5d                   	pop    %rbp
   1190e:	41 5c                	pop    %r12
   11910:	41 5d                	pop    %r13
   11912:	41 5e                	pop    %r14
   11914:	41 5f                	pop    %r15
   11916:	c3                   	retq   
   11917:	66 0f 1f 84 00 00 00 	nopw   0x0(%rax,%rax,1)
   1191e:	00 00 
   11920:	41 57                	push   %r15
   11922:	41 56                	push   %r14
   11924:	4c 8d 72 10          	lea    0x10(%rdx),%r14
   11928:	41 55                	push   %r13
   1192a:	49 89 f5             	mov    %rsi,%r13
   1192d:	41 54                	push   %r12
   1192f:	49 89 fc             	mov    %rdi,%r12
   11932:	55                   	push   %rbp
   11933:	48 89 d5             	mov    %rdx,%rbp
   11936:	53                   	push   %rbx
   11937:	48 83 ec 18          	sub    $0x18,%rsp
   1193b:	48 8b 42 08          	mov    0x8(%rdx),%rax
   1193f:	48 89 c3             	mov    %rax,%rbx
   11942:	48 89 44 24 08       	mov    %rax,0x8(%rsp)
   11947:	41 89 c7             	mov    %eax,%r15d
   1194a:	48 d1 eb             	shr    %rbx
   1194d:	83 eb 01             	sub    $0x1,%ebx
   11950:	78 1e                	js     11970 <_Unwind_Backtrace@@GCC_3.3+0x240>
   11952:	66 0f 1f 44 00 00    	nopw   0x0(%rax,%rax,1)
   11958:	89 d9                	mov    %ebx,%ecx
   1195a:	45 89 f8             	mov    %r15d,%r8d
   1195d:	4c 89 f2             	mov    %r14,%rdx
   11960:	4c 89 ee             	mov    %r13,%rsi
   11963:	4c 89 e7             	mov    %r12,%rdi
   11966:	e8 f5 fe ff ff       	callq  11860 <_Unwind_Backtrace@@GCC_3.3+0x130>
   1196b:	83 eb 01             	sub    $0x1,%ebx
   1196e:	73 e8                	jae    11958 <_Unwind_Backtrace@@GCC_3.3+0x228>
   11970:	44 8b 7c 24 08       	mov    0x8(%rsp),%r15d
   11975:	41 83 ef 01          	sub    $0x1,%r15d
   11979:	49 63 df             	movslq %r15d,%rbx
   1197c:	45 85 ff             	test   %r15d,%r15d
   1197f:	7e 34                	jle    119b5 <_Unwind_Backtrace@@GCC_3.3+0x285>
   11981:	0f 1f 80 00 00 00 00 	nopl   0x0(%rax)
   11988:	48 8b 54 dd 10       	mov    0x10(%rbp,%rbx,8),%rdx
   1198d:	48 8b 45 10          	mov    0x10(%rbp),%rax
   11991:	41 89 d8             	mov    %ebx,%r8d
   11994:	31 c9                	xor    %ecx,%ecx
   11996:	4c 89 ee             	mov    %r13,%rsi
   11999:	4c 89 e7             	mov    %r12,%rdi
   1199c:	48 89 55 10          	mov    %rdx,0x10(%rbp)
   119a0:	4c 89 f2             	mov    %r14,%rdx
   119a3:	48 89 44 dd 10       	mov    %rax,0x10(%rbp,%rbx,8)
   119a8:	48 83 eb 01          	sub    $0x1,%rbx
   119ac:	e8 af fe ff ff       	callq  11860 <_Unwind_Backtrace@@GCC_3.3+0x130>
   119b1:	85 db                	test   %ebx,%ebx
   119b3:	7f d3                	jg     11988 <_Unwind_Backtrace@@GCC_3.3+0x258>
   119b5:	48 83 c4 18          	add    $0x18,%rsp
   119b9:	5b                   	pop    %rbx
   119ba:	5d                   	pop    %rbp
   119bb:	41 5c                	pop    %r12
   119bd:	41 5d                	pop    %r13
   119bf:	41 5e                	pop    %r14
   119c1:	41 5f                	pop    %r15
   119c3:	c3                   	retq   
   119c4:	66 66 2e 0f 1f 84 00 	data16 nopw %cs:0x0(%rax,%rax,1)
   119cb:	00 00 00 00 
   119cf:	90                   	nop
   119d0:	49 89 f1             	mov    %rsi,%r9
   119d3:	49 89 c8             	mov    %rcx,%r8
   119d6:	48 89 d6             	mov    %rdx,%rsi
   119d9:	40 80 ff 50          	cmp    $0x50,%dil
   119dd:	74 51                	je     11a30 <_Unwind_Backtrace@@GCC_3.3+0x300>
   119df:	89 f8                	mov    %edi,%eax
   119e1:	48 83 ec 08          	sub    $0x8,%rsp
   119e5:	83 e0 0f             	and    $0xf,%eax
   119e8:	3c 0c                	cmp    $0xc,%al
   119ea:	0f 87 90 1c ff ff    	ja     3680 <_Unwind_GetDataRelBase@plt+0xb0>
   119f0:	48 8d 15 51 42 00 00 	lea    0x4251(%rip),%rdx        # 15c48 <__emutls_register_common@@GCC_4.3.0+0x1c38>
   119f7:	0f b6 c0             	movzbl %al,%eax
   119fa:	48 63 04 82          	movslq (%rdx,%rax,4),%rax
   119fe:	48 01 d0             	add    %rdx,%rax
   11a01:	3e ff e0             	notrack jmpq *%rax
   11a04:	0f 1f 40 00          	nopl   0x0(%rax)
   11a08:	48 8b 16             	mov    (%rsi),%rdx
   11a0b:	48 8d 46 08          	lea    0x8(%rsi),%rax
   11a0f:	48 85 d2             	test   %rdx,%rdx
   11a12:	74 14                	je     11a28 <_Unwind_Backtrace@@GCC_3.3+0x2f8>
   11a14:	89 f9                	mov    %edi,%ecx
   11a16:	83 e1 70             	and    $0x70,%ecx
   11a19:	80 f9 10             	cmp    $0x10,%cl
   11a1c:	4c 0f 44 ce          	cmove  %rsi,%r9
   11a20:	4c 01 ca             	add    %r9,%rdx
   11a23:	40 84 ff             	test   %dil,%dil
   11a26:	78 20                	js     11a48 <_Unwind_Backtrace@@GCC_3.3+0x318>
   11a28:	49 89 10             	mov    %rdx,(%r8)
   11a2b:	48 83 c4 08          	add    $0x8,%rsp
   11a2f:	c3                   	retq   
   11a30:	48 8d 42 07          	lea    0x7(%rdx),%rax
   11a34:	48 83 e0 f8          	and    $0xfffffffffffffff8,%rax
   11a38:	48 8b 10             	mov    (%rax),%rdx
   11a3b:	48 8d 40 08          	lea    0x8(%rax),%rax
   11a3f:	48 89 11             	mov    %rdx,(%rcx)
   11a42:	c3                   	retq   
   11a43:	0f 1f 44 00 00       	nopl   0x0(%rax,%rax,1)
   11a48:	48 8b 12             	mov    (%rdx),%rdx
   11a4b:	49 89 10             	mov    %rdx,(%r8)
   11a4e:	48 83 c4 08          	add    $0x8,%rsp
   11a52:	c3                   	retq   
   11a53:	0f 1f 44 00 00       	nopl   0x0(%rax,%rax,1)
   11a58:	0f b7 16             	movzwl (%rsi),%edx
   11a5b:	48 8d 46 02          	lea    0x2(%rsi),%rax
   11a5f:	eb ae                	jmp    11a0f <_Unwind_Backtrace@@GCC_3.3+0x2df>
   11a61:	0f 1f 80 00 00 00 00 	nopl   0x0(%rax)
   11a68:	8b 16                	mov    (%rsi),%edx
   11a6a:	48 8d 46 04          	lea    0x4(%rsi),%rax
   11a6e:	eb 9f                	jmp    11a0f <_Unwind_Backtrace@@GCC_3.3+0x2df>
   11a70:	48 63 16             	movslq (%rsi),%rdx
   11a73:	48 8d 46 04          	lea    0x4(%rsi),%rax
   11a77:	eb 96                	jmp    11a0f <_Unwind_Backtrace@@GCC_3.3+0x2df>
   11a79:	0f 1f 80 00 00 00 00 	nopl   0x0(%rax)
   11a80:	48 0f bf 16          	movswq (%rsi),%rdx
   11a84:	48 8d 46 02          	lea    0x2(%rsi),%rax
   11a88:	eb 85                	jmp    11a0f <_Unwind_Backtrace@@GCC_3.3+0x2df>
   11a8a:	66 0f 1f 44 00 00    	nopw   0x0(%rax,%rax,1)
   11a90:	48 89 f0             	mov    %rsi,%rax
   11a93:	31 d2                	xor    %edx,%edx
   11a95:	31 c9                	xor    %ecx,%ecx
   11a97:	66 0f 1f 84 00 00 00 	nopw   0x0(%rax,%rax,1)
   11a9e:	00 00 
   11aa0:	44 0f b6 18          	movzbl (%rax),%r11d
   11aa4:	48 83 c0 01          	add    $0x1,%rax
   11aa8:	4d 89 da             	mov    %r11,%r10
   11aab:	41 83 e2 7f          	and    $0x7f,%r10d
   11aaf:	49 d3 e2             	shl    %cl,%r10
   11ab2:	83 c1 07             	add    $0x7,%ecx
   11ab5:	4c 09 d2             	or     %r10,%rdx
   11ab8:	45 84 db             	test   %r11b,%r11b
   11abb:	78 e3                	js     11aa0 <_Unwind_Backtrace@@GCC_3.3+0x370>
   11abd:	e9 4d ff ff ff       	jmpq   11a0f <_Unwind_Backtrace@@GCC_3.3+0x2df>
   11ac2:	66 0f 1f 44 00 00    	nopw   0x0(%rax,%rax,1)
   11ac8:	48 89 f0             	mov    %rsi,%rax
   11acb:	31 d2                	xor    %edx,%edx
   11acd:	31 c9                	xor    %ecx,%ecx
   11acf:	90                   	nop
   11ad0:	44 0f b6 18          	movzbl (%rax),%r11d
   11ad4:	48 83 c0 01          	add    $0x1,%rax
   11ad8:	4d 89 da             	mov    %r11,%r10
   11adb:	41 83 e2 7f          	and    $0x7f,%r10d
   11adf:	49 d3 e2             	shl    %cl,%r10
   11ae2:	83 c1 07             	add    $0x7,%ecx
   11ae5:	4c 09 d2             	or     %r10,%rdx
   11ae8:	45 84 db             	test   %r11b,%r11b
   11aeb:	78 e3                	js     11ad0 <_Unwind_Backtrace@@GCC_3.3+0x3a0>
   11aed:	83 f9 3f             	cmp    $0x3f,%ecx
   11af0:	0f 87 19 ff ff ff    	ja     11a0f <_Unwind_Backtrace@@GCC_3.3+0x2df>
   11af6:	41 83 e3 40          	and    $0x40,%r11d
   11afa:	0f 84 0f ff ff ff    	je     11a0f <_Unwind_Backtrace@@GCC_3.3+0x2df>
   11b00:	49 c7 c2 ff ff ff ff 	mov    $0xffffffffffffffff,%r10
   11b07:	49 d3 e2             	shl    %cl,%r10
   11b0a:	4c 09 d2             	or     %r10,%rdx
   11b0d:	e9 02 ff ff ff       	jmpq   11a14 <_Unwind_Backtrace@@GCC_3.3+0x2e4>
   11b12:	66 66 2e 0f 1f 84 00 	data16 nopw %cs:0x0(%rax,%rax,1)
   11b19:	00 00 00 00 
   11b1d:	0f 1f 00             	nopl   (%rax)
   11b20:	55                   	push   %rbp
   11b21:	48 89 fd             	mov    %rdi,%rbp
   11b24:	53                   	push   %rbx
   11b25:	48 8d 5f 09          	lea    0x9(%rdi),%rbx
   11b29:	48 89 df             	mov    %rbx,%rdi
   11b2c:	48 83 ec 18          	sub    $0x18,%rsp
   11b30:	e8 8b 18 ff ff       	callq  33c0 <strlen@plt>
   11b35:	0f b6 4d 08          	movzbl 0x8(%rbp),%ecx
   11b39:	48 8d 44 03 01       	lea    0x1(%rbx,%rax,1),%rax
   11b3e:	80 f9 03             	cmp    $0x3,%cl
   11b41:	0f 87 d9 00 00 00    	ja     11c20 <_Unwind_Backtrace@@GCC_3.3+0x4f0>
   11b47:	80 7d 09 7a          	cmpb   $0x7a,0x9(%rbp)
   11b4b:	74 13                	je     11b60 <_Unwind_Backtrace@@GCC_3.3+0x430>
   11b4d:	45 31 c0             	xor    %r8d,%r8d
   11b50:	48 83 c4 18          	add    $0x18,%rsp
   11b54:	44 89 c0             	mov    %r8d,%eax
   11b57:	5b                   	pop    %rbx
   11b58:	5d                   	pop    %rbp
   11b59:	c3                   	retq   
   11b5a:	66 0f 1f 44 00 00    	nopw   0x0(%rax,%rax,1)
   11b60:	48 83 c0 01          	add    $0x1,%rax
   11b64:	80 78 ff 00          	cmpb   $0x0,-0x1(%rax)
   11b68:	78 f6                	js     11b60 <_Unwind_Backtrace@@GCC_3.3+0x430>
   11b6a:	66 0f 1f 44 00 00    	nopw   0x0(%rax,%rax,1)
   11b70:	48 89 c2             	mov    %rax,%rdx
   11b73:	48 83 c0 01          	add    $0x1,%rax
   11b77:	80 78 ff 00          	cmpb   $0x0,-0x1(%rax)
   11b7b:	78 f3                	js     11b70 <_Unwind_Backtrace@@GCC_3.3+0x440>
   11b7d:	80 f9 01             	cmp    $0x1,%cl
   11b80:	0f 84 8a 00 00 00    	je     11c10 <_Unwind_Backtrace@@GCC_3.3+0x4e0>
   11b86:	66 2e 0f 1f 84 00 00 	nopw   %cs:0x0(%rax,%rax,1)
   11b8d:	00 00 00 
   11b90:	48 83 c0 01          	add    $0x1,%rax
   11b94:	80 78 ff 00          	cmpb   $0x0,-0x1(%rax)
   11b98:	78 f6                	js     11b90 <_Unwind_Backtrace@@GCC_3.3+0x460>
   11b9a:	48 8d 5d 0a          	lea    0xa(%rbp),%rbx
   11b9e:	66 90                	xchg   %ax,%ax
   11ba0:	48 83 c0 01          	add    $0x1,%rax
   11ba4:	80 78 ff 00          	cmpb   $0x0,-0x1(%rax)
   11ba8:	78 f6                	js     11ba0 <_Unwind_Backtrace@@GCC_3.3+0x470>
   11baa:	0f b6 55 0a          	movzbl 0xa(%rbp),%edx
   11bae:	48 8d 6c 24 08       	lea    0x8(%rsp),%rbp
   11bb3:	80 fa 52             	cmp    $0x52,%dl
   11bb6:	75 23                	jne    11bdb <_Unwind_Backtrace@@GCC_3.3+0x4ab>
   11bb8:	eb 46                	jmp    11c00 <_Unwind_Backtrace@@GCC_3.3+0x4d0>
   11bba:	66 0f 1f 44 00 00    	nopw   0x0(%rax,%rax,1)
   11bc0:	80 fa 4c             	cmp    $0x4c,%dl
   11bc3:	74 05                	je     11bca <_Unwind_Backtrace@@GCC_3.3+0x49a>
   11bc5:	80 fa 42             	cmp    $0x42,%dl
   11bc8:	75 83                	jne    11b4d <_Unwind_Backtrace@@GCC_3.3+0x41d>
   11bca:	0f b6 53 01          	movzbl 0x1(%rbx),%edx
   11bce:	48 83 c3 01          	add    $0x1,%rbx
   11bd2:	48 83 c0 01          	add    $0x1,%rax
   11bd6:	80 fa 52             	cmp    $0x52,%dl
   11bd9:	74 25                	je     11c00 <_Unwind_Backtrace@@GCC_3.3+0x4d0>
   11bdb:	80 fa 50             	cmp    $0x50,%dl
   11bde:	75 e0                	jne    11bc0 <_Unwind_Backtrace@@GCC_3.3+0x490>
   11be0:	0f b6 38             	movzbl (%rax),%edi
   11be3:	48 8d 50 01          	lea    0x1(%rax),%rdx
   11be7:	48 89 e9             	mov    %rbp,%rcx
   11bea:	31 f6                	xor    %esi,%esi
   11bec:	48 83 c3 01          	add    $0x1,%rbx
   11bf0:	83 e7 7f             	and    $0x7f,%edi
   11bf3:	e8 d8 fd ff ff       	callq  119d0 <_Unwind_Backtrace@@GCC_3.3+0x2a0>
   11bf8:	0f b6 13             	movzbl (%rbx),%edx
   11bfb:	80 fa 52             	cmp    $0x52,%dl
   11bfe:	75 db                	jne    11bdb <_Unwind_Backtrace@@GCC_3.3+0x4ab>
   11c00:	44 0f b6 00          	movzbl (%rax),%r8d
   11c04:	48 83 c4 18          	add    $0x18,%rsp
   11c08:	5b                   	pop    %rbx
   11c09:	5d                   	pop    %rbp
   11c0a:	44 89 c0             	mov    %r8d,%eax
   11c0d:	c3                   	retq   
   11c0e:	66 90                	xchg   %ax,%ax
   11c10:	48 8d 42 02          	lea    0x2(%rdx),%rax
   11c14:	e9 81 ff ff ff       	jmpq   11b9a <_Unwind_Backtrace@@GCC_3.3+0x46a>
   11c19:	0f 1f 80 00 00 00 00 	nopl   0x0(%rax)
   11c20:	80 38 08             	cmpb   $0x8,(%rax)
   11c23:	41 b8 ff 00 00 00    	mov    $0xff,%r8d
   11c29:	0f 85 21 ff ff ff    	jne    11b50 <_Unwind_Backtrace@@GCC_3.3+0x420>
   11c2f:	80 78 01 00          	cmpb   $0x0,0x1(%rax)
   11c33:	0f 85 17 ff ff ff    	jne    11b50 <_Unwind_Backtrace@@GCC_3.3+0x420>
   11c39:	48 83 c0 02          	add    $0x2,%rax
   11c3d:	e9 05 ff ff ff       	jmpq   11b47 <_Unwind_Backtrace@@GCC_3.3+0x417>
   11c42:	66 66 2e 0f 1f 84 00 	data16 nopw %cs:0x0(%rax,%rax,1)
   11c49:	00 00 00 00 
   11c4d:	0f 1f 00             	nopl   (%rax)
   11c50:	41 57                	push   %r15
   11c52:	41 56                	push   %r14
   11c54:	41 55                	push   %r13
   11c56:	41 54                	push   %r12
   11c58:	55                   	push   %rbp
   11c59:	53                   	push   %rbx
   11c5a:	48 83 ec 28          	sub    $0x28,%rsp
   11c5e:	8b 16                	mov    (%rsi),%edx
   11c60:	85 d2                	test   %edx,%edx
   11c62:	0f 84 b5 01 00 00    	je     11e1d <_Unwind_Backtrace@@GCC_3.3+0x6ed>
   11c68:	49 89 fc             	mov    %rdi,%r12
   11c6b:	48 89 f3             	mov    %rsi,%rbx
   11c6e:	45 31 f6             	xor    %r14d,%r14d
   11c71:	45 31 ff             	xor    %r15d,%r15d
   11c74:	48 c7 44 24 08 00 00 	movq   $0x0,0x8(%rsp)
   11c7b:	00 00 
   11c7d:	31 c9                	xor    %ecx,%ecx
   11c7f:	eb 4b                	jmp    11ccc <_Unwind_Backtrace@@GCC_3.3+0x59c>
   11c81:	0f 1f 80 00 00 00 00 	nopl   0x0(%rax)
   11c88:	0f 86 1a 01 00 00    	jbe    11da8 <_Unwind_Backtrace@@GCC_3.3+0x678>
   11c8e:	ba ff ff ff ff       	mov    $0xffffffff,%edx
   11c93:	3c 03                	cmp    $0x3,%al
   11c95:	0f 85 f5 00 00 00    	jne    11d90 <_Unwind_Backtrace@@GCC_3.3+0x660>
   11c9b:	48 8b 44 24 18       	mov    0x18(%rsp),%rax
   11ca0:	4c 89 e9             	mov    %r13,%rcx
   11ca3:	48 85 d0             	test   %rdx,%rax
   11ca6:	74 13                	je     11cbb <_Unwind_Backtrace@@GCC_3.3+0x58b>
   11ca8:	48 83 44 24 08 01    	addq   $0x1,0x8(%rsp)
   11cae:	49 39 04 24          	cmp    %rax,(%r12)
   11cb2:	76 04                	jbe    11cb8 <_Unwind_Backtrace@@GCC_3.3+0x588>
   11cb4:	49 89 04 24          	mov    %rax,(%r12)
   11cb8:	4c 89 e9             	mov    %r13,%rcx
   11cbb:	8b 03                	mov    (%rbx),%eax
   11cbd:	48 8d 5c 03 04       	lea    0x4(%rbx,%rax,1),%rbx
   11cc2:	8b 03                	mov    (%rbx),%eax
   11cc4:	85 c0                	test   %eax,%eax
   11cc6:	0f 84 3d 01 00 00    	je     11e09 <_Unwind_Backtrace@@GCC_3.3+0x6d9>
   11ccc:	48 63 43 04          	movslq 0x4(%rbx),%rax
   11cd0:	85 c0                	test   %eax,%eax
   11cd2:	74 e7                	je     11cbb <_Unwind_Backtrace@@GCC_3.3+0x58b>
   11cd4:	4c 8d 43 04          	lea    0x4(%rbx),%r8
   11cd8:	44 89 fd             	mov    %r15d,%ebp
   11cdb:	49 29 c0             	sub    %rax,%r8
   11cde:	4d 89 c5             	mov    %r8,%r13
   11ce1:	49 39 c8             	cmp    %rcx,%r8
   11ce4:	74 64                	je     11d4a <_Unwind_Backtrace@@GCC_3.3+0x61a>
   11ce6:	4c 89 c7             	mov    %r8,%rdi
   11ce9:	e8 32 fe ff ff       	callq  11b20 <_Unwind_Backtrace@@GCC_3.3+0x3f0>
   11cee:	41 89 c7             	mov    %eax,%r15d
   11cf1:	3d ff 00 00 00       	cmp    $0xff,%eax
   11cf6:	0f 84 04 01 00 00    	je     11e00 <_Unwind_Backtrace@@GCC_3.3+0x6d0>
   11cfc:	89 c5                	mov    %eax,%ebp
   11cfe:	3c ff                	cmp    $0xff,%al
   11d00:	0f 84 82 00 00 00    	je     11d88 <_Unwind_Backtrace@@GCC_3.3+0x658>
   11d06:	83 e0 70             	and    $0x70,%eax
   11d09:	3c 20                	cmp    $0x20,%al
   11d0b:	0f 84 df 00 00 00    	je     11df0 <_Unwind_Backtrace@@GCC_3.3+0x6c0>
   11d11:	0f 86 a1 00 00 00    	jbe    11db8 <_Unwind_Backtrace@@GCC_3.3+0x688>
   11d17:	3c 30                	cmp    $0x30,%al
   11d19:	75 65                	jne    11d80 <_Unwind_Backtrace@@GCC_3.3+0x650>
   11d1b:	4d 8b 74 24 10       	mov    0x10(%r12),%r14
   11d20:	41 0f b7 44 24 20    	movzwl 0x20(%r12),%eax
   11d26:	89 c2                	mov    %eax,%edx
   11d28:	66 81 e2 f8 07       	and    $0x7f8,%dx
   11d2d:	66 81 fa f8 07       	cmp    $0x7f8,%dx
   11d32:	0f 84 90 00 00 00    	je     11dc8 <_Unwind_Backtrace@@GCC_3.3+0x698>
   11d38:	66 c1 e8 03          	shr    $0x3,%ax
   11d3c:	0f b6 c0             	movzbl %al,%eax
   11d3f:	44 39 f8             	cmp    %r15d,%eax
   11d42:	74 06                	je     11d4a <_Unwind_Backtrace@@GCC_3.3+0x61a>
   11d44:	41 80 4c 24 20 04    	orb    $0x4,0x20(%r12)
   11d4a:	48 8d 4c 24 18       	lea    0x18(%rsp),%rcx
   11d4f:	48 8d 53 08          	lea    0x8(%rbx),%rdx
   11d53:	41 0f b6 ff          	movzbl %r15b,%edi
   11d57:	4c 89 f6             	mov    %r14,%rsi
   11d5a:	e8 71 fc ff ff       	callq  119d0 <_Unwind_Backtrace@@GCC_3.3+0x2a0>
   11d5f:	40 80 fd ff          	cmp    $0xff,%bpl
   11d63:	74 7b                	je     11de0 <_Unwind_Backtrace@@GCC_3.3+0x6b0>
   11d65:	89 e8                	mov    %ebp,%eax
   11d67:	83 e0 07             	and    $0x7,%eax
   11d6a:	3c 02                	cmp    $0x2,%al
   11d6c:	0f 85 16 ff ff ff    	jne    11c88 <_Unwind_Backtrace@@GCC_3.3+0x558>
   11d72:	ba ff ff 00 00       	mov    $0xffff,%edx
   11d77:	e9 1f ff ff ff       	jmpq   11c9b <_Unwind_Backtrace@@GCC_3.3+0x56b>
   11d7c:	0f 1f 40 00          	nopl   0x0(%rax)
   11d80:	3c 50                	cmp    $0x50,%al
   11d82:	0f 85 a5 00 00 00    	jne    11e2d <_Unwind_Backtrace@@GCC_3.3+0x6fd>
   11d88:	45 31 f6             	xor    %r14d,%r14d
   11d8b:	eb 93                	jmp    11d20 <_Unwind_Backtrace@@GCC_3.3+0x5f0>
   11d8d:	0f 1f 00             	nopl   (%rax)
   11d90:	3c 04                	cmp    $0x4,%al
   11d92:	0f 85 90 00 00 00    	jne    11e28 <_Unwind_Backtrace@@GCC_3.3+0x6f8>
   11d98:	48 c7 c2 ff ff ff ff 	mov    $0xffffffffffffffff,%rdx
   11d9f:	e9 f7 fe ff ff       	jmpq   11c9b <_Unwind_Backtrace@@GCC_3.3+0x56b>
   11da4:	0f 1f 40 00          	nopl   0x0(%rax)
   11da8:	84 c0                	test   %al,%al
   11daa:	74 ec                	je     11d98 <_Unwind_Backtrace@@GCC_3.3+0x668>
   11dac:	e9 d4 18 ff ff       	jmpq   3685 <_Unwind_GetDataRelBase@plt+0xb5>
   11db1:	0f 1f 80 00 00 00 00 	nopl   0x0(%rax)
   11db8:	41 f6 c7 60          	test   $0x60,%r15b
   11dbc:	0f 85 c3 18 ff ff    	jne    3685 <_Unwind_GetDataRelBase@plt+0xb5>
   11dc2:	eb c4                	jmp    11d88 <_Unwind_Backtrace@@GCC_3.3+0x658>
   11dc4:	0f 1f 40 00          	nopl   0x0(%rax)
   11dc8:	40 0f b6 d5          	movzbl %bpl,%edx
   11dcc:	66 25 07 f8          	and    $0xf807,%ax
   11dd0:	c1 e2 03             	shl    $0x3,%edx
   11dd3:	09 d0                	or     %edx,%eax
   11dd5:	66 41 89 44 24 20    	mov    %ax,0x20(%r12)
   11ddb:	e9 6a ff ff ff       	jmpq   11d4a <_Unwind_Backtrace@@GCC_3.3+0x61a>
   11de0:	31 d2                	xor    %edx,%edx
   11de2:	e9 b4 fe ff ff       	jmpq   11c9b <_Unwind_Backtrace@@GCC_3.3+0x56b>
   11de7:	66 0f 1f 84 00 00 00 	nopw   0x0(%rax,%rax,1)
   11dee:	00 00 
   11df0:	4d 8b 74 24 08       	mov    0x8(%r12),%r14
   11df5:	e9 26 ff ff ff       	jmpq   11d20 <_Unwind_Backtrace@@GCC_3.3+0x5f0>
   11dfa:	66 0f 1f 44 00 00    	nopw   0x0(%rax,%rax,1)
   11e00:	48 c7 44 24 08 ff ff 	movq   $0xffffffffffffffff,0x8(%rsp)
   11e07:	ff ff 
   11e09:	48 8b 44 24 08       	mov    0x8(%rsp),%rax
   11e0e:	48 83 c4 28          	add    $0x28,%rsp
   11e12:	5b                   	pop    %rbx
   11e13:	5d                   	pop    %rbp
   11e14:	41 5c                	pop    %r12
   11e16:	41 5d                	pop    %r13
   11e18:	41 5e                	pop    %r14
   11e1a:	41 5f                	pop    %r15
   11e1c:	c3                   	retq   
   11e1d:	48 c7 44 24 08 00 00 	movq   $0x0,0x8(%rsp)
   11e24:	00 00 
   11e26:	eb e1                	jmp    11e09 <_Unwind_Backtrace@@GCC_3.3+0x6d9>
   11e28:	e9 58 18 ff ff       	jmpq   3685 <_Unwind_GetDataRelBase@plt+0xb5>
   11e2d:	e9 53 18 ff ff       	jmpq   3685 <_Unwind_GetDataRelBase@plt+0xb5>
   11e32:	66 66 2e 0f 1f 84 00 	data16 nopw %cs:0x0(%rax,%rax,1)
   11e39:	00 00 00 00 
   11e3d:	0f 1f 00             	nopl   (%rax)
   11e40:	f3 0f 1e fa          	endbr64 
   11e44:	41 54                	push   %r12
   11e46:	55                   	push   %rbp
   11e47:	48 89 fd             	mov    %rdi,%rbp
   11e4a:	53                   	push   %rbx
   11e4b:	48 89 d3             	mov    %rdx,%rbx
   11e4e:	48 83 ec 10          	sub    $0x10,%rsp
   11e52:	0f b7 47 20          	movzwl 0x20(%rdi),%eax
   11e56:	66 c1 e8 03          	shr    $0x3,%ax
   11e5a:	0f b6 f8             	movzbl %al,%edi
   11e5d:	3c ff                	cmp    $0xff,%al
   11e5f:	74 74                	je     11ed5 <_Unwind_Backtrace@@GCC_3.3+0x7a5>
   11e61:	89 c2                	mov    %eax,%edx
   11e63:	83 e2 70             	and    $0x70,%edx
   11e66:	80 fa 20             	cmp    $0x20,%dl
   11e69:	0f 84 81 00 00 00    	je     11ef0 <_Unwind_Backtrace@@GCC_3.3+0x7c0>
   11e6f:	76 6f                	jbe    11ee0 <_Unwind_Backtrace@@GCC_3.3+0x7b0>
   11e71:	80 fa 30             	cmp    $0x30,%dl
   11e74:	75 5a                	jne    11ed0 <_Unwind_Backtrace@@GCC_3.3+0x7a0>
   11e76:	4c 8b 65 10          	mov    0x10(%rbp),%r12
   11e7a:	66 0f 1f 44 00 00    	nopw   0x0(%rax,%rax,1)
   11e80:	48 8d 56 08          	lea    0x8(%rsi),%rdx
   11e84:	48 89 e1             	mov    %rsp,%rcx
   11e87:	4c 89 e6             	mov    %r12,%rsi
   11e8a:	e8 41 fb ff ff       	callq  119d0 <_Unwind_Backtrace@@GCC_3.3+0x2a0>
   11e8f:	0f b7 7d 20          	movzwl 0x20(%rbp),%edi
   11e93:	48 8d 53 08          	lea    0x8(%rbx),%rdx
   11e97:	4c 89 e6             	mov    %r12,%rsi
   11e9a:	48 8d 4c 24 08       	lea    0x8(%rsp),%rcx
   11e9f:	66 c1 ef 03          	shr    $0x3,%di
   11ea3:	40 0f b6 ff          	movzbl %dil,%edi
   11ea7:	e8 24 fb ff ff       	callq  119d0 <_Unwind_Backtrace@@GCC_3.3+0x2a0>
   11eac:	48 8b 5c 24 08       	mov    0x8(%rsp),%rbx
   11eb1:	b8 01 00 00 00       	mov    $0x1,%eax
   11eb6:	48 39 1c 24          	cmp    %rbx,(%rsp)
   11eba:	77 02                	ja     11ebe <_Unwind_Backtrace@@GCC_3.3+0x78e>
   11ebc:	19 c0                	sbb    %eax,%eax
   11ebe:	48 83 c4 10          	add    $0x10,%rsp
   11ec2:	5b                   	pop    %rbx
   11ec3:	5d                   	pop    %rbp
   11ec4:	41 5c                	pop    %r12
   11ec6:	c3                   	retq   
   11ec7:	66 0f 1f 84 00 00 00 	nopw   0x0(%rax,%rax,1)
   11ece:	00 00 
   11ed0:	80 fa 50             	cmp    $0x50,%dl
   11ed3:	75 21                	jne    11ef6 <_Unwind_Backtrace@@GCC_3.3+0x7c6>
   11ed5:	45 31 e4             	xor    %r12d,%r12d
   11ed8:	eb a6                	jmp    11e80 <_Unwind_Backtrace@@GCC_3.3+0x750>
   11eda:	66 0f 1f 44 00 00    	nopw   0x0(%rax,%rax,1)
   11ee0:	a8 60                	test   $0x60,%al
   11ee2:	0f 85 a2 17 ff ff    	jne    368a <_Unwind_GetDataRelBase@plt+0xba>
   11ee8:	eb eb                	jmp    11ed5 <_Unwind_Backtrace@@GCC_3.3+0x7a5>
   11eea:	66 0f 1f 44 00 00    	nopw   0x0(%rax,%rax,1)
   11ef0:	4c 8b 65 08          	mov    0x8(%rbp),%r12
   11ef4:	eb 8a                	jmp    11e80 <_Unwind_Backtrace@@GCC_3.3+0x750>
   11ef6:	e9 8f 17 ff ff       	jmpq   368a <_Unwind_GetDataRelBase@plt+0xba>
   11efb:	0f 1f 44 00 00       	nopl   0x0(%rax,%rax,1)
   11f00:	f3 0f 1e fa          	endbr64 
   11f04:	41 54                	push   %r12
   11f06:	49 89 fc             	mov    %rdi,%r12
   11f09:	48 8d 7e 04          	lea    0x4(%rsi),%rdi
   11f0d:	55                   	push   %rbp
   11f0e:	48 89 f5             	mov    %rsi,%rbp
   11f11:	53                   	push   %rbx
   11f12:	48 89 d3             	mov    %rdx,%rbx
   11f15:	48 83 ec 10          	sub    $0x10,%rsp
   11f19:	48 63 46 04          	movslq 0x4(%rsi),%rax
   11f1d:	48 29 c7             	sub    %rax,%rdi
   11f20:	e8 fb fb ff ff       	callq  11b20 <_Unwind_Backtrace@@GCC_3.3+0x3f0>
   11f25:	48 8d 55 08          	lea    0x8(%rbp),%rdx
   11f29:	0f b6 f8             	movzbl %al,%edi
   11f2c:	3c ff                	cmp    $0xff,%al
   11f2e:	0f 84 a9 00 00 00    	je     11fdd <_Unwind_Backtrace@@GCC_3.3+0x8ad>
   11f34:	89 c1                	mov    %eax,%ecx
   11f36:	83 e1 70             	and    $0x70,%ecx
   11f39:	80 f9 20             	cmp    $0x20,%cl
   11f3c:	0f 84 c6 00 00 00    	je     12008 <_Unwind_Backtrace@@GCC_3.3+0x8d8>
   11f42:	0f 86 a0 00 00 00    	jbe    11fe8 <_Unwind_Backtrace@@GCC_3.3+0x8b8>
   11f48:	80 f9 30             	cmp    $0x30,%cl
   11f4b:	0f 85 87 00 00 00    	jne    11fd8 <_Unwind_Backtrace@@GCC_3.3+0x8a8>
   11f51:	49 8b 74 24 10       	mov    0x10(%r12),%rsi
   11f56:	66 2e 0f 1f 84 00 00 	nopw   %cs:0x0(%rax,%rax,1)
   11f5d:	00 00 00 
   11f60:	48 89 e1             	mov    %rsp,%rcx
   11f63:	e8 68 fa ff ff       	callq  119d0 <_Unwind_Backtrace@@GCC_3.3+0x2a0>
   11f68:	48 63 43 04          	movslq 0x4(%rbx),%rax
   11f6c:	48 8d 7b 04          	lea    0x4(%rbx),%rdi
   11f70:	48 29 c7             	sub    %rax,%rdi
   11f73:	e8 a8 fb ff ff       	callq  11b20 <_Unwind_Backtrace@@GCC_3.3+0x3f0>
   11f78:	48 8d 53 08          	lea    0x8(%rbx),%rdx
   11f7c:	0f b6 f8             	movzbl %al,%edi
   11f7f:	3c ff                	cmp    $0xff,%al
   11f81:	74 4a                	je     11fcd <_Unwind_Backtrace@@GCC_3.3+0x89d>
   11f83:	89 c1                	mov    %eax,%ecx
   11f85:	83 e1 70             	and    $0x70,%ecx
   11f88:	80 f9 20             	cmp    $0x20,%cl
   11f8b:	0f 84 87 00 00 00    	je     12018 <_Unwind_Backtrace@@GCC_3.3+0x8e8>
   11f91:	76 65                	jbe    11ff8 <_Unwind_Backtrace@@GCC_3.3+0x8c8>
   11f93:	80 f9 30             	cmp    $0x30,%cl
   11f96:	75 30                	jne    11fc8 <_Unwind_Backtrace@@GCC_3.3+0x898>
   11f98:	49 8b 74 24 10       	mov    0x10(%r12),%rsi
   11f9d:	0f 1f 00             	nopl   (%rax)
   11fa0:	48 8d 4c 24 08       	lea    0x8(%rsp),%rcx
   11fa5:	e8 26 fa ff ff       	callq  119d0 <_Unwind_Backtrace@@GCC_3.3+0x2a0>
   11faa:	48 8b 5c 24 08       	mov    0x8(%rsp),%rbx
   11faf:	b8 01 00 00 00       	mov    $0x1,%eax
   11fb4:	48 39 1c 24          	cmp    %rbx,(%rsp)
   11fb8:	77 02                	ja     11fbc <_Unwind_Backtrace@@GCC_3.3+0x88c>
   11fba:	19 c0                	sbb    %eax,%eax
   11fbc:	48 83 c4 10          	add    $0x10,%rsp
   11fc0:	5b                   	pop    %rbx
   11fc1:	5d                   	pop    %rbp
   11fc2:	41 5c                	pop    %r12
   11fc4:	c3                   	retq   
   11fc5:	0f 1f 00             	nopl   (%rax)
   11fc8:	80 f9 50             	cmp    $0x50,%cl
   11fcb:	75 57                	jne    12024 <_Unwind_Backtrace@@GCC_3.3+0x8f4>
   11fcd:	31 f6                	xor    %esi,%esi
   11fcf:	eb cf                	jmp    11fa0 <_Unwind_Backtrace@@GCC_3.3+0x870>
   11fd1:	0f 1f 80 00 00 00 00 	nopl   0x0(%rax)
   11fd8:	80 f9 50             	cmp    $0x50,%cl
   11fdb:	75 42                	jne    1201f <_Unwind_Backtrace@@GCC_3.3+0x8ef>
   11fdd:	31 f6                	xor    %esi,%esi
   11fdf:	e9 7c ff ff ff       	jmpq   11f60 <_Unwind_Backtrace@@GCC_3.3+0x830>
   11fe4:	0f 1f 40 00          	nopl   0x0(%rax)
   11fe8:	a8 60                	test   $0x60,%al
   11fea:	0f 85 9f 16 ff ff    	jne    368f <_Unwind_GetDataRelBase@plt+0xbf>
   11ff0:	eb eb                	jmp    11fdd <_Unwind_Backtrace@@GCC_3.3+0x8ad>
   11ff2:	66 0f 1f 44 00 00    	nopw   0x0(%rax,%rax,1)
   11ff8:	a8 60                	test   $0x60,%al
   11ffa:	0f 85 8f 16 ff ff    	jne    368f <_Unwind_GetDataRelBase@plt+0xbf>
   12000:	eb cb                	jmp    11fcd <_Unwind_Backtrace@@GCC_3.3+0x89d>
   12002:	66 0f 1f 44 00 00    	nopw   0x0(%rax,%rax,1)
   12008:	49 8b 74 24 08       	mov    0x8(%r12),%rsi
   1200d:	e9 4e ff ff ff       	jmpq   11f60 <_Unwind_Backtrace@@GCC_3.3+0x830>
   12012:	66 0f 1f 44 00 00    	nopw   0x0(%rax,%rax,1)
   12018:	49 8b 74 24 08       	mov    0x8(%r12),%rsi
   1201d:	eb 81                	jmp    11fa0 <_Unwind_Backtrace@@GCC_3.3+0x870>
   1201f:	e9 6b 16 ff ff       	jmpq   368f <_Unwind_GetDataRelBase@plt+0xbf>
   12024:	e9 66 16 ff ff       	jmpq   368f <_Unwind_GetDataRelBase@plt+0xbf>
   12029:	0f 1f 80 00 00 00 00 	nopl   0x0(%rax)
   12030:	41 57                	push   %r15
   12032:	41 56                	push   %r14
   12034:	49 89 fe             	mov    %rdi,%r14
   12037:	41 55                	push   %r13
   12039:	41 54                	push   %r12
   1203b:	49 89 f4             	mov    %rsi,%r12
   1203e:	55                   	push   %rbp
   1203f:	53                   	push   %rbx
   12040:	48 89 d3             	mov    %rdx,%rbx
   12043:	48 83 ec 28          	sub    $0x28,%rsp
   12047:	0f b7 47 20          	movzwl 0x20(%rdi),%eax
   1204b:	66 c1 e8 03          	shr    $0x3,%ax
   1204f:	3c ff                	cmp    $0xff,%al
   12051:	0f 84 69 02 00 00    	je     122c0 <_Unwind_Backtrace@@GCC_3.3+0xb90>
   12057:	89 c2                	mov    %eax,%edx
   12059:	0f b6 e8             	movzbl %al,%ebp
   1205c:	83 e2 70             	and    $0x70,%edx
   1205f:	80 fa 20             	cmp    $0x20,%dl
   12062:	0f 84 48 02 00 00    	je     122b0 <_Unwind_Backtrace@@GCC_3.3+0xb80>
   12068:	0f 86 ca 01 00 00    	jbe    12238 <_Unwind_Backtrace@@GCC_3.3+0xb08>
   1206e:	80 fa 30             	cmp    $0x30,%dl
   12071:	0f 85 a9 01 00 00    	jne    12220 <_Unwind_Backtrace@@GCC_3.3+0xaf0>
   12077:	4c 8b 6f 10          	mov    0x10(%rdi),%r13
   1207b:	0f 1f 44 00 00       	nopl   0x0(%rax,%rax,1)
   12080:	8b 13                	mov    (%rbx),%edx
   12082:	45 31 ff             	xor    %r15d,%r15d
   12085:	85 d2                	test   %edx,%edx
   12087:	0f 84 a7 00 00 00    	je     12134 <_Unwind_Backtrace@@GCC_3.3+0xa04>
   1208d:	0f 1f 00             	nopl   (%rax)
   12090:	48 63 43 04          	movslq 0x4(%rbx),%rax
   12094:	85 c0                	test   %eax,%eax
   12096:	0f 84 87 00 00 00    	je     12123 <_Unwind_Backtrace@@GCC_3.3+0x9f3>
   1209c:	41 f6 46 20 04       	testb  $0x4,0x20(%r14)
   120a1:	0f 84 a1 00 00 00    	je     12148 <_Unwind_Backtrace@@GCC_3.3+0xa18>
   120a7:	4c 8d 4b 04          	lea    0x4(%rbx),%r9
   120ab:	49 29 c1             	sub    %rax,%r9
   120ae:	4d 39 f9             	cmp    %r15,%r9
   120b1:	0f 84 91 00 00 00    	je     12148 <_Unwind_Backtrace@@GCC_3.3+0xa18>
   120b7:	4c 89 cf             	mov    %r9,%rdi
   120ba:	4c 89 4c 24 08       	mov    %r9,0x8(%rsp)
   120bf:	e8 5c fa ff ff       	callq  11b20 <_Unwind_Backtrace@@GCC_3.3+0x3f0>
   120c4:	4c 8b 4c 24 08       	mov    0x8(%rsp),%r9
   120c9:	3c ff                	cmp    $0xff,%al
   120cb:	89 c5                	mov    %eax,%ebp
   120cd:	41 89 c2             	mov    %eax,%r10d
   120d0:	0f 84 aa 01 00 00    	je     12280 <_Unwind_Backtrace@@GCC_3.3+0xb50>
   120d6:	83 e0 70             	and    $0x70,%eax
   120d9:	3c 20                	cmp    $0x20,%al
   120db:	0f 84 67 01 00 00    	je     12248 <_Unwind_Backtrace@@GCC_3.3+0xb18>
   120e1:	0f 86 e1 00 00 00    	jbe    121c8 <_Unwind_Backtrace@@GCC_3.3+0xa98>
   120e7:	3c 30                	cmp    $0x30,%al
   120e9:	0f 85 21 01 00 00    	jne    12210 <_Unwind_Backtrace@@GCC_3.3+0xae0>
   120ef:	4d 8b 6e 10          	mov    0x10(%r14),%r13
   120f3:	4d 89 cf             	mov    %r9,%r15
   120f6:	85 ed                	test   %ebp,%ebp
   120f8:	0f 85 59 01 00 00    	jne    12257 <_Unwind_Backtrace@@GCC_3.3+0xb27>
   120fe:	66 90                	xchg   %ax,%ax
   12100:	31 ed                	xor    %ebp,%ebp
   12102:	48 83 7b 08 00       	cmpq   $0x0,0x8(%rbx)
   12107:	74 1a                	je     12123 <_Unwind_Backtrace@@GCC_3.3+0x9f3>
   12109:	49 8b 04 24          	mov    (%r12),%rax
   1210d:	48 85 c0             	test   %rax,%rax
   12110:	74 11                	je     12123 <_Unwind_Backtrace@@GCC_3.3+0x9f3>
   12112:	48 8b 50 08          	mov    0x8(%rax),%rdx
   12116:	48 8d 4a 01          	lea    0x1(%rdx),%rcx
   1211a:	48 89 48 08          	mov    %rcx,0x8(%rax)
   1211e:	48 89 5c d0 10       	mov    %rbx,0x10(%rax,%rdx,8)
   12123:	8b 03                	mov    (%rbx),%eax
   12125:	48 8d 5c 03 04       	lea    0x4(%rbx,%rax,1),%rbx
   1212a:	8b 03                	mov    (%rbx),%eax
   1212c:	85 c0                	test   %eax,%eax
   1212e:	0f 85 5c ff ff ff    	jne    12090 <_Unwind_Backtrace@@GCC_3.3+0x960>
   12134:	48 83 c4 28          	add    $0x28,%rsp
   12138:	5b                   	pop    %rbx
   12139:	5d                   	pop    %rbp
   1213a:	41 5c                	pop    %r12
   1213c:	41 5d                	pop    %r13
   1213e:	41 5e                	pop    %r14
   12140:	41 5f                	pop    %r15
   12142:	c3                   	retq   
   12143:	0f 1f 44 00 00       	nopl   0x0(%rax,%rax,1)
   12148:	85 ed                	test   %ebp,%ebp
   1214a:	74 b4                	je     12100 <_Unwind_Backtrace@@GCC_3.3+0x9d0>
   1214c:	48 8d 4c 24 18       	lea    0x18(%rsp),%rcx
   12151:	48 8d 53 08          	lea    0x8(%rbx),%rdx
   12155:	40 0f b6 fd          	movzbl %bpl,%edi
   12159:	4c 89 ee             	mov    %r13,%rsi
   1215c:	e8 6f f8 ff ff       	callq  119d0 <_Unwind_Backtrace@@GCC_3.3+0x2a0>
   12161:	41 89 ea             	mov    %ebp,%r10d
   12164:	40 80 fd ff          	cmp    $0xff,%bpl
   12168:	0f 84 5f 01 00 00    	je     122cd <_Unwind_Backtrace@@GCC_3.3+0xb9d>
   1216e:	44 89 d2             	mov    %r10d,%edx
   12171:	83 e2 07             	and    $0x7,%edx
   12174:	80 fa 02             	cmp    $0x2,%dl
   12177:	0f 84 89 00 00 00    	je     12206 <_Unwind_Backtrace@@GCC_3.3+0xad6>
   1217d:	76 21                	jbe    121a0 <_Unwind_Backtrace@@GCC_3.3+0xa70>
   1217f:	b8 ff ff ff ff       	mov    $0xffffffff,%eax
   12184:	80 fa 03             	cmp    $0x3,%dl
   12187:	75 2f                	jne    121b8 <_Unwind_Backtrace@@GCC_3.3+0xa88>
   12189:	48 23 44 24 18       	and    0x18(%rsp),%rax
   1218e:	0f 85 75 ff ff ff    	jne    12109 <_Unwind_Backtrace@@GCC_3.3+0x9d9>
   12194:	eb 8d                	jmp    12123 <_Unwind_Backtrace@@GCC_3.3+0x9f3>
   12196:	66 2e 0f 1f 84 00 00 	nopw   %cs:0x0(%rax,%rax,1)
   1219d:	00 00 00 
   121a0:	84 d2                	test   %dl,%dl
   121a2:	0f 85 2c 01 00 00    	jne    122d4 <_Unwind_Backtrace@@GCC_3.3+0xba4>
   121a8:	48 c7 c0 ff ff ff ff 	mov    $0xffffffffffffffff,%rax
   121af:	eb d8                	jmp    12189 <_Unwind_Backtrace@@GCC_3.3+0xa59>
   121b1:	0f 1f 80 00 00 00 00 	nopl   0x0(%rax)
   121b8:	80 fa 04             	cmp    $0x4,%dl
   121bb:	74 eb                	je     121a8 <_Unwind_Backtrace@@GCC_3.3+0xa78>
   121bd:	e9 d2 14 ff ff       	jmpq   3694 <_Unwind_GetDataRelBase@plt+0xc4>
   121c2:	66 0f 1f 44 00 00    	nopw   0x0(%rax,%rax,1)
   121c8:	41 83 e2 60          	and    $0x60,%r10d
   121cc:	0f 85 c2 14 ff ff    	jne    3694 <_Unwind_GetDataRelBase@plt+0xc4>
   121d2:	4d 89 cf             	mov    %r9,%r15
   121d5:	45 31 ed             	xor    %r13d,%r13d
   121d8:	85 ed                	test   %ebp,%ebp
   121da:	0f 84 20 ff ff ff    	je     12100 <_Unwind_Backtrace@@GCC_3.3+0x9d0>
   121e0:	48 8d 53 08          	lea    0x8(%rbx),%rdx
   121e4:	48 8d 4c 24 18       	lea    0x18(%rsp),%rcx
   121e9:	40 0f b6 fd          	movzbl %bpl,%edi
   121ed:	31 f6                	xor    %esi,%esi
   121ef:	e8 dc f7 ff ff       	callq  119d0 <_Unwind_Backtrace@@GCC_3.3+0x2a0>
   121f4:	41 89 ea             	mov    %ebp,%r10d
   121f7:	44 89 d2             	mov    %r10d,%edx
   121fa:	83 e2 07             	and    $0x7,%edx
   121fd:	80 fa 02             	cmp    $0x2,%dl
   12200:	0f 85 77 ff ff ff    	jne    1217d <_Unwind_Backtrace@@GCC_3.3+0xa4d>
   12206:	b8 ff ff 00 00       	mov    $0xffff,%eax
   1220b:	e9 79 ff ff ff       	jmpq   12189 <_Unwind_Backtrace@@GCC_3.3+0xa59>
   12210:	3c 50                	cmp    $0x50,%al
   12212:	74 be                	je     121d2 <_Unwind_Backtrace@@GCC_3.3+0xaa2>
   12214:	e9 7b 14 ff ff       	jmpq   3694 <_Unwind_GetDataRelBase@plt+0xc4>
   12219:	0f 1f 80 00 00 00 00 	nopl   0x0(%rax)
   12220:	80 fa 50             	cmp    $0x50,%dl
   12223:	0f 85 b0 00 00 00    	jne    122d9 <_Unwind_Backtrace@@GCC_3.3+0xba9>
   12229:	45 31 ed             	xor    %r13d,%r13d
   1222c:	e9 4f fe ff ff       	jmpq   12080 <_Unwind_Backtrace@@GCC_3.3+0x950>
   12231:	0f 1f 80 00 00 00 00 	nopl   0x0(%rax)
   12238:	a8 60                	test   $0x60,%al
   1223a:	0f 85 54 14 ff ff    	jne    3694 <_Unwind_GetDataRelBase@plt+0xc4>
   12240:	eb e7                	jmp    12229 <_Unwind_Backtrace@@GCC_3.3+0xaf9>
   12242:	66 0f 1f 44 00 00    	nopw   0x0(%rax,%rax,1)
   12248:	4d 8b 6e 08          	mov    0x8(%r14),%r13
   1224c:	4d 89 cf             	mov    %r9,%r15
   1224f:	85 ed                	test   %ebp,%ebp
   12251:	0f 84 a9 fe ff ff    	je     12100 <_Unwind_Backtrace@@GCC_3.3+0x9d0>
   12257:	48 8d 4c 24 18       	lea    0x18(%rsp),%rcx
   1225c:	48 8d 53 08          	lea    0x8(%rbx),%rdx
   12260:	40 0f b6 fd          	movzbl %bpl,%edi
   12264:	4c 89 ee             	mov    %r13,%rsi
   12267:	44 88 54 24 08       	mov    %r10b,0x8(%rsp)
   1226c:	e8 5f f7 ff ff       	callq  119d0 <_Unwind_Backtrace@@GCC_3.3+0x2a0>
   12271:	44 0f b6 54 24 08    	movzbl 0x8(%rsp),%r10d
   12277:	e9 f2 fe ff ff       	jmpq   1216e <_Unwind_Backtrace@@GCC_3.3+0xa3e>
   1227c:	0f 1f 40 00          	nopl   0x0(%rax)
   12280:	48 8d 4c 24 18       	lea    0x18(%rsp),%rcx
   12285:	48 8d 53 08          	lea    0x8(%rbx),%rdx
   12289:	31 f6                	xor    %esi,%esi
   1228b:	bf ff 00 00 00       	mov    $0xff,%edi
   12290:	4c 89 4c 24 08       	mov    %r9,0x8(%rsp)
   12295:	45 31 ed             	xor    %r13d,%r13d
   12298:	e8 33 f7 ff ff       	callq  119d0 <_Unwind_Backtrace@@GCC_3.3+0x2a0>
   1229d:	4c 8b 4c 24 08       	mov    0x8(%rsp),%r9
   122a2:	31 c0                	xor    %eax,%eax
   122a4:	4d 89 cf             	mov    %r9,%r15
   122a7:	e9 dd fe ff ff       	jmpq   12189 <_Unwind_Backtrace@@GCC_3.3+0xa59>
   122ac:	0f 1f 40 00          	nopl   0x0(%rax)
   122b0:	4c 8b 6f 08          	mov    0x8(%rdi),%r13
   122b4:	e9 c7 fd ff ff       	jmpq   12080 <_Unwind_Backtrace@@GCC_3.3+0x950>
   122b9:	0f 1f 80 00 00 00 00 	nopl   0x0(%rax)
   122c0:	45 31 ed             	xor    %r13d,%r13d
   122c3:	bd ff 00 00 00       	mov    $0xff,%ebp
   122c8:	e9 b3 fd ff ff       	jmpq   12080 <_Unwind_Backtrace@@GCC_3.3+0x950>
   122cd:	31 c0                	xor    %eax,%eax
   122cf:	e9 b5 fe ff ff       	jmpq   12189 <_Unwind_Backtrace@@GCC_3.3+0xa59>
   122d4:	e9 bb 13 ff ff       	jmpq   3694 <_Unwind_GetDataRelBase@plt+0xc4>
   122d9:	e9 b6 13 ff ff       	jmpq   3694 <_Unwind_GetDataRelBase@plt+0xc4>
   122de:	66 90                	xchg   %ax,%ax
   122e0:	41 57                	push   %r15
   122e2:	41 56                	push   %r14
   122e4:	49 89 fe             	mov    %rdi,%r14
   122e7:	41 55                	push   %r13
   122e9:	41 54                	push   %r12
   122eb:	49 89 d4             	mov    %rdx,%r12
   122ee:	55                   	push   %rbp
   122ef:	53                   	push   %rbx
   122f0:	48 89 f3             	mov    %rsi,%rbx
   122f3:	48 83 ec 28          	sub    $0x28,%rsp
   122f7:	0f b7 47 20          	movzwl 0x20(%rdi),%eax
   122fb:	66 c1 e8 03          	shr    $0x3,%ax
   122ff:	3c ff                	cmp    $0xff,%al
   12301:	0f 84 b9 02 00 00    	je     125c0 <_Unwind_Backtrace@@GCC_3.3+0xe90>
   12307:	89 c2                	mov    %eax,%edx
   12309:	0f b6 e8             	movzbl %al,%ebp
   1230c:	83 e2 70             	and    $0x70,%edx
   1230f:	80 fa 20             	cmp    $0x20,%dl
   12312:	0f 84 98 02 00 00    	je     125b0 <_Unwind_Backtrace@@GCC_3.3+0xe80>
   12318:	0f 86 ca 01 00 00    	jbe    124e8 <_Unwind_Backtrace@@GCC_3.3+0xdb8>
   1231e:	80 fa 30             	cmp    $0x30,%dl
   12321:	0f 85 a9 01 00 00    	jne    124d0 <_Unwind_Backtrace@@GCC_3.3+0xda0>
   12327:	4c 8b 6f 10          	mov    0x10(%rdi),%r13
   1232b:	0f 1f 44 00 00       	nopl   0x0(%rax,%rax,1)
   12330:	8b 13                	mov    (%rbx),%edx
   12332:	45 31 ff             	xor    %r15d,%r15d
   12335:	85 d2                	test   %edx,%edx
   12337:	0f 85 9c 00 00 00    	jne    123d9 <_Unwind_Backtrace@@GCC_3.3+0xca9>
   1233d:	e9 c6 01 00 00       	jmpq   12508 <_Unwind_Backtrace@@GCC_3.3+0xdd8>
   12342:	66 0f 1f 44 00 00    	nopw   0x0(%rax,%rax,1)
   12348:	4c 8d 4b 04          	lea    0x4(%rbx),%r9
   1234c:	49 29 c1             	sub    %rax,%r9
   1234f:	4d 39 f9             	cmp    %r15,%r9
   12352:	0f 84 94 00 00 00    	je     123ec <_Unwind_Backtrace@@GCC_3.3+0xcbc>
   12358:	4c 89 cf             	mov    %r9,%rdi
   1235b:	4c 89 4c 24 08       	mov    %r9,0x8(%rsp)
   12360:	e8 bb f7 ff ff       	callq  11b20 <_Unwind_Backtrace@@GCC_3.3+0x3f0>
   12365:	4c 8b 4c 24 08       	mov    0x8(%rsp),%r9
   1236a:	3c ff                	cmp    $0xff,%al
   1236c:	89 c5                	mov    %eax,%ebp
   1236e:	41 89 c2             	mov    %eax,%r10d
   12371:	0f 84 f9 01 00 00    	je     12570 <_Unwind_Backtrace@@GCC_3.3+0xe40>
   12377:	83 e0 70             	and    $0x70,%eax
   1237a:	3c 20                	cmp    $0x20,%al
   1237c:	0f 84 9e 01 00 00    	je     12520 <_Unwind_Backtrace@@GCC_3.3+0xdf0>
   12382:	0f 86 38 01 00 00    	jbe    124c0 <_Unwind_Backtrace@@GCC_3.3+0xd90>
   12388:	3c 30                	cmp    $0x30,%al
   1238a:	0f 85 10 01 00 00    	jne    124a0 <_Unwind_Backtrace@@GCC_3.3+0xd70>
   12390:	4d 8b 6e 10          	mov    0x10(%r14),%r13
   12394:	4d 89 cf             	mov    %r9,%r15
   12397:	85 ed                	test   %ebp,%ebp
   12399:	0f 85 90 01 00 00    	jne    1252f <_Unwind_Backtrace@@GCC_3.3+0xdff>
   1239f:	90                   	nop
   123a0:	48 8b 43 08          	mov    0x8(%rbx),%rax
   123a4:	48 8b 53 10          	mov    0x10(%rbx),%rdx
   123a8:	31 ed                	xor    %ebp,%ebp
   123aa:	48 89 44 24 10       	mov    %rax,0x10(%rsp)
   123af:	48 89 54 24 18       	mov    %rdx,0x18(%rsp)
   123b4:	48 85 c0             	test   %rax,%rax
   123b7:	74 0f                	je     123c8 <_Unwind_Backtrace@@GCC_3.3+0xc98>
   123b9:	4c 89 e1             	mov    %r12,%rcx
   123bc:	48 29 c1             	sub    %rax,%rcx
   123bf:	48 39 d1             	cmp    %rdx,%rcx
   123c2:	0f 82 99 00 00 00    	jb     12461 <_Unwind_Backtrace@@GCC_3.3+0xd31>
   123c8:	8b 03                	mov    (%rbx),%eax
   123ca:	48 8d 5c 03 04       	lea    0x4(%rbx,%rax,1),%rbx
   123cf:	8b 03                	mov    (%rbx),%eax
   123d1:	85 c0                	test   %eax,%eax
   123d3:	0f 84 2f 01 00 00    	je     12508 <_Unwind_Backtrace@@GCC_3.3+0xdd8>
   123d9:	48 63 43 04          	movslq 0x4(%rbx),%rax
   123dd:	85 c0                	test   %eax,%eax
   123df:	74 e7                	je     123c8 <_Unwind_Backtrace@@GCC_3.3+0xc98>
   123e1:	41 f6 46 20 04       	testb  $0x4,0x20(%r14)
   123e6:	0f 85 5c ff ff ff    	jne    12348 <_Unwind_Backtrace@@GCC_3.3+0xc18>
   123ec:	85 ed                	test   %ebp,%ebp
   123ee:	74 b0                	je     123a0 <_Unwind_Backtrace@@GCC_3.3+0xc70>
   123f0:	48 8d 4c 24 10       	lea    0x10(%rsp),%rcx
   123f5:	48 8d 53 08          	lea    0x8(%rbx),%rdx
   123f9:	40 0f b6 fd          	movzbl %bpl,%edi
   123fd:	4c 89 ee             	mov    %r13,%rsi
   12400:	e8 cb f5 ff ff       	callq  119d0 <_Unwind_Backtrace@@GCC_3.3+0x2a0>
   12405:	89 ef                	mov    %ebp,%edi
   12407:	48 8d 4c 24 18       	lea    0x18(%rsp),%rcx
   1240c:	31 f6                	xor    %esi,%esi
   1240e:	48 89 c2             	mov    %rax,%rdx
   12411:	83 e7 0f             	and    $0xf,%edi
   12414:	e8 b7 f5 ff ff       	callq  119d0 <_Unwind_Backtrace@@GCC_3.3+0x2a0>
   12419:	41 89 ea             	mov    %ebp,%r10d
   1241c:	40 80 fd ff          	cmp    $0xff,%bpl
   12420:	0f 84 a7 01 00 00    	je     125cd <_Unwind_Backtrace@@GCC_3.3+0xe9d>
   12426:	44 89 d0             	mov    %r10d,%eax
   12429:	83 e0 07             	and    $0x7,%eax
   1242c:	3c 02                	cmp    $0x2,%al
   1242e:	0f 84 c4 00 00 00    	je     124f8 <_Unwind_Backtrace@@GCC_3.3+0xdc8>
   12434:	76 42                	jbe    12478 <_Unwind_Backtrace@@GCC_3.3+0xd48>
   12436:	ba ff ff ff ff       	mov    $0xffffffff,%edx
   1243b:	3c 03                	cmp    $0x3,%al
   1243d:	75 51                	jne    12490 <_Unwind_Backtrace@@GCC_3.3+0xd60>
   1243f:	48 8b 44 24 10       	mov    0x10(%rsp),%rax
   12444:	48 85 d0             	test   %rdx,%rax
   12447:	0f 84 7b ff ff ff    	je     123c8 <_Unwind_Backtrace@@GCC_3.3+0xc98>
   1244d:	4c 89 e1             	mov    %r12,%rcx
   12450:	48 8b 54 24 18       	mov    0x18(%rsp),%rdx
   12455:	48 29 c1             	sub    %rax,%rcx
   12458:	48 39 d1             	cmp    %rdx,%rcx
   1245b:	0f 83 67 ff ff ff    	jae    123c8 <_Unwind_Backtrace@@GCC_3.3+0xc98>
   12461:	48 83 c4 28          	add    $0x28,%rsp
   12465:	48 89 d8             	mov    %rbx,%rax
   12468:	5b                   	pop    %rbx
   12469:	5d                   	pop    %rbp
   1246a:	41 5c                	pop    %r12
   1246c:	41 5d                	pop    %r13
   1246e:	41 5e                	pop    %r14
   12470:	41 5f                	pop    %r15
   12472:	c3                   	retq   
   12473:	0f 1f 44 00 00       	nopl   0x0(%rax,%rax,1)
   12478:	84 c0                	test   %al,%al
   1247a:	0f 85 54 01 00 00    	jne    125d4 <_Unwind_Backtrace@@GCC_3.3+0xea4>
   12480:	48 c7 c2 ff ff ff ff 	mov    $0xffffffffffffffff,%rdx
   12487:	eb b6                	jmp    1243f <_Unwind_Backtrace@@GCC_3.3+0xd0f>
   12489:	0f 1f 80 00 00 00 00 	nopl   0x0(%rax)
   12490:	3c 04                	cmp    $0x4,%al
   12492:	74 ec                	je     12480 <_Unwind_Backtrace@@GCC_3.3+0xd50>
   12494:	e9 00 12 ff ff       	jmpq   3699 <_Unwind_GetDataRelBase@plt+0xc9>
   12499:	0f 1f 80 00 00 00 00 	nopl   0x0(%rax)
   124a0:	3c 50                	cmp    $0x50,%al
   124a2:	0f 85 36 01 00 00    	jne    125de <_Unwind_Backtrace@@GCC_3.3+0xeae>
   124a8:	4d 89 cf             	mov    %r9,%r15
   124ab:	45 31 ed             	xor    %r13d,%r13d
   124ae:	85 ed                	test   %ebp,%ebp
   124b0:	0f 84 ea fe ff ff    	je     123a0 <_Unwind_Backtrace@@GCC_3.3+0xc70>
   124b6:	e9 35 ff ff ff       	jmpq   123f0 <_Unwind_Backtrace@@GCC_3.3+0xcc0>
   124bb:	0f 1f 44 00 00       	nopl   0x0(%rax,%rax,1)
   124c0:	41 83 e2 60          	and    $0x60,%r10d
   124c4:	0f 85 cf 11 ff ff    	jne    3699 <_Unwind_GetDataRelBase@plt+0xc9>
   124ca:	eb dc                	jmp    124a8 <_Unwind_Backtrace@@GCC_3.3+0xd78>
   124cc:	0f 1f 40 00          	nopl   0x0(%rax)
   124d0:	80 fa 50             	cmp    $0x50,%dl
   124d3:	0f 85 00 01 00 00    	jne    125d9 <_Unwind_Backtrace@@GCC_3.3+0xea9>
   124d9:	45 31 ed             	xor    %r13d,%r13d
   124dc:	e9 4f fe ff ff       	jmpq   12330 <_Unwind_Backtrace@@GCC_3.3+0xc00>
   124e1:	0f 1f 80 00 00 00 00 	nopl   0x0(%rax)
   124e8:	a8 60                	test   $0x60,%al
   124ea:	0f 85 a9 11 ff ff    	jne    3699 <_Unwind_GetDataRelBase@plt+0xc9>
   124f0:	eb e7                	jmp    124d9 <_Unwind_Backtrace@@GCC_3.3+0xda9>
   124f2:	66 0f 1f 44 00 00    	nopw   0x0(%rax,%rax,1)
   124f8:	ba ff ff 00 00       	mov    $0xffff,%edx
   124fd:	e9 3d ff ff ff       	jmpq   1243f <_Unwind_Backtrace@@GCC_3.3+0xd0f>
   12502:	66 0f 1f 44 00 00    	nopw   0x0(%rax,%rax,1)
   12508:	48 83 c4 28          	add    $0x28,%rsp
   1250c:	31 c0                	xor    %eax,%eax
   1250e:	5b                   	pop    %rbx
   1250f:	5d                   	pop    %rbp
   12510:	41 5c                	pop    %r12
   12512:	41 5d                	pop    %r13
   12514:	41 5e                	pop    %r14
   12516:	41 5f                	pop    %r15
   12518:	c3                   	retq   
   12519:	0f 1f 80 00 00 00 00 	nopl   0x0(%rax)
   12520:	4d 8b 6e 08          	mov    0x8(%r14),%r13
   12524:	4d 89 cf             	mov    %r9,%r15
   12527:	85 ed                	test   %ebp,%ebp
   12529:	0f 84 71 fe ff ff    	je     123a0 <_Unwind_Backtrace@@GCC_3.3+0xc70>
   1252f:	48 8d 4c 24 10       	lea    0x10(%rsp),%rcx
   12534:	48 8d 53 08          	lea    0x8(%rbx),%rdx
   12538:	40 0f b6 fd          	movzbl %bpl,%edi
   1253c:	4c 89 ee             	mov    %r13,%rsi
   1253f:	44 88 54 24 08       	mov    %r10b,0x8(%rsp)
   12544:	e8 87 f4 ff ff       	callq  119d0 <_Unwind_Backtrace@@GCC_3.3+0x2a0>
   12549:	89 ef                	mov    %ebp,%edi
   1254b:	48 8d 4c 24 18       	lea    0x18(%rsp),%rcx
   12550:	31 f6                	xor    %esi,%esi
   12552:	48 89 c2             	mov    %rax,%rdx
   12555:	83 e7 0f             	and    $0xf,%edi
   12558:	e8 73 f4 ff ff       	callq  119d0 <_Unwind_Backtrace@@GCC_3.3+0x2a0>
   1255d:	44 0f b6 54 24 08    	movzbl 0x8(%rsp),%r10d
   12563:	e9 be fe ff ff       	jmpq   12426 <_Unwind_Backtrace@@GCC_3.3+0xcf6>
   12568:	0f 1f 84 00 00 00 00 	nopl   0x0(%rax,%rax,1)
   1256f:	00 
   12570:	48 8d 4c 24 10       	lea    0x10(%rsp),%rcx
   12575:	48 8d 53 08          	lea    0x8(%rbx),%rdx
   12579:	31 f6                	xor    %esi,%esi
   1257b:	bf ff 00 00 00       	mov    $0xff,%edi
   12580:	4c 89 4c 24 08       	mov    %r9,0x8(%rsp)
   12585:	45 31 ed             	xor    %r13d,%r13d
   12588:	e8 43 f4 ff ff       	callq  119d0 <_Unwind_Backtrace@@GCC_3.3+0x2a0>
   1258d:	89 ef                	mov    %ebp,%edi
   1258f:	48 8d 4c 24 18       	lea    0x18(%rsp),%rcx
   12594:	31 f6                	xor    %esi,%esi
   12596:	48 89 c2             	mov    %rax,%rdx
   12599:	83 e7 0f             	and    $0xf,%edi
   1259c:	e8 2f f4 ff ff       	callq  119d0 <_Unwind_Backtrace@@GCC_3.3+0x2a0>
   125a1:	4c 8b 4c 24 08       	mov    0x8(%rsp),%r9
   125a6:	31 d2                	xor    %edx,%edx
   125a8:	4d 89 cf             	mov    %r9,%r15
   125ab:	e9 8f fe ff ff       	jmpq   1243f <_Unwind_Backtrace@@GCC_3.3+0xd0f>
   125b0:	4c 8b 6f 08          	mov    0x8(%rdi),%r13
   125b4:	e9 77 fd ff ff       	jmpq   12330 <_Unwind_Backtrace@@GCC_3.3+0xc00>
   125b9:	0f 1f 80 00 00 00 00 	nopl   0x0(%rax)
   125c0:	45 31 ed             	xor    %r13d,%r13d
   125c3:	bd ff 00 00 00       	mov    $0xff,%ebp
   125c8:	e9 63 fd ff ff       	jmpq   12330 <_Unwind_Backtrace@@GCC_3.3+0xc00>
   125cd:	31 d2                	xor    %edx,%edx
   125cf:	e9 6b fe ff ff       	jmpq   1243f <_Unwind_Backtrace@@GCC_3.3+0xd0f>
   125d4:	e9 c0 10 ff ff       	jmpq   3699 <_Unwind_GetDataRelBase@plt+0xc9>
   125d9:	e9 bb 10 ff ff       	jmpq   3699 <_Unwind_GetDataRelBase@plt+0xc9>
   125de:	e9 b6 10 ff ff       	jmpq   3699 <_Unwind_GetDataRelBase@plt+0xc9>
   125e3:	66 66 2e 0f 1f 84 00 	data16 nopw %cs:0x0(%rax,%rax,1)
   125ea:	00 00 00 00 
   125ee:	66 90                	xchg   %ax,%ax
   125f0:	f3 0f 1e fa          	endbr64 
   125f4:	41 57                	push   %r15
   125f6:	48 89 f9             	mov    %rdi,%rcx
   125f9:	48 89 f7             	mov    %rsi,%rdi
   125fc:	41 56                	push   %r14
   125fe:	41 55                	push   %r13
   12600:	41 54                	push   %r12
   12602:	55                   	push   %rbp
   12603:	53                   	push   %rbx
   12604:	48 89 d3             	mov    %rdx,%rbx
   12607:	48 83 ec 58          	sub    $0x58,%rsp
   1260b:	8b 52 28             	mov    0x28(%rdx),%edx
   1260e:	48 8b 41 10          	mov    0x10(%rcx),%rax
   12612:	4c 8b 01             	mov    (%rcx),%r8
   12615:	85 d2                	test   %edx,%edx
   12617:	74 0a                	je     12623 <_Unwind_Backtrace@@GCC_3.3+0xef3>
   12619:	48 83 fe 2f          	cmp    $0x2f,%rsi
   1261d:	0f 87 45 01 00 00    	ja     12768 <_Unwind_Backtrace@@GCC_3.3+0x1038>
   12623:	48 83 ff 19          	cmp    $0x19,%rdi
   12627:	0f 86 23 01 00 00    	jbe    12750 <_Unwind_Backtrace@@GCC_3.3+0x1020>
   1262d:	48 c7 44 24 08 00 00 	movq   $0x0,0x8(%rsp)
   12634:	00 00 
   12636:	45 31 e4             	xor    %r12d,%r12d
   12639:	0f b7 51 18          	movzwl 0x18(%rcx),%edx
   1263d:	66 85 d2             	test   %dx,%dx
   12640:	0f 84 ba 01 00 00    	je     12800 <_Unwind_Backtrace@@GCC_3.3+0x10d0>
   12646:	45 31 ed             	xor    %r13d,%r13d
   12649:	45 31 f6             	xor    %r14d,%r14d
   1264c:	45 31 d2             	xor    %r10d,%r10d
   1264f:	45 31 db             	xor    %r11d,%r11d
   12652:	48 8d 0c d5 00 00 00 	lea    0x0(,%rdx,8),%rcx
   12659:	00 
   1265a:	41 bf 01 00 00 00    	mov    $0x1,%r15d
   12660:	48 29 d1             	sub    %rdx,%rcx
   12663:	48 8d 14 c8          	lea    (%rax,%rcx,8),%rdx
   12667:	31 c9                	xor    %ecx,%ecx
   12669:	eb 21                	jmp    1268c <_Unwind_Backtrace@@GCC_3.3+0xf5c>
   1266b:	0f 1f 44 00 00       	nopl   0x0(%rax,%rax,1)
   12670:	81 fe 50 e5 74 64    	cmp    $0x6474e550,%esi
   12676:	0f 84 74 01 00 00    	je     127f0 <_Unwind_Backtrace@@GCC_3.3+0x10c0>
   1267c:	83 fe 02             	cmp    $0x2,%esi
   1267f:	48 0f 44 c8          	cmove  %rax,%rcx
   12683:	48 83 c0 38          	add    $0x38,%rax
   12687:	48 39 c2             	cmp    %rax,%rdx
   1268a:	74 3c                	je     126c8 <_Unwind_Backtrace@@GCC_3.3+0xf98>
   1268c:	8b 30                	mov    (%rax),%esi
   1268e:	83 fe 01             	cmp    $0x1,%esi
   12691:	75 dd                	jne    12670 <_Unwind_Backtrace@@GCC_3.3+0xf40>
   12693:	48 8b 70 10          	mov    0x10(%rax),%rsi
   12697:	4c 8b 0b             	mov    (%rbx),%r9
   1269a:	4c 01 c6             	add    %r8,%rsi
   1269d:	49 39 f1             	cmp    %rsi,%r9
   126a0:	72 e1                	jb     12683 <_Unwind_Backtrace@@GCC_3.3+0xf53>
   126a2:	48 8b 68 28          	mov    0x28(%rax),%rbp
   126a6:	48 01 f5             	add    %rsi,%rbp
   126a9:	49 39 e9             	cmp    %rbp,%r9
   126ac:	4c 0f 42 ed          	cmovb  %rbp,%r13
   126b0:	4c 0f 42 f6          	cmovb  %rsi,%r14
   126b4:	4d 0f 42 d7          	cmovb  %r15,%r10
   126b8:	48 83 c0 38          	add    $0x38,%rax
   126bc:	48 39 c2             	cmp    %rax,%rdx
   126bf:	75 cb                	jne    1268c <_Unwind_Backtrace@@GCC_3.3+0xf5c>
   126c1:	0f 1f 80 00 00 00 00 	nopl   0x0(%rax)
   126c8:	4d 85 d2             	test   %r10,%r10
   126cb:	0f 84 2f 01 00 00    	je     12800 <_Unwind_Backtrace@@GCC_3.3+0x10d0>
   126d1:	48 83 ff 2f          	cmp    $0x2f,%rdi
   126d5:	76 41                	jbe    12718 <_Unwind_Backtrace@@GCC_3.3+0xfe8>
   126d7:	48 8b 05 52 7b 00 00 	mov    0x7b52(%rip),%rax        # 1a230 <__cpu_model@GCC_4.8.0+0x60>
   126de:	4d 85 e4             	test   %r12,%r12
   126e1:	74 22                	je     12705 <_Unwind_Backtrace@@GCC_3.3+0xfd5>
   126e3:	48 8b 7c 24 08       	mov    0x8(%rsp),%rdi
   126e8:	48 85 ff             	test   %rdi,%rdi
   126eb:	74 18                	je     12705 <_Unwind_Backtrace@@GCC_3.3+0xfd5>
   126ed:	49 8b 54 24 28       	mov    0x28(%r12),%rdx
   126f2:	4c 89 25 37 7b 00 00 	mov    %r12,0x7b37(%rip)        # 1a230 <__cpu_model@GCC_4.8.0+0x60>
   126f9:	48 89 57 28          	mov    %rdx,0x28(%rdi)
   126fd:	49 89 44 24 28       	mov    %rax,0x28(%r12)
   12702:	4c 89 e0             	mov    %r12,%rax
   12705:	4c 89 40 10          	mov    %r8,0x10(%rax)
   12709:	4c 89 58 18          	mov    %r11,0x18(%rax)
   1270d:	48 89 48 20          	mov    %rcx,0x20(%rax)
   12711:	4c 89 30             	mov    %r14,(%rax)
   12714:	4c 89 68 08          	mov    %r13,0x8(%rax)
   12718:	4d 85 db             	test   %r11,%r11
   1271b:	0f 84 df 00 00 00    	je     12800 <_Unwind_Backtrace@@GCC_3.3+0x10d0>
   12721:	4d 03 43 10          	add    0x10(%r11),%r8
   12725:	41 80 38 01          	cmpb   $0x1,(%r8)
   12729:	4c 89 c5             	mov    %r8,%rbp
   1272c:	0f 84 5e 01 00 00    	je     12890 <_Unwind_Backtrace@@GCC_3.3+0x1160>
   12732:	48 83 c4 58          	add    $0x58,%rsp
   12736:	b8 01 00 00 00       	mov    $0x1,%eax
   1273b:	5b                   	pop    %rbx
   1273c:	5d                   	pop    %rbp
   1273d:	41 5c                	pop    %r12
   1273f:	41 5d                	pop    %r13
   12741:	41 5e                	pop    %r14
   12743:	41 5f                	pop    %r15
   12745:	c3                   	retq   
   12746:	66 2e 0f 1f 84 00 00 	nopw   %cs:0x0(%rax,%rax,1)
   1274d:	00 00 00 
   12750:	48 83 c4 58          	add    $0x58,%rsp
   12754:	b8 ff ff ff ff       	mov    $0xffffffff,%eax
   12759:	5b                   	pop    %rbx
   1275a:	5d                   	pop    %rbp
   1275b:	41 5c                	pop    %r12
   1275d:	41 5d                	pop    %r13
   1275f:	41 5e                	pop    %r14
   12761:	41 5f                	pop    %r15
   12763:	c3                   	retq   
   12764:	0f 1f 40 00          	nopl   0x0(%rax)
   12768:	48 8b 51 20          	mov    0x20(%rcx),%rdx
   1276c:	48 3b 15 15 7a 00 00 	cmp    0x7a15(%rip),%rdx        # 1a188 <__emutls_register_common@@GCC_4.3.0+0x6178>
   12773:	48 8b 71 28          	mov    0x28(%rcx),%rsi
   12777:	0f 84 9b 00 00 00    	je     12818 <_Unwind_Backtrace@@GCC_3.3+0x10e8>
   1277d:	48 89 15 04 7a 00 00 	mov    %rdx,0x7a04(%rip)        # 1a188 <__emutls_register_common@@GCC_4.3.0+0x6178>
   12784:	48 8d 15 e5 7a 00 00 	lea    0x7ae5(%rip),%rdx        # 1a270 <__cpu_model@GCC_4.8.0+0xa0>
   1278b:	48 89 35 96 7a 00 00 	mov    %rsi,0x7a96(%rip)        # 1a228 <__cpu_model@GCC_4.8.0+0x58>
   12792:	48 8d b2 80 01 00 00 	lea    0x180(%rdx),%rsi
   12799:	0f 1f 80 00 00 00 00 	nopl   0x0(%rax)
   127a0:	48 c7 42 d0 00 00 00 	movq   $0x0,-0x30(%rdx)
   127a7:	00 
   127a8:	48 c7 42 d8 00 00 00 	movq   $0x0,-0x28(%rdx)
   127af:	00 
   127b0:	48 89 52 f8          	mov    %rdx,-0x8(%rdx)
   127b4:	48 83 c2 30          	add    $0x30,%rdx
   127b8:	48 39 d6             	cmp    %rdx,%rsi
   127bb:	75 e3                	jne    127a0 <_Unwind_Backtrace@@GCC_3.3+0x1070>
   127bd:	48 8d 15 7c 7a 00 00 	lea    0x7a7c(%rip),%rdx        # 1a240 <__cpu_model@GCC_4.8.0+0x70>
   127c4:	45 31 e4             	xor    %r12d,%r12d
   127c7:	48 c7 05 e6 7b 00 00 	movq   $0x0,0x7be6(%rip)        # 1a3b8 <__cpu_model@GCC_4.8.0+0x1e8>
   127ce:	00 00 00 00 
   127d2:	48 89 15 57 7a 00 00 	mov    %rdx,0x7a57(%rip)        # 1a230 <__cpu_model@GCC_4.8.0+0x60>
   127d9:	c7 43 28 00 00 00 00 	movl   $0x0,0x28(%rbx)
   127e0:	48 c7 44 24 08 00 00 	movq   $0x0,0x8(%rsp)
   127e7:	00 00 
   127e9:	e9 4b fe ff ff       	jmpq   12639 <_Unwind_Backtrace@@GCC_3.3+0xf09>
   127ee:	66 90                	xchg   %ax,%ax
   127f0:	49 89 c3             	mov    %rax,%r11
   127f3:	e9 8b fe ff ff       	jmpq   12683 <_Unwind_Backtrace@@GCC_3.3+0xf53>
   127f8:	0f 1f 84 00 00 00 00 	nopl   0x0(%rax,%rax,1)
   127ff:	00 
   12800:	48 83 c4 58          	add    $0x58,%rsp
   12804:	31 c0                	xor    %eax,%eax
   12806:	5b                   	pop    %rbx
   12807:	5d                   	pop    %rbp
   12808:	41 5c                	pop    %r12
   1280a:	41 5d                	pop    %r13
   1280c:	41 5e                	pop    %r14
   1280e:	41 5f                	pop    %r15
   12810:	c3                   	retq   
   12811:	0f 1f 80 00 00 00 00 	nopl   0x0(%rax)
   12818:	48 39 35 09 7a 00 00 	cmp    %rsi,0x7a09(%rip)        # 1a228 <__cpu_model@GCC_4.8.0+0x58>
   1281f:	0f 85 58 ff ff ff    	jne    1277d <_Unwind_Backtrace@@GCC_3.3+0x104d>
   12825:	4c 8b 15 04 7a 00 00 	mov    0x7a04(%rip),%r10        # 1a230 <__cpu_model@GCC_4.8.0+0x60>
   1282c:	4d 85 d2             	test   %r10,%r10
   1282f:	0f 84 f8 fd ff ff    	je     1262d <_Unwind_Backtrace@@GCC_3.3+0xefd>
   12835:	4d 89 d4             	mov    %r10,%r12
   12838:	4c 8b 0b             	mov    (%rbx),%r9
   1283b:	45 31 db             	xor    %r11d,%r11d
   1283e:	49 8b 14 24          	mov    (%r12),%rdx
   12842:	49 8b 74 24 08       	mov    0x8(%r12),%rsi
   12847:	49 39 d1             	cmp    %rdx,%r9
   1284a:	72 0d                	jb     12859 <_Unwind_Backtrace@@GCC_3.3+0x1129>
   1284c:	0f 1f 40 00          	nopl   0x0(%rax)
   12850:	49 39 f1             	cmp    %rsi,%r9
   12853:	0f 82 c5 02 00 00    	jb     12b1e <_Unwind_Backtrace@@GCC_3.3+0x13ee>
   12859:	48 09 f2             	or     %rsi,%rdx
   1285c:	0f 84 4e 01 00 00    	je     129b0 <_Unwind_Backtrace@@GCC_3.3+0x1280>
   12862:	49 8b 54 24 28       	mov    0x28(%r12),%rdx
   12867:	48 85 d2             	test   %rdx,%rdx
   1286a:	0f 84 40 01 00 00    	je     129b0 <_Unwind_Backtrace@@GCC_3.3+0x1280>
   12870:	4d 89 e3             	mov    %r12,%r11
   12873:	49 89 d4             	mov    %rdx,%r12
   12876:	49 8b 14 24          	mov    (%r12),%rdx
   1287a:	49 8b 74 24 08       	mov    0x8(%r12),%rsi
   1287f:	49 39 d1             	cmp    %rdx,%r9
   12882:	72 d5                	jb     12859 <_Unwind_Backtrace@@GCC_3.3+0x1129>
   12884:	eb ca                	jmp    12850 <_Unwind_Backtrace@@GCC_3.3+0x1120>
   12886:	66 2e 0f 1f 84 00 00 	nopw   %cs:0x0(%rax,%rax,1)
   1288d:	00 00 00 
   12890:	0f b6 7d 01          	movzbl 0x1(%rbp),%edi
   12894:	4d 8d 40 04          	lea    0x4(%r8),%r8
   12898:	89 f8                	mov    %edi,%eax
   1289a:	40 80 ff ff          	cmp    $0xff,%dil
   1289e:	0f 84 f1 00 00 00    	je     12995 <_Unwind_Backtrace@@GCC_3.3+0x1265>
   128a4:	89 fa                	mov    %edi,%edx
   128a6:	83 e2 70             	and    $0x70,%edx
   128a9:	80 fa 20             	cmp    $0x20,%dl
   128ac:	0f 84 16 01 00 00    	je     129c8 <_Unwind_Backtrace@@GCC_3.3+0x1298>
   128b2:	0f 86 e4 00 00 00    	jbe    1299c <_Unwind_Backtrace@@GCC_3.3+0x126c>
   128b8:	80 fa 30             	cmp    $0x30,%dl
   128bb:	0f 85 cb 00 00 00    	jne    1298c <_Unwind_Backtrace@@GCC_3.3+0x125c>
   128c1:	48 8b 73 10          	mov    0x10(%rbx),%rsi
   128c5:	0f 1f 00             	nopl   (%rax)
   128c8:	4c 89 c2             	mov    %r8,%rdx
   128cb:	48 8d 4c 24 10       	lea    0x10(%rsp),%rcx
   128d0:	e8 fb f0 ff ff       	callq  119d0 <_Unwind_Backtrace@@GCC_3.3+0x2a0>
   128d5:	0f b6 55 02          	movzbl 0x2(%rbp),%edx
   128d9:	80 fa ff             	cmp    $0xff,%dl
   128dc:	74 0a                	je     128e8 <_Unwind_Backtrace@@GCC_3.3+0x11b8>
   128de:	80 7d 03 3b          	cmpb   $0x3b,0x3(%rbp)
   128e2:	0f 84 e9 00 00 00    	je     129d1 <_Unwind_Backtrace@@GCC_3.3+0x12a1>
   128e8:	48 8b 43 08          	mov    0x8(%rbx),%rax
   128ec:	48 8b 74 24 10       	mov    0x10(%rsp),%rsi
   128f1:	48 8d 7c 24 20       	lea    0x20(%rsp),%rdi
   128f6:	48 c7 44 24 20 00 00 	movq   $0x0,0x20(%rsp)
   128fd:	00 00 
   128ff:	48 c7 44 24 40 04 00 	movq   $0x4,0x40(%rsp)
   12906:	00 00 
   12908:	48 8b 13             	mov    (%rbx),%rdx
   1290b:	48 89 44 24 28       	mov    %rax,0x28(%rsp)
   12910:	48 8b 43 10          	mov    0x10(%rbx),%rax
   12914:	48 89 74 24 38       	mov    %rsi,0x38(%rsp)
   12919:	48 89 44 24 30       	mov    %rax,0x30(%rsp)
   1291e:	e8 bd f9 ff ff       	callq  122e0 <_Unwind_Backtrace@@GCC_3.3+0xbb0>
   12923:	48 89 43 20          	mov    %rax,0x20(%rbx)
   12927:	48 85 c0             	test   %rax,%rax
   1292a:	0f 84 02 fe ff ff    	je     12732 <_Unwind_Backtrace@@GCC_3.3+0x1002>
   12930:	48 8d 78 04          	lea    0x4(%rax),%rdi
   12934:	48 63 40 04          	movslq 0x4(%rax),%rax
   12938:	48 29 c7             	sub    %rax,%rdi
   1293b:	e8 e0 f1 ff ff       	callq  11b20 <_Unwind_Backtrace@@GCC_3.3+0x3f0>
   12940:	48 8b 7b 20          	mov    0x20(%rbx),%rdi
   12944:	48 8d 57 08          	lea    0x8(%rdi),%rdx
   12948:	0f b6 f8             	movzbl %al,%edi
   1294b:	3c ff                	cmp    $0xff,%al
   1294d:	74 23                	je     12972 <_Unwind_Backtrace@@GCC_3.3+0x1242>
   1294f:	89 c1                	mov    %eax,%ecx
   12951:	83 e1 70             	and    $0x70,%ecx
   12954:	80 f9 20             	cmp    $0x20,%cl
   12957:	0f 84 b8 01 00 00    	je     12b15 <_Unwind_Backtrace@@GCC_3.3+0x13e5>
   1295d:	76 0b                	jbe    1296a <_Unwind_Backtrace@@GCC_3.3+0x123a>
   1295f:	80 f9 30             	cmp    $0x30,%cl
   12962:	75 56                	jne    129ba <_Unwind_Backtrace@@GCC_3.3+0x128a>
   12964:	48 8b 73 10          	mov    0x10(%rbx),%rsi
   12968:	eb 0a                	jmp    12974 <_Unwind_Backtrace@@GCC_3.3+0x1244>
   1296a:	a8 60                	test   $0x60,%al
   1296c:	0f 85 31 0d ff ff    	jne    36a3 <_Unwind_GetDataRelBase@plt+0xd3>
   12972:	31 f6                	xor    %esi,%esi
   12974:	48 8d 4c 24 18       	lea    0x18(%rsp),%rcx
   12979:	e8 52 f0 ff ff       	callq  119d0 <_Unwind_Backtrace@@GCC_3.3+0x2a0>
   1297e:	48 8b 44 24 18       	mov    0x18(%rsp),%rax
   12983:	48 89 43 18          	mov    %rax,0x18(%rbx)
   12987:	e9 a6 fd ff ff       	jmpq   12732 <_Unwind_Backtrace@@GCC_3.3+0x1002>
   1298c:	80 fa 50             	cmp    $0x50,%dl
   1298f:	0f 85 01 02 00 00    	jne    12b96 <_Unwind_Backtrace@@GCC_3.3+0x1466>
   12995:	31 f6                	xor    %esi,%esi
   12997:	e9 2c ff ff ff       	jmpq   128c8 <_Unwind_Backtrace@@GCC_3.3+0x1198>
   1299c:	a8 60                	test   $0x60,%al
   1299e:	0f 85 ff 0c ff ff    	jne    36a3 <_Unwind_GetDataRelBase@plt+0xd3>
   129a4:	eb ef                	jmp    12995 <_Unwind_Backtrace@@GCC_3.3+0x1265>
   129a6:	66 2e 0f 1f 84 00 00 	nopw   %cs:0x0(%rax,%rax,1)
   129ad:	00 00 00 
   129b0:	4c 89 5c 24 08       	mov    %r11,0x8(%rsp)
   129b5:	e9 7f fc ff ff       	jmpq   12639 <_Unwind_Backtrace@@GCC_3.3+0xf09>
   129ba:	80 f9 50             	cmp    $0x50,%cl
   129bd:	74 b3                	je     12972 <_Unwind_Backtrace@@GCC_3.3+0x1242>
   129bf:	e9 df 0c ff ff       	jmpq   36a3 <_Unwind_GetDataRelBase@plt+0xd3>
   129c4:	0f 1f 40 00          	nopl   0x0(%rax)
   129c8:	48 8b 73 08          	mov    0x8(%rbx),%rsi
   129cc:	e9 f7 fe ff ff       	jmpq   128c8 <_Unwind_Backtrace@@GCC_3.3+0x1198>
   129d1:	89 d1                	mov    %edx,%ecx
   129d3:	0f b6 fa             	movzbl %dl,%edi
   129d6:	83 e1 70             	and    $0x70,%ecx
   129d9:	80 f9 20             	cmp    $0x20,%cl
   129dc:	0f 84 6c 01 00 00    	je     12b4e <_Unwind_Backtrace@@GCC_3.3+0x141e>
   129e2:	0f 86 1a 01 00 00    	jbe    12b02 <_Unwind_Backtrace@@GCC_3.3+0x13d2>
   129e8:	80 f9 30             	cmp    $0x30,%cl
   129eb:	0f 85 01 01 00 00    	jne    12af2 <_Unwind_Backtrace@@GCC_3.3+0x13c2>
   129f1:	48 8b 73 10          	mov    0x10(%rbx),%rsi
   129f5:	48 8d 4c 24 18       	lea    0x18(%rsp),%rcx
   129fa:	48 89 c2             	mov    %rax,%rdx
   129fd:	e8 ce ef ff ff       	callq  119d0 <_Unwind_Backtrace@@GCC_3.3+0x2a0>
   12a02:	48 8b 4c 24 18       	mov    0x18(%rsp),%rcx
   12a07:	48 89 c2             	mov    %rax,%rdx
   12a0a:	48 85 c9             	test   %rcx,%rcx
   12a0d:	0f 84 1f fd ff ff    	je     12732 <_Unwind_Backtrace@@GCC_3.3+0x1002>
   12a13:	49 89 c0             	mov    %rax,%r8
   12a16:	41 83 e0 03          	and    $0x3,%r8d
   12a1a:	0f 85 c8 fe ff ff    	jne    128e8 <_Unwind_Backtrace@@GCC_3.3+0x11b8>
   12a20:	48 63 00             	movslq (%rax),%rax
   12a23:	48 8b 3b             	mov    (%rbx),%rdi
   12a26:	48 01 e8             	add    %rbp,%rax
   12a29:	48 39 f8             	cmp    %rdi,%rax
   12a2c:	0f 87 00 fd ff ff    	ja     12732 <_Unwind_Backtrace@@GCC_3.3+0x1002>
   12a32:	48 83 e9 01          	sub    $0x1,%rcx
   12a36:	4c 8d 24 ca          	lea    (%rdx,%rcx,8),%r12
   12a3a:	49 63 04 24          	movslq (%r12),%rax
   12a3e:	48 01 e8             	add    %rbp,%rax
   12a41:	48 39 f8             	cmp    %rdi,%rax
   12a44:	76 35                	jbe    12a7b <_Unwind_Backtrace@@GCC_3.3+0x134b>
   12a46:	49 39 c8             	cmp    %rcx,%r8
   12a49:	0f 83 29 01 00 00    	jae    12b78 <_Unwind_Backtrace@@GCC_3.3+0x1448>
   12a4f:	49 8d 04 08          	lea    (%r8,%rcx,1),%rax
   12a53:	48 d1 e8             	shr    %rax
   12a56:	4c 8d 24 c2          	lea    (%rdx,%rax,8),%r12
   12a5a:	49 63 34 24          	movslq (%r12),%rsi
   12a5e:	48 01 ee             	add    %rbp,%rsi
   12a61:	48 39 fe             	cmp    %rdi,%rsi
   12a64:	0f 87 a3 00 00 00    	ja     12b0d <_Unwind_Backtrace@@GCC_3.3+0x13dd>
   12a6a:	4c 8d 40 01          	lea    0x1(%rax),%r8
   12a6e:	48 63 44 c2 08       	movslq 0x8(%rdx,%rax,8),%rax
   12a73:	48 01 e8             	add    %rbp,%rax
   12a76:	48 39 f8             	cmp    %rdi,%rax
   12a79:	76 cb                	jbe    12a46 <_Unwind_Backtrace@@GCC_3.3+0x1316>
   12a7b:	4d 63 6c 24 04       	movslq 0x4(%r12),%r13
   12a80:	49 01 ed             	add    %rbp,%r13
   12a83:	49 63 45 04          	movslq 0x4(%r13),%rax
   12a87:	49 8d 7d 04          	lea    0x4(%r13),%rdi
   12a8b:	48 29 c7             	sub    %rax,%rdi
   12a8e:	e8 8d f0 ff ff       	callq  11b20 <_Unwind_Backtrace@@GCC_3.3+0x3f0>
   12a93:	3c ff                	cmp    $0xff,%al
   12a95:	0f 84 ec 00 00 00    	je     12b87 <_Unwind_Backtrace@@GCC_3.3+0x1457>
   12a9b:	89 c1                	mov    %eax,%ecx
   12a9d:	83 e1 07             	and    $0x7,%ecx
   12aa0:	80 f9 02             	cmp    $0x2,%cl
   12aa3:	0f 84 d4 00 00 00    	je     12b7d <_Unwind_Backtrace@@GCC_3.3+0x144d>
   12aa9:	0f 86 bb 00 00 00    	jbe    12b6a <_Unwind_Backtrace@@GCC_3.3+0x143a>
   12aaf:	ba 0c 00 00 00       	mov    $0xc,%edx
   12ab4:	80 f9 03             	cmp    $0x3,%cl
   12ab7:	0f 85 9a 00 00 00    	jne    12b57 <_Unwind_Backtrace@@GCC_3.3+0x1427>
   12abd:	83 e0 0f             	and    $0xf,%eax
   12ac0:	48 8d 4c 24 20       	lea    0x20(%rsp),%rcx
   12ac5:	4c 01 ea             	add    %r13,%rdx
   12ac8:	31 f6                	xor    %esi,%esi
   12aca:	89 c7                	mov    %eax,%edi
   12acc:	e8 ff ee ff ff       	callq  119d0 <_Unwind_Backtrace@@GCC_3.3+0x2a0>
   12ad1:	4d 63 04 24          	movslq (%r12),%r8
   12ad5:	48 8b 44 24 20       	mov    0x20(%rsp),%rax
   12ada:	49 01 e8             	add    %rbp,%r8
   12add:	4c 01 c0             	add    %r8,%rax
   12ae0:	48 39 03             	cmp    %rax,(%rbx)
   12ae3:	73 04                	jae    12ae9 <_Unwind_Backtrace@@GCC_3.3+0x13b9>
   12ae5:	4c 89 6b 20          	mov    %r13,0x20(%rbx)
   12ae9:	4c 89 43 18          	mov    %r8,0x18(%rbx)
   12aed:	e9 40 fc ff ff       	jmpq   12732 <_Unwind_Backtrace@@GCC_3.3+0x1002>
   12af2:	80 f9 50             	cmp    $0x50,%cl
   12af5:	0f 85 96 00 00 00    	jne    12b91 <_Unwind_Backtrace@@GCC_3.3+0x1461>
   12afb:	31 f6                	xor    %esi,%esi
   12afd:	e9 f3 fe ff ff       	jmpq   129f5 <_Unwind_Backtrace@@GCC_3.3+0x12c5>
   12b02:	83 e2 60             	and    $0x60,%edx
   12b05:	0f 85 98 0b ff ff    	jne    36a3 <_Unwind_GetDataRelBase@plt+0xd3>
   12b0b:	eb ee                	jmp    12afb <_Unwind_Backtrace@@GCC_3.3+0x13cb>
   12b0d:	48 89 c1             	mov    %rax,%rcx
   12b10:	e9 31 ff ff ff       	jmpq   12a46 <_Unwind_Backtrace@@GCC_3.3+0x1316>
   12b15:	48 8b 73 08          	mov    0x8(%rbx),%rsi
   12b19:	e9 56 fe ff ff       	jmpq   12974 <_Unwind_Backtrace@@GCC_3.3+0x1244>
   12b1e:	4c 89 df             	mov    %r11,%rdi
   12b21:	4d 8b 44 24 10       	mov    0x10(%r12),%r8
   12b26:	4d 8b 5c 24 18       	mov    0x18(%r12),%r11
   12b2b:	4d 39 e2             	cmp    %r12,%r10
   12b2e:	0f 84 e4 fb ff ff    	je     12718 <_Unwind_Backtrace@@GCC_3.3+0xfe8>
   12b34:	49 8b 44 24 28       	mov    0x28(%r12),%rax
   12b39:	4c 89 25 f0 76 00 00 	mov    %r12,0x76f0(%rip)        # 1a230 <__cpu_model@GCC_4.8.0+0x60>
   12b40:	48 89 47 28          	mov    %rax,0x28(%rdi)
   12b44:	4d 89 54 24 28       	mov    %r10,0x28(%r12)
   12b49:	e9 ca fb ff ff       	jmpq   12718 <_Unwind_Backtrace@@GCC_3.3+0xfe8>
   12b4e:	48 8b 73 08          	mov    0x8(%rbx),%rsi
   12b52:	e9 9e fe ff ff       	jmpq   129f5 <_Unwind_Backtrace@@GCC_3.3+0x12c5>
   12b57:	80 f9 04             	cmp    $0x4,%cl
   12b5a:	0f 85 43 0b ff ff    	jne    36a3 <_Unwind_GetDataRelBase@plt+0xd3>
   12b60:	ba 10 00 00 00       	mov    $0x10,%edx
   12b65:	e9 53 ff ff ff       	jmpq   12abd <_Unwind_Backtrace@@GCC_3.3+0x138d>
   12b6a:	84 c9                	test   %cl,%cl
   12b6c:	74 f2                	je     12b60 <_Unwind_Backtrace@@GCC_3.3+0x1430>
   12b6e:	e9 30 0b ff ff       	jmpq   36a3 <_Unwind_GetDataRelBase@plt+0xd3>
   12b73:	0f 1f 44 00 00       	nopl   0x0(%rax,%rax,1)
   12b78:	e9 21 0b ff ff       	jmpq   369e <_Unwind_GetDataRelBase@plt+0xce>
   12b7d:	ba 0a 00 00 00       	mov    $0xa,%edx
   12b82:	e9 36 ff ff ff       	jmpq   12abd <_Unwind_Backtrace@@GCC_3.3+0x138d>
   12b87:	ba 08 00 00 00       	mov    $0x8,%edx
   12b8c:	e9 2c ff ff ff       	jmpq   12abd <_Unwind_Backtrace@@GCC_3.3+0x138d>
   12b91:	e9 0d 0b ff ff       	jmpq   36a3 <_Unwind_GetDataRelBase@plt+0xd3>
   12b96:	e9 08 0b ff ff       	jmpq   36a3 <_Unwind_GetDataRelBase@plt+0xd3>
   12b9b:	0f 1f 44 00 00       	nopl   0x0(%rax,%rax,1)
   12ba0:	41 57                	push   %r15
   12ba2:	41 56                	push   %r14
   12ba4:	41 55                	push   %r13
   12ba6:	49 89 fd             	mov    %rdi,%r13
   12ba9:	41 54                	push   %r12
   12bab:	49 89 f4             	mov    %rsi,%r12
   12bae:	55                   	push   %rbp
   12baf:	53                   	push   %rbx
   12bb0:	48 83 ec 58          	sub    $0x58,%rsp
   12bb4:	0f b6 57 20          	movzbl 0x20(%rdi),%edx
   12bb8:	f6 c2 01             	test   $0x1,%dl
   12bbb:	74 63                	je     12c20 <_Unwind_Backtrace@@GCC_3.3+0x14f0>
   12bbd:	83 e2 04             	and    $0x4,%edx
   12bc0:	49 8b 5d 18          	mov    0x18(%r13),%rbx
   12bc4:	0f 85 b6 01 00 00    	jne    12d80 <_Unwind_Backtrace@@GCC_3.3+0x1650>
   12bca:	41 0f b7 45 20       	movzwl 0x20(%r13),%eax
   12bcf:	66 a9 f8 07          	test   $0x7f8,%ax
   12bd3:	0f 85 bf 00 00 00    	jne    12c98 <_Unwind_Backtrace@@GCC_3.3+0x1568>
   12bd9:	48 8b 4b 08          	mov    0x8(%rbx),%rcx
   12bdd:	31 f6                	xor    %esi,%esi
   12bdf:	90                   	nop
   12be0:	48 39 f1             	cmp    %rsi,%rcx
   12be3:	76 33                	jbe    12c18 <_Unwind_Backtrace@@GCC_3.3+0x14e8>
   12be5:	48 8d 04 31          	lea    (%rcx,%rsi,1),%rax
   12be9:	48 d1 e8             	shr    %rax
   12bec:	4c 8b 74 c3 10       	mov    0x10(%rbx,%rax,8),%r14
   12bf1:	49 8b 56 08          	mov    0x8(%r14),%rdx
   12bf5:	49 39 d4             	cmp    %rdx,%r12
   12bf8:	0f 82 02 03 00 00    	jb     12f00 <_Unwind_Backtrace@@GCC_3.3+0x17d0>
   12bfe:	49 03 56 10          	add    0x10(%r14),%rdx
   12c02:	49 39 d4             	cmp    %rdx,%r12
   12c05:	0f 82 d1 02 00 00    	jb     12edc <_Unwind_Backtrace@@GCC_3.3+0x17ac>
   12c0b:	48 8d 70 01          	lea    0x1(%rax),%rsi
   12c0f:	48 39 f1             	cmp    %rsi,%rcx
   12c12:	77 d1                	ja     12be5 <_Unwind_Backtrace@@GCC_3.3+0x14b5>
   12c14:	0f 1f 40 00          	nopl   0x0(%rax)
   12c18:	45 31 f6             	xor    %r14d,%r14d
   12c1b:	e9 bc 02 00 00       	jmpq   12edc <_Unwind_Backtrace@@GCC_3.3+0x17ac>
   12c20:	44 8b 77 20          	mov    0x20(%rdi),%r14d
   12c24:	41 c1 ee 0b          	shr    $0xb,%r14d
   12c28:	44 89 f3             	mov    %r14d,%ebx
   12c2b:	48 89 5c 24 10       	mov    %rbx,0x10(%rsp)
   12c30:	48 85 db             	test   %rbx,%rbx
   12c33:	0f 85 17 03 00 00    	jne    12f50 <_Unwind_Backtrace@@GCC_3.3+0x1820>
   12c39:	83 e2 02             	and    $0x2,%edx
   12c3c:	48 8b 6f 18          	mov    0x18(%rdi),%rbp
   12c40:	0f 84 fe 01 00 00    	je     12e44 <_Unwind_Backtrace@@GCC_3.3+0x1714>
   12c46:	48 8b 75 00          	mov    0x0(%rbp),%rsi
   12c4a:	48 85 f6             	test   %rsi,%rsi
   12c4d:	75 1d                	jne    12c6c <_Unwind_Backtrace@@GCC_3.3+0x153c>
   12c4f:	e9 2a 02 00 00       	jmpq   12e7e <_Unwind_Backtrace@@GCC_3.3+0x174e>
   12c54:	0f 1f 40 00          	nopl   0x0(%rax)
   12c58:	48 8b 75 08          	mov    0x8(%rbp),%rsi
   12c5c:	48 83 c5 08          	add    $0x8,%rbp
   12c60:	48 01 c3             	add    %rax,%rbx
   12c63:	48 85 f6             	test   %rsi,%rsi
   12c66:	0f 84 20 06 00 00    	je     1328c <_Unwind_Backtrace@@GCC_3.3+0x1b5c>
   12c6c:	4c 89 ef             	mov    %r13,%rdi
   12c6f:	e8 dc ef ff ff       	callq  11c50 <_Unwind_Backtrace@@GCC_3.3+0x520>
   12c74:	48 83 f8 ff          	cmp    $0xffffffffffffffff,%rax
   12c78:	75 de                	jne    12c58 <_Unwind_Backtrace@@GCC_3.3+0x1528>
   12c7a:	48 8d 05 ff 2f 00 00 	lea    0x2fff(%rip),%rax        # 15c80 <__emutls_register_common@@GCC_4.3.0+0x1c70>
   12c81:	49 c7 45 20 f8 07 00 	movq   $0x7f8,0x20(%r13)
   12c88:	00 
   12c89:	49 89 45 18          	mov    %rax,0x18(%r13)
   12c8d:	e9 ec 01 00 00       	jmpq   12e7e <_Unwind_Backtrace@@GCC_3.3+0x174e>
   12c92:	66 0f 1f 44 00 00    	nopw   0x0(%rax,%rax,1)
   12c98:	66 c1 e8 03          	shr    $0x3,%ax
   12c9c:	0f b6 c8             	movzbl %al,%ecx
   12c9f:	89 0c 24             	mov    %ecx,(%rsp)
   12ca2:	3c ff                	cmp    $0xff,%al
   12ca4:	0f 84 8d 02 00 00    	je     12f37 <_Unwind_Backtrace@@GCC_3.3+0x1807>
   12caa:	89 c2                	mov    %eax,%edx
   12cac:	83 e2 70             	and    $0x70,%edx
   12caf:	80 fa 20             	cmp    $0x20,%dl
   12cb2:	0f 84 fe 05 00 00    	je     132b6 <_Unwind_Backtrace@@GCC_3.3+0x1b86>
   12cb8:	0f 86 80 02 00 00    	jbe    12f3e <_Unwind_Backtrace@@GCC_3.3+0x180e>
   12cbe:	80 fa 30             	cmp    $0x30,%dl
   12cc1:	0f 85 67 02 00 00    	jne    12f2e <_Unwind_Backtrace@@GCC_3.3+0x17fe>
   12cc7:	49 8b 4d 10          	mov    0x10(%r13),%rcx
   12ccb:	0f 1f 44 00 00       	nopl   0x0(%rax,%rax,1)
   12cd0:	4c 8b 6b 08          	mov    0x8(%rbx),%r13
   12cd4:	4d 85 ed             	test   %r13,%r13
   12cd7:	0f 84 3b ff ff ff    	je     12c18 <_Unwind_Backtrace@@GCC_3.3+0x14e8>
   12cdd:	83 e0 0f             	and    $0xf,%eax
   12ce0:	45 31 ff             	xor    %r15d,%r15d
   12ce3:	48 8d 6c 24 40       	lea    0x40(%rsp),%rbp
   12ce8:	48 89 5c 24 18       	mov    %rbx,0x18(%rsp)
   12ced:	89 44 24 08          	mov    %eax,0x8(%rsp)
   12cf1:	48 8d 44 24 38       	lea    0x38(%rsp),%rax
   12cf6:	49 89 ce             	mov    %rcx,%r14
   12cf9:	4c 89 eb             	mov    %r13,%rbx
   12cfc:	4c 89 64 24 20       	mov    %r12,0x20(%rsp)
   12d01:	4d 89 fc             	mov    %r15,%r12
   12d04:	49 89 ef             	mov    %rbp,%r15
   12d07:	48 89 44 24 10       	mov    %rax,0x10(%rsp)
   12d0c:	eb 1d                	jmp    12d2b <_Unwind_Backtrace@@GCC_3.3+0x15fb>
   12d0e:	66 90                	xchg   %ax,%ax
   12d10:	48 03 44 24 40       	add    0x40(%rsp),%rax
   12d15:	48 39 c8             	cmp    %rcx,%rax
   12d18:	0f 87 78 05 00 00    	ja     13296 <_Unwind_Backtrace@@GCC_3.3+0x1b66>
   12d1e:	4d 8d 65 01          	lea    0x1(%r13),%r12
   12d22:	49 39 dc             	cmp    %rbx,%r12
   12d25:	0f 83 ed fe ff ff    	jae    12c18 <_Unwind_Backtrace@@GCC_3.3+0x14e8>
   12d2b:	48 8b 44 24 18       	mov    0x18(%rsp),%rax
   12d30:	4e 8d 04 23          	lea    (%rbx,%r12,1),%r8
   12d34:	8b 3c 24             	mov    (%rsp),%edi
   12d37:	4c 89 f6             	mov    %r14,%rsi
   12d3a:	49 d1 e8             	shr    %r8
   12d3d:	48 8b 4c 24 10       	mov    0x10(%rsp),%rcx
   12d42:	4a 8b 6c c0 10       	mov    0x10(%rax,%r8,8),%rbp
   12d47:	4d 89 c5             	mov    %r8,%r13
   12d4a:	48 8d 55 08          	lea    0x8(%rbp),%rdx
   12d4e:	e8 7d ec ff ff       	callq  119d0 <_Unwind_Backtrace@@GCC_3.3+0x2a0>
   12d53:	8b 7c 24 08          	mov    0x8(%rsp),%edi
   12d57:	4c 89 f9             	mov    %r15,%rcx
   12d5a:	31 f6                	xor    %esi,%esi
   12d5c:	48 89 c2             	mov    %rax,%rdx
   12d5f:	e8 6c ec ff ff       	callq  119d0 <_Unwind_Backtrace@@GCC_3.3+0x2a0>
   12d64:	48 8b 44 24 38       	mov    0x38(%rsp),%rax
   12d69:	48 8b 4c 24 20       	mov    0x20(%rsp),%rcx
   12d6e:	48 39 c8             	cmp    %rcx,%rax
   12d71:	76 9d                	jbe    12d10 <_Unwind_Backtrace@@GCC_3.3+0x15e0>
   12d73:	4c 89 eb             	mov    %r13,%rbx
   12d76:	eb aa                	jmp    12d22 <_Unwind_Backtrace@@GCC_3.3+0x15f2>
   12d78:	0f 1f 84 00 00 00 00 	nopl   0x0(%rax,%rax,1)
   12d7f:	00 
   12d80:	4c 8b 7b 08          	mov    0x8(%rbx),%r15
   12d84:	4d 85 ff             	test   %r15,%r15
   12d87:	0f 84 8b fe ff ff    	je     12c18 <_Unwind_Backtrace@@GCC_3.3+0x14e8>
   12d8d:	48 89 1c 24          	mov    %rbx,(%rsp)
   12d91:	45 31 f6             	xor    %r14d,%r14d
   12d94:	4c 89 6c 24 08       	mov    %r13,0x8(%rsp)
   12d99:	eb 20                	jmp    12dbb <_Unwind_Backtrace@@GCC_3.3+0x168b>
   12d9b:	0f 1f 44 00 00       	nopl   0x0(%rax,%rax,1)
   12da0:	48 03 44 24 40       	add    0x40(%rsp),%rax
   12da5:	49 39 c4             	cmp    %rax,%r12
   12da8:	0f 82 3e 05 00 00    	jb     132ec <_Unwind_Backtrace@@GCC_3.3+0x1bbc>
   12dae:	4c 8d 75 01          	lea    0x1(%rbp),%r14
   12db2:	4d 39 fe             	cmp    %r15,%r14
   12db5:	0f 83 5d fe ff ff    	jae    12c18 <_Unwind_Backtrace@@GCC_3.3+0x14e8>
   12dbb:	48 8b 04 24          	mov    (%rsp),%rax
   12dbf:	4b 8d 2c 37          	lea    (%r15,%r14,1),%rbp
   12dc3:	48 d1 ed             	shr    %rbp
   12dc6:	4c 8b 6c e8 10       	mov    0x10(%rax,%rbp,8),%r13
   12dcb:	49 63 45 04          	movslq 0x4(%r13),%rax
   12dcf:	49 8d 7d 04          	lea    0x4(%r13),%rdi
   12dd3:	48 29 c7             	sub    %rax,%rdi
   12dd6:	e8 45 ed ff ff       	callq  11b20 <_Unwind_Backtrace@@GCC_3.3+0x3f0>
   12ddb:	49 8d 55 08          	lea    0x8(%r13),%rdx
   12ddf:	89 c3                	mov    %eax,%ebx
   12de1:	0f b6 f8             	movzbl %al,%edi
   12de4:	3c ff                	cmp    $0xff,%al
   12de6:	0f 84 0c 01 00 00    	je     12ef8 <_Unwind_Backtrace@@GCC_3.3+0x17c8>
   12dec:	83 e0 70             	and    $0x70,%eax
   12def:	3c 20                	cmp    $0x20,%al
   12df1:	0f 84 29 01 00 00    	je     12f20 <_Unwind_Backtrace@@GCC_3.3+0x17f0>
   12df7:	0f 86 13 01 00 00    	jbe    12f10 <_Unwind_Backtrace@@GCC_3.3+0x17e0>
   12dfd:	3c 30                	cmp    $0x30,%al
   12dff:	0f 85 eb 00 00 00    	jne    12ef0 <_Unwind_Backtrace@@GCC_3.3+0x17c0>
   12e05:	48 8b 44 24 08       	mov    0x8(%rsp),%rax
   12e0a:	48 8b 70 10          	mov    0x10(%rax),%rsi
   12e0e:	66 90                	xchg   %ax,%ax
   12e10:	48 8d 4c 24 38       	lea    0x38(%rsp),%rcx
   12e15:	83 e3 0f             	and    $0xf,%ebx
   12e18:	e8 b3 eb ff ff       	callq  119d0 <_Unwind_Backtrace@@GCC_3.3+0x2a0>
   12e1d:	48 8d 4c 24 40       	lea    0x40(%rsp),%rcx
   12e22:	89 df                	mov    %ebx,%edi
   12e24:	31 f6                	xor    %esi,%esi
   12e26:	48 89 c2             	mov    %rax,%rdx
   12e29:	e8 a2 eb ff ff       	callq  119d0 <_Unwind_Backtrace@@GCC_3.3+0x2a0>
   12e2e:	48 8b 44 24 38       	mov    0x38(%rsp),%rax
   12e33:	49 39 c4             	cmp    %rax,%r12
   12e36:	0f 83 64 ff ff ff    	jae    12da0 <_Unwind_Backtrace@@GCC_3.3+0x1670>
   12e3c:	49 89 ef             	mov    %rbp,%r15
   12e3f:	e9 6e ff ff ff       	jmpq   12db2 <_Unwind_Backtrace@@GCC_3.3+0x1682>
   12e44:	48 89 ee             	mov    %rbp,%rsi
   12e47:	e8 04 ee ff ff       	callq  11c50 <_Unwind_Backtrace@@GCC_3.3+0x520>
   12e4c:	48 89 44 24 10       	mov    %rax,0x10(%rsp)
   12e51:	48 83 f8 ff          	cmp    $0xffffffffffffffff,%rax
   12e55:	0f 84 1f fe ff ff    	je     12c7a <_Unwind_Backtrace@@GCC_3.3+0x154a>
   12e5b:	48 f7 44 24 10 00 00 	testq  $0xffffffffffe00000,0x10(%rsp)
   12e62:	e0 ff 
   12e64:	0f 84 67 04 00 00    	je     132d1 <_Unwind_Backtrace@@GCC_3.3+0x1ba1>
   12e6a:	41 81 65 20 ff 07 00 	andl   $0x7ff,0x20(%r13)
   12e71:	00 
   12e72:	48 83 7c 24 10 00    	cmpq   $0x0,0x10(%rsp)
   12e78:	0f 85 d2 00 00 00    	jne    12f50 <_Unwind_Backtrace@@GCC_3.3+0x1820>
   12e7e:	4d 39 65 00          	cmp    %r12,0x0(%r13)
   12e82:	0f 87 90 fd ff ff    	ja     12c18 <_Unwind_Backtrace@@GCC_3.3+0x14e8>
   12e88:	41 0f b6 55 20       	movzbl 0x20(%r13),%edx
   12e8d:	49 8b 6d 18          	mov    0x18(%r13),%rbp
   12e91:	f6 c2 01             	test   $0x1,%dl
   12e94:	0f 85 23 fd ff ff    	jne    12bbd <_Unwind_Backtrace@@GCC_3.3+0x148d>
   12e9a:	83 e2 02             	and    $0x2,%edx
   12e9d:	0f 84 cd 03 00 00    	je     13270 <_Unwind_Backtrace@@GCC_3.3+0x1b40>
   12ea3:	48 8b 75 00          	mov    0x0(%rbp),%rsi
   12ea7:	48 85 f6             	test   %rsi,%rsi
   12eaa:	75 1d                	jne    12ec9 <_Unwind_Backtrace@@GCC_3.3+0x1799>
   12eac:	e9 67 fd ff ff       	jmpq   12c18 <_Unwind_Backtrace@@GCC_3.3+0x14e8>
   12eb1:	0f 1f 80 00 00 00 00 	nopl   0x0(%rax)
   12eb8:	48 8b 75 08          	mov    0x8(%rbp),%rsi
   12ebc:	48 83 c5 08          	add    $0x8,%rbp
   12ec0:	48 85 f6             	test   %rsi,%rsi
   12ec3:	0f 84 4f fd ff ff    	je     12c18 <_Unwind_Backtrace@@GCC_3.3+0x14e8>
   12ec9:	4c 89 e2             	mov    %r12,%rdx
   12ecc:	4c 89 ef             	mov    %r13,%rdi
   12ecf:	e8 0c f4 ff ff       	callq  122e0 <_Unwind_Backtrace@@GCC_3.3+0xbb0>
   12ed4:	48 85 c0             	test   %rax,%rax
   12ed7:	74 df                	je     12eb8 <_Unwind_Backtrace@@GCC_3.3+0x1788>
   12ed9:	49 89 c6             	mov    %rax,%r14
   12edc:	48 83 c4 58          	add    $0x58,%rsp
   12ee0:	4c 89 f0             	mov    %r14,%rax
   12ee3:	5b                   	pop    %rbx
   12ee4:	5d                   	pop    %rbp
   12ee5:	41 5c                	pop    %r12
   12ee7:	41 5d                	pop    %r13
   12ee9:	41 5e                	pop    %r14
   12eeb:	41 5f                	pop    %r15
   12eed:	c3                   	retq   
   12eee:	66 90                	xchg   %ax,%ax
   12ef0:	3c 50                	cmp    $0x50,%al
   12ef2:	0f 85 34 04 00 00    	jne    1332c <_Unwind_Backtrace@@GCC_3.3+0x1bfc>
   12ef8:	31 f6                	xor    %esi,%esi
   12efa:	e9 11 ff ff ff       	jmpq   12e10 <_Unwind_Backtrace@@GCC_3.3+0x16e0>
   12eff:	90                   	nop
   12f00:	48 89 c1             	mov    %rax,%rcx
   12f03:	e9 d8 fc ff ff       	jmpq   12be0 <_Unwind_Backtrace@@GCC_3.3+0x14b0>
   12f08:	0f 1f 84 00 00 00 00 	nopl   0x0(%rax,%rax,1)
   12f0f:	00 
   12f10:	f6 c3 60             	test   $0x60,%bl
   12f13:	0f 85 8f 07 ff ff    	jne    36a8 <_Unwind_GetDataRelBase@plt+0xd8>
   12f19:	eb dd                	jmp    12ef8 <_Unwind_Backtrace@@GCC_3.3+0x17c8>
   12f1b:	0f 1f 44 00 00       	nopl   0x0(%rax,%rax,1)
   12f20:	48 8b 44 24 08       	mov    0x8(%rsp),%rax
   12f25:	48 8b 70 08          	mov    0x8(%rax),%rsi
   12f29:	e9 e2 fe ff ff       	jmpq   12e10 <_Unwind_Backtrace@@GCC_3.3+0x16e0>
   12f2e:	80 fa 50             	cmp    $0x50,%dl
   12f31:	0f 85 f0 03 00 00    	jne    13327 <_Unwind_Backtrace@@GCC_3.3+0x1bf7>
   12f37:	31 c9                	xor    %ecx,%ecx
   12f39:	e9 92 fd ff ff       	jmpq   12cd0 <_Unwind_Backtrace@@GCC_3.3+0x15a0>
   12f3e:	a8 60                	test   $0x60,%al
   12f40:	0f 85 62 07 ff ff    	jne    36a8 <_Unwind_GetDataRelBase@plt+0xd8>
   12f46:	eb ef                	jmp    12f37 <_Unwind_Backtrace@@GCC_3.3+0x1807>
   12f48:	0f 1f 84 00 00 00 00 	nopl   0x0(%rax,%rax,1)
   12f4f:	00 
   12f50:	48 8b 44 24 10       	mov    0x10(%rsp),%rax
   12f55:	48 8d 2c c5 10 00 00 	lea    0x10(,%rax,8),%rbp
   12f5c:	00 
   12f5d:	48 89 ef             	mov    %rbp,%rdi
   12f60:	e8 8b 05 ff ff       	callq  34f0 <malloc@plt>
   12f65:	48 89 44 24 40       	mov    %rax,0x40(%rsp)
   12f6a:	48 85 c0             	test   %rax,%rax
   12f6d:	0f 84 0b ff ff ff    	je     12e7e <_Unwind_Backtrace@@GCC_3.3+0x174e>
   12f73:	48 c7 40 08 00 00 00 	movq   $0x0,0x8(%rax)
   12f7a:	00 
   12f7b:	48 89 ef             	mov    %rbp,%rdi
   12f7e:	e8 6d 05 ff ff       	callq  34f0 <malloc@plt>
   12f83:	48 89 44 24 48       	mov    %rax,0x48(%rsp)
   12f88:	48 85 c0             	test   %rax,%rax
   12f8b:	74 08                	je     12f95 <_Unwind_Backtrace@@GCC_3.3+0x1865>
   12f8d:	48 c7 40 08 00 00 00 	movq   $0x0,0x8(%rax)
   12f94:	00 
   12f95:	4d 8b 75 18          	mov    0x18(%r13),%r14
   12f99:	41 f6 45 20 02       	testb  $0x2,0x20(%r13)
   12f9e:	0f 84 fa 02 00 00    	je     1329e <_Unwind_Backtrace@@GCC_3.3+0x1b6e>
   12fa4:	49 8b 16             	mov    (%r14),%rdx
   12fa7:	48 85 d2             	test   %rdx,%rdx
   12faa:	0f 84 f8 06 ff ff    	je     36a8 <_Unwind_GetDataRelBase@plt+0xd8>
   12fb0:	48 8d 6c 24 40       	lea    0x40(%rsp),%rbp
   12fb5:	0f 1f 00             	nopl   (%rax)
   12fb8:	48 89 ee             	mov    %rbp,%rsi
   12fbb:	4c 89 ef             	mov    %r13,%rdi
   12fbe:	49 83 c6 08          	add    $0x8,%r14
   12fc2:	e8 69 f0 ff ff       	callq  12030 <_Unwind_Backtrace@@GCC_3.3+0x900>
   12fc7:	49 8b 16             	mov    (%r14),%rdx
   12fca:	48 85 d2             	test   %rdx,%rdx
   12fcd:	75 e9                	jne    12fb8 <_Unwind_Backtrace@@GCC_3.3+0x1888>
   12fcf:	48 8b 44 24 40       	mov    0x40(%rsp),%rax
   12fd4:	48 89 44 24 18       	mov    %rax,0x18(%rsp)
   12fd9:	48 89 44 24 20       	mov    %rax,0x20(%rsp)
   12fde:	48 85 c0             	test   %rax,%rax
   12fe1:	74 0f                	je     12ff2 <_Unwind_Backtrace@@GCC_3.3+0x18c2>
   12fe3:	48 8b 4c 24 10       	mov    0x10(%rsp),%rcx
   12fe8:	48 39 48 08          	cmp    %rcx,0x8(%rax)
   12fec:	0f 85 b6 06 ff ff    	jne    36a8 <_Unwind_GetDataRelBase@plt+0xd8>
   12ff2:	48 8d 2d 07 ef ff ff 	lea    -0x10f9(%rip),%rbp        # 11f00 <_Unwind_Backtrace@@GCC_3.3+0x7d0>
   12ff9:	41 f6 45 20 04       	testb  $0x4,0x20(%r13)
   12ffe:	75 19                	jne    13019 <_Unwind_Backtrace@@GCC_3.3+0x18e9>
   13000:	66 41 f7 45 20 f8 07 	testw  $0x7f8,0x20(%r13)
   13007:	48 8d 2d 32 e8 ff ff 	lea    -0x17ce(%rip),%rbp        # 11840 <_Unwind_Backtrace@@GCC_3.3+0x110>
   1300e:	48 8d 05 2b ee ff ff 	lea    -0x11d5(%rip),%rax        # 11e40 <_Unwind_Backtrace@@GCC_3.3+0x710>
   13015:	48 0f 45 e8          	cmovne %rax,%rbp
   13019:	4c 8b 7c 24 48       	mov    0x48(%rsp),%r15
   1301e:	4d 85 ff             	test   %r15,%r15
   13021:	0f 84 98 02 00 00    	je     132bf <_Unwind_Backtrace@@GCC_3.3+0x1b8f>
   13027:	48 8b 4c 24 18       	mov    0x18(%rsp),%rcx
   1302c:	48 8b 41 08          	mov    0x8(%rcx),%rax
   13030:	48 89 44 24 08       	mov    %rax,0x8(%rsp)
   13035:	48 85 c0             	test   %rax,%rax
   13038:	0f 84 dd 02 00 00    	je     1331b <_Unwind_Backtrace@@GCC_3.3+0x1beb>
   1303e:	48 8d 41 10          	lea    0x10(%rcx),%rax
   13042:	48 c7 04 24 00 00 00 	movq   $0x0,(%rsp)
   13049:	00 
   1304a:	4c 8d 35 cf 71 00 00 	lea    0x71cf(%rip),%r14        # 1a220 <__cpu_model@GCC_4.8.0+0x50>
   13051:	4c 89 64 24 28       	mov    %r12,0x28(%rsp)
   13056:	48 89 c3             	mov    %rax,%rbx
   13059:	4d 89 f4             	mov    %r14,%r12
   1305c:	49 89 c6             	mov    %rax,%r14
   1305f:	90                   	nop
   13060:	48 8b 04 24          	mov    (%rsp),%rax
   13064:	4d 89 64 c7 10       	mov    %r12,0x10(%r15,%rax,8)
   13069:	48 83 c0 01          	add    $0x1,%rax
   1306d:	48 89 04 24          	mov    %rax,(%rsp)
   13071:	48 39 44 24 08       	cmp    %rax,0x8(%rsp)
   13076:	74 68                	je     130e0 <_Unwind_Backtrace@@GCC_3.3+0x19b0>
   13078:	48 8d 05 a1 71 00 00 	lea    0x71a1(%rip),%rax        # 1a220 <__cpu_model@GCC_4.8.0+0x50>
   1307f:	49 39 c6             	cmp    %rax,%r14
   13082:	74 4c                	je     130d0 <_Unwind_Backtrace@@GCC_3.3+0x19a0>
   13084:	4d 89 f4             	mov    %r14,%r12
   13087:	eb 2b                	jmp    130b4 <_Unwind_Backtrace@@GCC_3.3+0x1984>
   13089:	0f 1f 80 00 00 00 00 	nopl   0x0(%rax)
   13090:	49 29 dc             	sub    %rbx,%r12
   13093:	49 c1 fc 03          	sar    $0x3,%r12
   13097:	49 8d 44 24 02       	lea    0x2(%r12),%rax
   1309c:	4d 8b 24 c7          	mov    (%r15,%rax,8),%r12
   130a0:	49 c7 04 c7 00 00 00 	movq   $0x0,(%r15,%rax,8)
   130a7:	00 
   130a8:	48 8d 05 71 71 00 00 	lea    0x7171(%rip),%rax        # 1a220 <__cpu_model@GCC_4.8.0+0x50>
   130af:	49 39 c4             	cmp    %rax,%r12
   130b2:	74 1c                	je     130d0 <_Unwind_Backtrace@@GCC_3.3+0x19a0>
   130b4:	49 8b 76 08          	mov    0x8(%r14),%rsi
   130b8:	49 8b 14 24          	mov    (%r12),%rdx
   130bc:	4c 89 ef             	mov    %r13,%rdi
   130bf:	ff d5                	callq  *%rbp
   130c1:	85 c0                	test   %eax,%eax
   130c3:	78 cb                	js     13090 <_Unwind_Backtrace@@GCC_3.3+0x1960>
   130c5:	49 83 c6 08          	add    $0x8,%r14
   130c9:	eb 95                	jmp    13060 <_Unwind_Backtrace@@GCC_3.3+0x1930>
   130cb:	0f 1f 44 00 00       	nopl   0x0(%rax,%rax,1)
   130d0:	4c 8d 25 49 71 00 00 	lea    0x7149(%rip),%r12        # 1a220 <__cpu_model@GCC_4.8.0+0x50>
   130d7:	49 83 c6 08          	add    $0x8,%r14
   130db:	eb 83                	jmp    13060 <_Unwind_Backtrace@@GCC_3.3+0x1930>
   130dd:	0f 1f 00             	nopl   (%rax)
   130e0:	4c 8b 64 24 28       	mov    0x28(%rsp),%r12
   130e5:	4c 8b 44 24 08       	mov    0x8(%rsp),%r8
   130ea:	31 f6                	xor    %esi,%esi
   130ec:	31 d2                	xor    %edx,%edx
   130ee:	48 8b 7c 24 18       	mov    0x18(%rsp),%rdi
   130f3:	31 c0                	xor    %eax,%eax
   130f5:	eb 1b                	jmp    13112 <_Unwind_Backtrace@@GCC_3.3+0x19e2>
   130f7:	66 0f 1f 84 00 00 00 	nopw   0x0(%rax,%rax,1)
   130fe:	00 00 
   13100:	48 89 4c d7 10       	mov    %rcx,0x10(%rdi,%rdx,8)
   13105:	48 83 c2 01          	add    $0x1,%rdx
   13109:	48 83 c0 01          	add    $0x1,%rax
   1310d:	49 39 c0             	cmp    %rax,%r8
   13110:	74 1e                	je     13130 <_Unwind_Backtrace@@GCC_3.3+0x1a00>
   13112:	49 83 7c c7 10 00    	cmpq   $0x0,0x10(%r15,%rax,8)
   13118:	48 8b 4c c7 10       	mov    0x10(%rdi,%rax,8),%rcx
   1311d:	75 e1                	jne    13100 <_Unwind_Backtrace@@GCC_3.3+0x19d0>
   1311f:	49 89 4c f7 10       	mov    %rcx,0x10(%r15,%rsi,8)
   13124:	48 83 c6 01          	add    $0x1,%rsi
   13128:	eb df                	jmp    13109 <_Unwind_Backtrace@@GCC_3.3+0x19d9>
   1312a:	66 0f 1f 44 00 00    	nopw   0x0(%rax,%rax,1)
   13130:	48 8b 44 24 40       	mov    0x40(%rsp),%rax
   13135:	4c 8b 54 24 48       	mov    0x48(%rsp),%r10
   1313a:	48 89 44 24 18       	mov    %rax,0x18(%rsp)
   1313f:	48 8b 44 24 20       	mov    0x20(%rsp),%rax
   13144:	48 8b 4c 24 18       	mov    0x18(%rsp),%rcx
   13149:	48 89 50 08          	mov    %rdx,0x8(%rax)
   1314d:	49 89 77 08          	mov    %rsi,0x8(%r15)
   13151:	49 8b 42 08          	mov    0x8(%r10),%rax
   13155:	48 03 41 08          	add    0x8(%rcx),%rax
   13159:	48 3b 44 24 10       	cmp    0x10(%rsp),%rax
   1315e:	0f 85 44 05 ff ff    	jne    36a8 <_Unwind_GetDataRelBase@plt+0xd8>
   13164:	4c 89 d2             	mov    %r10,%rdx
   13167:	48 89 ee             	mov    %rbp,%rsi
   1316a:	4c 89 ef             	mov    %r13,%rdi
   1316d:	e8 ae e7 ff ff       	callq  11920 <_Unwind_Backtrace@@GCC_3.3+0x1f0>
   13172:	48 8b 44 24 48       	mov    0x48(%rsp),%rax
   13177:	48 89 44 24 10       	mov    %rax,0x10(%rsp)
   1317c:	48 8b 40 08          	mov    0x8(%rax),%rax
   13180:	48 85 c0             	test   %rax,%rax
   13183:	0f 84 c0 00 00 00    	je     13249 <_Unwind_Backtrace@@GCC_3.3+0x1b19>
   13189:	4c 8b 74 24 40       	mov    0x40(%rsp),%r14
   1318e:	48 89 2c 24          	mov    %rbp,(%rsp)
   13192:	4c 89 64 24 18       	mov    %r12,0x18(%rsp)
   13197:	49 8b 5e 08          	mov    0x8(%r14),%rbx
   1319b:	4d 89 f4             	mov    %r14,%r12
   1319e:	49 89 de             	mov    %rbx,%r14
   131a1:	0f 1f 80 00 00 00 00 	nopl   0x0(%rax)
   131a8:	48 8d 48 ff          	lea    -0x1(%rax),%rcx
   131ac:	48 8d 50 01          	lea    0x1(%rax),%rdx
   131b0:	48 89 4c 24 08       	mov    %rcx,0x8(%rsp)
   131b5:	48 8b 4c 24 10       	mov    0x10(%rsp),%rcx
   131ba:	4c 8b 3c d1          	mov    (%rcx,%rdx,8),%r15
   131be:	4d 85 f6             	test   %r14,%r14
   131c1:	0f 84 2d 01 00 00    	je     132f4 <_Unwind_Backtrace@@GCC_3.3+0x1bc4>
   131c7:	49 8d 5c 06 ff       	lea    -0x1(%r14,%rax,1),%rbx
   131cc:	4c 89 f5             	mov    %r14,%rbp
   131cf:	eb 1a                	jmp    131eb <_Unwind_Backtrace@@GCC_3.3+0x1abb>
   131d1:	0f 1f 80 00 00 00 00 	nopl   0x0(%rax)
   131d8:	49 8b 44 ec 10       	mov    0x10(%r12,%rbp,8),%rax
   131dd:	49 89 44 dc 10       	mov    %rax,0x10(%r12,%rbx,8)
   131e2:	48 83 eb 01          	sub    $0x1,%rbx
   131e6:	48 85 ed             	test   %rbp,%rbp
   131e9:	74 35                	je     13220 <_Unwind_Backtrace@@GCC_3.3+0x1af0>
   131eb:	49 89 ee             	mov    %rbp,%r14
   131ee:	48 8d 6d ff          	lea    -0x1(%rbp),%rbp
   131f2:	48 8b 04 24          	mov    (%rsp),%rax
   131f6:	4c 89 fa             	mov    %r15,%rdx
   131f9:	49 8b 74 ec 10       	mov    0x10(%r12,%rbp,8),%rsi
   131fe:	4c 89 ef             	mov    %r13,%rdi
   13201:	ff d0                	callq  *%rax
   13203:	85 c0                	test   %eax,%eax
   13205:	7f d1                	jg     131d8 <_Unwind_Backtrace@@GCC_3.3+0x1aa8>
   13207:	48 83 7c 24 08 00    	cmpq   $0x0,0x8(%rsp)
   1320d:	4d 89 7c dc 10       	mov    %r15,0x10(%r12,%rbx,8)
   13212:	74 16                	je     1322a <_Unwind_Backtrace@@GCC_3.3+0x1afa>
   13214:	48 8b 44 24 08       	mov    0x8(%rsp),%rax
   13219:	eb 8d                	jmp    131a8 <_Unwind_Backtrace@@GCC_3.3+0x1a78>
   1321b:	0f 1f 44 00 00       	nopl   0x0(%rax,%rax,1)
   13220:	48 8b 5c 24 08       	mov    0x8(%rsp),%rbx
   13225:	45 31 f6             	xor    %r14d,%r14d
   13228:	eb dd                	jmp    13207 <_Unwind_Backtrace@@GCC_3.3+0x1ad7>
   1322a:	48 8b 44 24 10       	mov    0x10(%rsp),%rax
   1322f:	4d 89 e6             	mov    %r12,%r14
   13232:	4c 8b 64 24 18       	mov    0x18(%rsp),%r12
   13237:	48 8b 40 08          	mov    0x8(%rax),%rax
   1323b:	49 01 46 08          	add    %rax,0x8(%r14)
   1323f:	48 8b 44 24 48       	mov    0x48(%rsp),%rax
   13244:	48 89 44 24 10       	mov    %rax,0x10(%rsp)
   13249:	48 8b 7c 24 10       	mov    0x10(%rsp),%rdi
   1324e:	e8 dd 00 ff ff       	callq  3330 <free@plt>
   13253:	48 8b 44 24 40       	mov    0x40(%rsp),%rax
   13258:	49 8b 55 18          	mov    0x18(%r13),%rdx
   1325c:	48 89 10             	mov    %rdx,(%rax)
   1325f:	41 80 4d 20 01       	orb    $0x1,0x20(%r13)
   13264:	49 89 45 18          	mov    %rax,0x18(%r13)
   13268:	e9 11 fc ff ff       	jmpq   12e7e <_Unwind_Backtrace@@GCC_3.3+0x174e>
   1326d:	0f 1f 00             	nopl   (%rax)
   13270:	48 83 c4 58          	add    $0x58,%rsp
   13274:	4c 89 e2             	mov    %r12,%rdx
   13277:	48 89 ee             	mov    %rbp,%rsi
   1327a:	4c 89 ef             	mov    %r13,%rdi
   1327d:	5b                   	pop    %rbx
   1327e:	5d                   	pop    %rbp
   1327f:	41 5c                	pop    %r12
   13281:	41 5d                	pop    %r13
   13283:	41 5e                	pop    %r14
   13285:	41 5f                	pop    %r15
   13287:	e9 54 f0 ff ff       	jmpq   122e0 <_Unwind_Backtrace@@GCC_3.3+0xbb0>
   1328c:	48 89 5c 24 10       	mov    %rbx,0x10(%rsp)
   13291:	e9 c5 fb ff ff       	jmpq   12e5b <_Unwind_Backtrace@@GCC_3.3+0x172b>
   13296:	49 89 ee             	mov    %rbp,%r14
   13299:	e9 3e fc ff ff       	jmpq   12edc <_Unwind_Backtrace@@GCC_3.3+0x17ac>
   1329e:	48 8d 6c 24 40       	lea    0x40(%rsp),%rbp
   132a3:	4c 89 f2             	mov    %r14,%rdx
   132a6:	4c 89 ef             	mov    %r13,%rdi
   132a9:	48 89 ee             	mov    %rbp,%rsi
   132ac:	e8 7f ed ff ff       	callq  12030 <_Unwind_Backtrace@@GCC_3.3+0x900>
   132b1:	e9 19 fd ff ff       	jmpq   12fcf <_Unwind_Backtrace@@GCC_3.3+0x189f>
   132b6:	49 8b 4d 08          	mov    0x8(%r13),%rcx
   132ba:	e9 11 fa ff ff       	jmpq   12cd0 <_Unwind_Backtrace@@GCC_3.3+0x15a0>
   132bf:	48 8b 54 24 18       	mov    0x18(%rsp),%rdx
   132c4:	48 89 ee             	mov    %rbp,%rsi
   132c7:	4c 89 ef             	mov    %r13,%rdi
   132ca:	e8 51 e6 ff ff       	callq  11920 <_Unwind_Backtrace@@GCC_3.3+0x1f0>
   132cf:	eb 82                	jmp    13253 <_Unwind_Backtrace@@GCC_3.3+0x1b23>
   132d1:	8b 54 24 10          	mov    0x10(%rsp),%edx
   132d5:	41 8b 45 20          	mov    0x20(%r13),%eax
   132d9:	c1 e2 0b             	shl    $0xb,%edx
   132dc:	25 ff 07 00 00       	and    $0x7ff,%eax
   132e1:	09 d0                	or     %edx,%eax
   132e3:	41 89 45 20          	mov    %eax,0x20(%r13)
   132e7:	e9 86 fb ff ff       	jmpq   12e72 <_Unwind_Backtrace@@GCC_3.3+0x1742>
   132ec:	4d 89 ee             	mov    %r13,%r14
   132ef:	e9 e8 fb ff ff       	jmpq   12edc <_Unwind_Backtrace@@GCC_3.3+0x17ac>
   132f4:	48 83 7c 24 08 00    	cmpq   $0x0,0x8(%rsp)
   132fa:	4d 89 3c d4          	mov    %r15,(%r12,%rdx,8)
   132fe:	0f 84 26 ff ff ff    	je     1322a <_Unwind_Backtrace@@GCC_3.3+0x1afa>
   13304:	48 8b 4c 24 10       	mov    0x10(%rsp),%rcx
   13309:	48 8d 58 fe          	lea    -0x2(%rax),%rbx
   1330d:	48 89 5c 24 08       	mov    %rbx,0x8(%rsp)
   13312:	4c 8b 3c c1          	mov    (%rcx,%rax,8),%r15
   13316:	e9 ec fe ff ff       	jmpq   13207 <_Unwind_Backtrace@@GCC_3.3+0x1ad7>
   1331b:	4d 89 fa             	mov    %r15,%r10
   1331e:	31 f6                	xor    %esi,%esi
   13320:	31 d2                	xor    %edx,%edx
   13322:	e9 18 fe ff ff       	jmpq   1313f <_Unwind_Backtrace@@GCC_3.3+0x1a0f>
   13327:	e9 7c 03 ff ff       	jmpq   36a8 <_Unwind_GetDataRelBase@plt+0xd8>
   1332c:	e9 77 03 ff ff       	jmpq   36a8 <_Unwind_GetDataRelBase@plt+0xd8>
   13331:	66 66 2e 0f 1f 84 00 	data16 nopw %cs:0x0(%rax,%rax,1)
   13338:	00 00 00 00 
   1333c:	0f 1f 40 00          	nopl   0x0(%rax)

0000000000013340 <__register_frame_info_bases@@GCC_3.0>:
   13340:	f3 0f 1e fa          	endbr64 
   13344:	48 85 ff             	test   %rdi,%rdi
   13347:	0f 84 83 00 00 00    	je     133d0 <__register_frame_info_bases@@GCC_3.0+0x90>
   1334d:	44 8b 07             	mov    (%rdi),%r8d
   13350:	45 85 c0             	test   %r8d,%r8d
   13353:	74 7b                	je     133d0 <__register_frame_info_bases@@GCC_3.0+0x90>
   13355:	55                   	push   %rbp
   13356:	53                   	push   %rbx
   13357:	48 89 f3             	mov    %rsi,%rbx
   1335a:	48 83 ec 08          	sub    $0x8,%rsp
   1335e:	48 8b 2d 6b 6c 00 00 	mov    0x6c6b(%rip),%rbp        # 19fd0 <__emutls_register_common@@GCC_4.3.0+0x5fc0>
   13365:	48 c7 06 ff ff ff ff 	movq   $0xffffffffffffffff,(%rsi)
   1336c:	48 89 56 08          	mov    %rdx,0x8(%rsi)
   13370:	48 89 4e 10          	mov    %rcx,0x10(%rsi)
   13374:	48 89 7e 18          	mov    %rdi,0x18(%rsi)
   13378:	48 c7 46 20 f8 07 00 	movq   $0x7f8,0x20(%rsi)
   1337f:	00 
   13380:	48 85 ed             	test   %rbp,%rbp
   13383:	74 0c                	je     13391 <__register_frame_info_bases@@GCC_3.0+0x51>
   13385:	48 8d 3d 34 70 00 00 	lea    0x7034(%rip),%rdi        # 1a3c0 <__cpu_model@GCC_4.8.0+0x1f0>
   1338c:	e8 1f 02 ff ff       	callq  35b0 <pthread_mutex_lock@plt>
   13391:	48 8b 05 60 70 00 00 	mov    0x7060(%rip),%rax        # 1a3f8 <__cpu_model@GCC_4.8.0+0x228>
   13398:	48 89 1d 59 70 00 00 	mov    %rbx,0x7059(%rip)        # 1a3f8 <__cpu_model@GCC_4.8.0+0x228>
   1339f:	48 89 43 28          	mov    %rax,0x28(%rbx)
   133a3:	8b 05 3f 70 00 00    	mov    0x703f(%rip),%eax        # 1a3e8 <__cpu_model@GCC_4.8.0+0x218>
   133a9:	85 c0                	test   %eax,%eax
   133ab:	74 2b                	je     133d8 <__register_frame_info_bases@@GCC_3.0+0x98>
   133ad:	48 85 ed             	test   %rbp,%rbp
   133b0:	74 16                	je     133c8 <__register_frame_info_bases@@GCC_3.0+0x88>
   133b2:	48 83 c4 08          	add    $0x8,%rsp
   133b6:	48 8d 3d 03 70 00 00 	lea    0x7003(%rip),%rdi        # 1a3c0 <__cpu_model@GCC_4.8.0+0x1f0>
   133bd:	5b                   	pop    %rbx
   133be:	5d                   	pop    %rbp
   133bf:	e9 1c 01 ff ff       	jmpq   34e0 <pthread_mutex_unlock@plt>
   133c4:	0f 1f 40 00          	nopl   0x0(%rax)
   133c8:	48 83 c4 08          	add    $0x8,%rsp
   133cc:	5b                   	pop    %rbx
   133cd:	5d                   	pop    %rbp
   133ce:	c3                   	retq   
   133cf:	90                   	nop
   133d0:	c3                   	retq   
   133d1:	0f 1f 80 00 00 00 00 	nopl   0x0(%rax)
   133d8:	c7 05 06 70 00 00 01 	movl   $0x1,0x7006(%rip)        # 1a3e8 <__cpu_model@GCC_4.8.0+0x218>
   133df:	00 00 00 
   133e2:	48 85 ed             	test   %rbp,%rbp
   133e5:	75 cb                	jne    133b2 <__register_frame_info_bases@@GCC_3.0+0x72>
   133e7:	eb df                	jmp    133c8 <__register_frame_info_bases@@GCC_3.0+0x88>
   133e9:	0f 1f 80 00 00 00 00 	nopl   0x0(%rax)

00000000000133f0 <__register_frame_info@@GCC_3.0>:
   133f0:	f3 0f 1e fa          	endbr64 
   133f4:	31 c9                	xor    %ecx,%ecx
   133f6:	31 d2                	xor    %edx,%edx
   133f8:	e9 63 01 ff ff       	jmpq   3560 <__register_frame_info_bases@plt>
   133fd:	0f 1f 00             	nopl   (%rax)

0000000000013400 <__register_frame@@GCC_3.0>:
   13400:	f3 0f 1e fa          	endbr64 
   13404:	8b 07                	mov    (%rdi),%eax
   13406:	85 c0                	test   %eax,%eax
   13408:	75 06                	jne    13410 <__register_frame@@GCC_3.0+0x10>
   1340a:	c3                   	retq   
   1340b:	0f 1f 44 00 00       	nopl   0x0(%rax,%rax,1)
   13410:	55                   	push   %rbp
   13411:	48 89 fd             	mov    %rdi,%rbp
   13414:	bf 30 00 00 00       	mov    $0x30,%edi
   13419:	e8 d2 00 ff ff       	callq  34f0 <malloc@plt>
   1341e:	48 89 ef             	mov    %rbp,%rdi
   13421:	5d                   	pop    %rbp
   13422:	48 89 c6             	mov    %rax,%rsi
   13425:	e9 16 01 ff ff       	jmpq   3540 <__register_frame_info@plt>
   1342a:	66 0f 1f 44 00 00    	nopw   0x0(%rax,%rax,1)

0000000000013430 <__register_frame_info_table_bases@@GCC_3.0>:
   13430:	f3 0f 1e fa          	endbr64 
   13434:	55                   	push   %rbp
   13435:	53                   	push   %rbx
   13436:	48 89 f3             	mov    %rsi,%rbx
   13439:	48 83 ec 08          	sub    $0x8,%rsp
   1343d:	48 8b 2d 8c 6b 00 00 	mov    0x6b8c(%rip),%rbp        # 19fd0 <__emutls_register_common@@GCC_4.3.0+0x5fc0>
   13444:	48 c7 06 ff ff ff ff 	movq   $0xffffffffffffffff,(%rsi)
   1344b:	48 89 56 08          	mov    %rdx,0x8(%rsi)
   1344f:	48 89 4e 10          	mov    %rcx,0x10(%rsi)
   13453:	48 89 7e 18          	mov    %rdi,0x18(%rsi)
   13457:	48 c7 46 20 fa 07 00 	movq   $0x7fa,0x20(%rsi)
   1345e:	00 
   1345f:	48 85 ed             	test   %rbp,%rbp
   13462:	74 0c                	je     13470 <__register_frame_info_table_bases@@GCC_3.0+0x40>
   13464:	48 8d 3d 55 6f 00 00 	lea    0x6f55(%rip),%rdi        # 1a3c0 <__cpu_model@GCC_4.8.0+0x1f0>
   1346b:	e8 40 01 ff ff       	callq  35b0 <pthread_mutex_lock@plt>
   13470:	48 8b 05 81 6f 00 00 	mov    0x6f81(%rip),%rax        # 1a3f8 <__cpu_model@GCC_4.8.0+0x228>
   13477:	48 89 1d 7a 6f 00 00 	mov    %rbx,0x6f7a(%rip)        # 1a3f8 <__cpu_model@GCC_4.8.0+0x228>
   1347e:	48 89 43 28          	mov    %rax,0x28(%rbx)
   13482:	8b 05 60 6f 00 00    	mov    0x6f60(%rip),%eax        # 1a3e8 <__cpu_model@GCC_4.8.0+0x218>
   13488:	85 c0                	test   %eax,%eax
   1348a:	74 24                	je     134b0 <__register_frame_info_table_bases@@GCC_3.0+0x80>
   1348c:	48 85 ed             	test   %rbp,%rbp
   1348f:	74 17                	je     134a8 <__register_frame_info_table_bases@@GCC_3.0+0x78>
   13491:	48 83 c4 08          	add    $0x8,%rsp
   13495:	48 8d 3d 24 6f 00 00 	lea    0x6f24(%rip),%rdi        # 1a3c0 <__cpu_model@GCC_4.8.0+0x1f0>
   1349c:	5b                   	pop    %rbx
   1349d:	5d                   	pop    %rbp
   1349e:	e9 3d 00 ff ff       	jmpq   34e0 <pthread_mutex_unlock@plt>
   134a3:	0f 1f 44 00 00       	nopl   0x0(%rax,%rax,1)
   134a8:	48 83 c4 08          	add    $0x8,%rsp
   134ac:	5b                   	pop    %rbx
   134ad:	5d                   	pop    %rbp
   134ae:	c3                   	retq   
   134af:	90                   	nop
   134b0:	c7 05 2e 6f 00 00 01 	movl   $0x1,0x6f2e(%rip)        # 1a3e8 <__cpu_model@GCC_4.8.0+0x218>
   134b7:	00 00 00 
   134ba:	eb d0                	jmp    1348c <__register_frame_info_table_bases@@GCC_3.0+0x5c>
   134bc:	0f 1f 40 00          	nopl   0x0(%rax)

00000000000134c0 <__register_frame_info_table@@GCC_3.0>:
   134c0:	f3 0f 1e fa          	endbr64 
   134c4:	31 c9                	xor    %ecx,%ecx
   134c6:	31 d2                	xor    %edx,%edx
   134c8:	e9 73 ff fe ff       	jmpq   3440 <__register_frame_info_table_bases@plt>
   134cd:	0f 1f 00             	nopl   (%rax)

00000000000134d0 <__register_frame_table@@GCC_3.0>:
   134d0:	f3 0f 1e fa          	endbr64 
   134d4:	55                   	push   %rbp
   134d5:	48 89 fd             	mov    %rdi,%rbp
   134d8:	bf 30 00 00 00       	mov    $0x30,%edi
   134dd:	e8 0e 00 ff ff       	callq  34f0 <malloc@plt>
   134e2:	48 89 ef             	mov    %rbp,%rdi
   134e5:	5d                   	pop    %rbp
   134e6:	48 89 c6             	mov    %rax,%rsi
   134e9:	e9 32 00 ff ff       	jmpq   3520 <__register_frame_info_table@plt>
   134ee:	66 90                	xchg   %ax,%ax

00000000000134f0 <__deregister_frame_info_bases@@GCC_3.0>:
   134f0:	f3 0f 1e fa          	endbr64 
   134f4:	41 54                	push   %r12
   134f6:	55                   	push   %rbp
   134f7:	53                   	push   %rbx
   134f8:	48 85 ff             	test   %rdi,%rdi
   134fb:	0f 84 cf 00 00 00    	je     135d0 <__deregister_frame_info_bases@@GCC_3.0+0xe0>
   13501:	8b 07                	mov    (%rdi),%eax
   13503:	48 89 fb             	mov    %rdi,%rbx
   13506:	85 c0                	test   %eax,%eax
   13508:	0f 84 c2 00 00 00    	je     135d0 <__deregister_frame_info_bases@@GCC_3.0+0xe0>
   1350e:	48 8b 2d bb 6a 00 00 	mov    0x6abb(%rip),%rbp        # 19fd0 <__emutls_register_common@@GCC_4.3.0+0x5fc0>
   13515:	48 85 ed             	test   %rbp,%rbp
   13518:	74 0c                	je     13526 <__deregister_frame_info_bases@@GCC_3.0+0x36>
   1351a:	48 8d 3d 9f 6e 00 00 	lea    0x6e9f(%rip),%rdi        # 1a3c0 <__cpu_model@GCC_4.8.0+0x1f0>
   13521:	e8 8a 00 ff ff       	callq  35b0 <pthread_mutex_lock@plt>
   13526:	48 8b 05 cb 6e 00 00 	mov    0x6ecb(%rip),%rax        # 1a3f8 <__cpu_model@GCC_4.8.0+0x228>
   1352d:	48 85 c0             	test   %rax,%rax
   13530:	74 4e                	je     13580 <__deregister_frame_info_bases@@GCC_3.0+0x90>
   13532:	48 8d 0d bf 6e 00 00 	lea    0x6ebf(%rip),%rcx        # 1a3f8 <__cpu_model@GCC_4.8.0+0x228>
   13539:	eb 0f                	jmp    1354a <__deregister_frame_info_bases@@GCC_3.0+0x5a>
   1353b:	0f 1f 44 00 00       	nopl   0x0(%rax,%rax,1)
   13540:	49 8d 4c 24 28       	lea    0x28(%r12),%rcx
   13545:	48 85 c0             	test   %rax,%rax
   13548:	74 36                	je     13580 <__deregister_frame_info_bases@@GCC_3.0+0x90>
   1354a:	48 8b 50 18          	mov    0x18(%rax),%rdx
   1354e:	49 89 c4             	mov    %rax,%r12
   13551:	48 8b 40 28          	mov    0x28(%rax),%rax
   13555:	48 39 d3             	cmp    %rdx,%rbx
   13558:	75 e6                	jne    13540 <__deregister_frame_info_bases@@GCC_3.0+0x50>
   1355a:	48 89 01             	mov    %rax,(%rcx)
   1355d:	48 85 ed             	test   %rbp,%rbp
   13560:	74 0c                	je     1356e <__deregister_frame_info_bases@@GCC_3.0+0x7e>
   13562:	48 8d 3d 57 6e 00 00 	lea    0x6e57(%rip),%rdi        # 1a3c0 <__cpu_model@GCC_4.8.0+0x1f0>
   13569:	e8 72 ff fe ff       	callq  34e0 <pthread_mutex_unlock@plt>
   1356e:	4c 89 e0             	mov    %r12,%rax
   13571:	5b                   	pop    %rbx
   13572:	5d                   	pop    %rbp
   13573:	41 5c                	pop    %r12
   13575:	c3                   	retq   
   13576:	66 2e 0f 1f 84 00 00 	nopw   %cs:0x0(%rax,%rax,1)
   1357d:	00 00 00 
   13580:	4c 8b 25 69 6e 00 00 	mov    0x6e69(%rip),%r12        # 1a3f0 <__cpu_model@GCC_4.8.0+0x220>
   13587:	4d 85 e4             	test   %r12,%r12
   1358a:	74 54                	je     135e0 <__deregister_frame_info_bases@@GCC_3.0+0xf0>
   1358c:	48 8d 05 5d 6e 00 00 	lea    0x6e5d(%rip),%rax        # 1a3f0 <__cpu_model@GCC_4.8.0+0x220>
   13593:	eb 17                	jmp    135ac <__deregister_frame_info_bases@@GCC_3.0+0xbc>
   13595:	0f 1f 00             	nopl   (%rax)
   13598:	48 3b 1f             	cmp    (%rdi),%rbx
   1359b:	74 63                	je     13600 <__deregister_frame_info_bases@@GCC_3.0+0x110>
   1359d:	49 8d 44 24 28       	lea    0x28(%r12),%rax
   135a2:	4d 8b 64 24 28       	mov    0x28(%r12),%r12
   135a7:	4d 85 e4             	test   %r12,%r12
   135aa:	74 34                	je     135e0 <__deregister_frame_info_bases@@GCC_3.0+0xf0>
   135ac:	49 8b 7c 24 18       	mov    0x18(%r12),%rdi
   135b1:	41 f6 44 24 20 01    	testb  $0x1,0x20(%r12)
   135b7:	75 df                	jne    13598 <__deregister_frame_info_bases@@GCC_3.0+0xa8>
   135b9:	48 39 fb             	cmp    %rdi,%rbx
   135bc:	75 df                	jne    1359d <__deregister_frame_info_bases@@GCC_3.0+0xad>
   135be:	49 8b 54 24 28       	mov    0x28(%r12),%rdx
   135c3:	48 89 10             	mov    %rdx,(%rax)
   135c6:	eb 95                	jmp    1355d <__deregister_frame_info_bases@@GCC_3.0+0x6d>
   135c8:	0f 1f 84 00 00 00 00 	nopl   0x0(%rax,%rax,1)
   135cf:	00 
   135d0:	45 31 e4             	xor    %r12d,%r12d
   135d3:	5b                   	pop    %rbx
   135d4:	5d                   	pop    %rbp
   135d5:	4c 89 e0             	mov    %r12,%rax
   135d8:	41 5c                	pop    %r12
   135da:	c3                   	retq   
   135db:	0f 1f 44 00 00       	nopl   0x0(%rax,%rax,1)
   135e0:	48 85 ed             	test   %rbp,%rbp
   135e3:	74 0c                	je     135f1 <__deregister_frame_info_bases@@GCC_3.0+0x101>
   135e5:	48 8d 3d d4 6d 00 00 	lea    0x6dd4(%rip),%rdi        # 1a3c0 <__cpu_model@GCC_4.8.0+0x1f0>
   135ec:	e8 ef fe fe ff       	callq  34e0 <pthread_mutex_unlock@plt>
   135f1:	e8 5a fd fe ff       	callq  3350 <abort@plt>
   135f6:	66 2e 0f 1f 84 00 00 	nopw   %cs:0x0(%rax,%rax,1)
   135fd:	00 00 00 
   13600:	49 8b 54 24 28       	mov    0x28(%r12),%rdx
   13605:	48 89 10             	mov    %rdx,(%rax)
   13608:	e8 23 fd fe ff       	callq  3330 <free@plt>
   1360d:	e9 4b ff ff ff       	jmpq   1355d <__deregister_frame_info_bases@@GCC_3.0+0x6d>
   13612:	66 66 2e 0f 1f 84 00 	data16 nopw %cs:0x0(%rax,%rax,1)
   13619:	00 00 00 00 
   1361d:	0f 1f 00             	nopl   (%rax)

0000000000013620 <__deregister_frame_info@@GCC_3.0>:
   13620:	f3 0f 1e fa          	endbr64 
   13624:	e9 b7 fd fe ff       	jmpq   33e0 <__deregister_frame_info_bases@plt>
   13629:	0f 1f 80 00 00 00 00 	nopl   0x0(%rax)

0000000000013630 <__deregister_frame@@GCC_3.0>:
   13630:	f3 0f 1e fa          	endbr64 
   13634:	8b 07                	mov    (%rdi),%eax
   13636:	85 c0                	test   %eax,%eax
   13638:	75 06                	jne    13640 <__deregister_frame@@GCC_3.0+0x10>
   1363a:	c3                   	retq   
   1363b:	0f 1f 44 00 00       	nopl   0x0(%rax,%rax,1)
   13640:	48 83 ec 08          	sub    $0x8,%rsp
   13644:	e8 e7 fe fe ff       	callq  3530 <__deregister_frame_info@plt>
   13649:	48 83 c4 08          	add    $0x8,%rsp
   1364d:	48 89 c7             	mov    %rax,%rdi
   13650:	e9 db fc fe ff       	jmpq   3330 <free@plt>
   13655:	66 66 2e 0f 1f 84 00 	data16 nopw %cs:0x0(%rax,%rax,1)
   1365c:	00 00 00 00 

0000000000013660 <_Unwind_Find_FDE@@GCC_3.0>:
   13660:	f3 0f 1e fa          	endbr64 
   13664:	41 57                	push   %r15
   13666:	41 56                	push   %r14
   13668:	49 89 fe             	mov    %rdi,%r14
   1366b:	41 55                	push   %r13
   1366d:	41 54                	push   %r12
   1366f:	55                   	push   %rbp
   13670:	48 89 f5             	mov    %rsi,%rbp
   13673:	53                   	push   %rbx
   13674:	48 83 ec 38          	sub    $0x38,%rsp
   13678:	8b 05 6a 6d 00 00    	mov    0x6d6a(%rip),%eax        # 1a3e8 <__cpu_model@GCC_4.8.0+0x218>
   1367e:	85 c0                	test   %eax,%eax
   13680:	75 7e                	jne    13700 <_Unwind_Find_FDE@@GCC_3.0+0xa0>
   13682:	48 89 e6             	mov    %rsp,%rsi
   13685:	48 8d 3d 64 ef ff ff 	lea    -0x109c(%rip),%rdi        # 125f0 <_Unwind_Backtrace@@GCC_3.3+0xec0>
   1368c:	4c 89 34 24          	mov    %r14,(%rsp)
   13690:	48 c7 44 24 08 00 00 	movq   $0x0,0x8(%rsp)
   13697:	00 00 
   13699:	48 c7 44 24 10 00 00 	movq   $0x0,0x10(%rsp)
   136a0:	00 00 
   136a2:	48 c7 44 24 18 00 00 	movq   $0x0,0x18(%rsp)
   136a9:	00 00 
   136ab:	48 c7 44 24 20 00 00 	movq   $0x0,0x20(%rsp)
   136b2:	00 00 
   136b4:	c7 44 24 28 01 00 00 	movl   $0x1,0x28(%rsp)
   136bb:	00 
   136bc:	e8 5f fc fe ff       	callq  3320 <dl_iterate_phdr@plt>
   136c1:	85 c0                	test   %eax,%eax
   136c3:	0f 88 7a 01 00 00    	js     13843 <_Unwind_Find_FDE@@GCC_3.0+0x1e3>
   136c9:	4c 8b 7c 24 20       	mov    0x20(%rsp),%r15
   136ce:	4d 85 ff             	test   %r15,%r15
   136d1:	74 1b                	je     136ee <_Unwind_Find_FDE@@GCC_3.0+0x8e>
   136d3:	48 8b 44 24 08       	mov    0x8(%rsp),%rax
   136d8:	48 89 45 00          	mov    %rax,0x0(%rbp)
   136dc:	48 8b 44 24 10       	mov    0x10(%rsp),%rax
   136e1:	48 89 45 08          	mov    %rax,0x8(%rbp)
   136e5:	48 8b 44 24 18       	mov    0x18(%rsp),%rax
   136ea:	48 89 45 10          	mov    %rax,0x10(%rbp)
   136ee:	48 83 c4 38          	add    $0x38,%rsp
   136f2:	4c 89 f8             	mov    %r15,%rax
   136f5:	5b                   	pop    %rbx
   136f6:	5d                   	pop    %rbp
   136f7:	41 5c                	pop    %r12
   136f9:	41 5d                	pop    %r13
   136fb:	41 5e                	pop    %r14
   136fd:	41 5f                	pop    %r15
   136ff:	c3                   	retq   
   13700:	4c 8b 2d c9 68 00 00 	mov    0x68c9(%rip),%r13        # 19fd0 <__emutls_register_common@@GCC_4.3.0+0x5fc0>
   13707:	4d 85 ed             	test   %r13,%r13
   1370a:	74 0c                	je     13718 <_Unwind_Find_FDE@@GCC_3.0+0xb8>
   1370c:	48 8d 3d ad 6c 00 00 	lea    0x6cad(%rip),%rdi        # 1a3c0 <__cpu_model@GCC_4.8.0+0x1f0>
   13713:	e8 98 fe fe ff       	callq  35b0 <pthread_mutex_lock@plt>
   13718:	48 8b 1d d1 6c 00 00 	mov    0x6cd1(%rip),%rbx        # 1a3f0 <__cpu_model@GCC_4.8.0+0x220>
   1371f:	48 85 db             	test   %rbx,%rbx
   13722:	75 19                	jne    1373d <_Unwind_Find_FDE@@GCC_3.0+0xdd>
   13724:	e9 a7 00 00 00       	jmpq   137d0 <_Unwind_Find_FDE@@GCC_3.0+0x170>
   13729:	0f 1f 80 00 00 00 00 	nopl   0x0(%rax)
   13730:	48 8b 5b 28          	mov    0x28(%rbx),%rbx
   13734:	48 85 db             	test   %rbx,%rbx
   13737:	0f 84 93 00 00 00    	je     137d0 <_Unwind_Find_FDE@@GCC_3.0+0x170>
   1373d:	4c 3b 33             	cmp    (%rbx),%r14
   13740:	72 ee                	jb     13730 <_Unwind_Find_FDE@@GCC_3.0+0xd0>
   13742:	4c 89 f6             	mov    %r14,%rsi
   13745:	48 89 df             	mov    %rbx,%rdi
   13748:	e8 53 f4 ff ff       	callq  12ba0 <_Unwind_Backtrace@@GCC_3.3+0x1470>
   1374d:	49 89 c7             	mov    %rax,%r15
   13750:	48 85 c0             	test   %rax,%rax
   13753:	74 7b                	je     137d0 <_Unwind_Find_FDE@@GCC_3.0+0x170>
   13755:	4d 85 ed             	test   %r13,%r13
   13758:	0f 85 ed 00 00 00    	jne    1384b <_Unwind_Find_FDE@@GCC_3.0+0x1eb>
   1375e:	48 8b 43 08          	mov    0x8(%rbx),%rax
   13762:	48 89 45 00          	mov    %rax,0x0(%rbp)
   13766:	48 8b 43 10          	mov    0x10(%rbx),%rax
   1376a:	48 89 45 08          	mov    %rax,0x8(%rbp)
   1376e:	f6 43 20 04          	testb  $0x4,0x20(%rbx)
   13772:	0f 85 e4 00 00 00    	jne    1385c <_Unwind_Find_FDE@@GCC_3.0+0x1fc>
   13778:	0f b7 7b 20          	movzwl 0x20(%rbx),%edi
   1377c:	66 c1 ef 03          	shr    $0x3,%di
   13780:	89 f8                	mov    %edi,%eax
   13782:	40 0f b6 ff          	movzbl %dil,%edi
   13786:	4d 8d 47 08          	lea    0x8(%r15),%r8
   1378a:	3c ff                	cmp    $0xff,%al
   1378c:	0f 84 ea 00 00 00    	je     1387c <_Unwind_Find_FDE@@GCC_3.0+0x21c>
   13792:	89 c2                	mov    %eax,%edx
   13794:	83 e2 70             	and    $0x70,%edx
   13797:	80 fa 20             	cmp    $0x20,%dl
   1379a:	0f 84 0a 01 00 00    	je     138aa <_Unwind_Find_FDE@@GCC_3.0+0x24a>
   137a0:	0f 86 ce 00 00 00    	jbe    13874 <_Unwind_Find_FDE@@GCC_3.0+0x214>
   137a6:	80 fa 30             	cmp    $0x30,%dl
   137a9:	0f 85 d4 00 00 00    	jne    13883 <_Unwind_Find_FDE@@GCC_3.0+0x223>
   137af:	48 8b 73 10          	mov    0x10(%rbx),%rsi
   137b3:	0f 1f 44 00 00       	nopl   0x0(%rax,%rax,1)
   137b8:	48 89 e1             	mov    %rsp,%rcx
   137bb:	4c 89 c2             	mov    %r8,%rdx
   137be:	e8 0d e2 ff ff       	callq  119d0 <_Unwind_Backtrace@@GCC_3.3+0x2a0>
   137c3:	48 8b 04 24          	mov    (%rsp),%rax
   137c7:	48 89 45 10          	mov    %rax,0x10(%rbp)
   137cb:	e9 1e ff ff ff       	jmpq   136ee <_Unwind_Find_FDE@@GCC_3.0+0x8e>
   137d0:	4c 8d 25 19 6c 00 00 	lea    0x6c19(%rip),%r12        # 1a3f0 <__cpu_model@GCC_4.8.0+0x220>
   137d7:	66 0f 1f 84 00 00 00 	nopw   0x0(%rax,%rax,1)
   137de:	00 00 
   137e0:	48 8b 1d 11 6c 00 00 	mov    0x6c11(%rip),%rbx        # 1a3f8 <__cpu_model@GCC_4.8.0+0x228>
   137e7:	48 85 db             	test   %rbx,%rbx
   137ea:	0f 84 a0 00 00 00    	je     13890 <_Unwind_Find_FDE@@GCC_3.0+0x230>
   137f0:	48 8b 43 28          	mov    0x28(%rbx),%rax
   137f4:	4c 89 f6             	mov    %r14,%rsi
   137f7:	48 89 df             	mov    %rbx,%rdi
   137fa:	48 89 05 f7 6b 00 00 	mov    %rax,0x6bf7(%rip)        # 1a3f8 <__cpu_model@GCC_4.8.0+0x228>
   13801:	e8 9a f3 ff ff       	callq  12ba0 <_Unwind_Backtrace@@GCC_3.3+0x1470>
   13806:	4c 89 e2             	mov    %r12,%rdx
   13809:	49 89 c7             	mov    %rax,%r15
   1380c:	48 8b 05 dd 6b 00 00 	mov    0x6bdd(%rip),%rax        # 1a3f0 <__cpu_model@GCC_4.8.0+0x220>
   13813:	48 85 c0             	test   %rax,%rax
   13816:	74 1a                	je     13832 <_Unwind_Find_FDE@@GCC_3.0+0x1d2>
   13818:	48 8b 0b             	mov    (%rbx),%rcx
   1381b:	eb 10                	jmp    1382d <_Unwind_Find_FDE@@GCC_3.0+0x1cd>
   1381d:	0f 1f 00             	nopl   (%rax)
   13820:	48 8d 50 28          	lea    0x28(%rax),%rdx
   13824:	48 8b 40 28          	mov    0x28(%rax),%rax
   13828:	48 85 c0             	test   %rax,%rax
   1382b:	74 05                	je     13832 <_Unwind_Find_FDE@@GCC_3.0+0x1d2>
   1382d:	48 39 08             	cmp    %rcx,(%rax)
   13830:	73 ee                	jae    13820 <_Unwind_Find_FDE@@GCC_3.0+0x1c0>
   13832:	48 89 43 28          	mov    %rax,0x28(%rbx)
   13836:	48 89 1a             	mov    %rbx,(%rdx)
   13839:	4d 85 ff             	test   %r15,%r15
   1383c:	74 a2                	je     137e0 <_Unwind_Find_FDE@@GCC_3.0+0x180>
   1383e:	e9 12 ff ff ff       	jmpq   13755 <_Unwind_Find_FDE@@GCC_3.0+0xf5>
   13843:	45 31 ff             	xor    %r15d,%r15d
   13846:	e9 a3 fe ff ff       	jmpq   136ee <_Unwind_Find_FDE@@GCC_3.0+0x8e>
   1384b:	48 8d 3d 6e 6b 00 00 	lea    0x6b6e(%rip),%rdi        # 1a3c0 <__cpu_model@GCC_4.8.0+0x1f0>
   13852:	e8 89 fc fe ff       	callq  34e0 <pthread_mutex_unlock@plt>
   13857:	e9 02 ff ff ff       	jmpq   1375e <_Unwind_Find_FDE@@GCC_3.0+0xfe>
   1385c:	49 63 47 04          	movslq 0x4(%r15),%rax
   13860:	49 8d 7f 04          	lea    0x4(%r15),%rdi
   13864:	48 29 c7             	sub    %rax,%rdi
   13867:	e8 b4 e2 ff ff       	callq  11b20 <_Unwind_Backtrace@@GCC_3.3+0x3f0>
   1386c:	0f b6 f8             	movzbl %al,%edi
   1386f:	e9 12 ff ff ff       	jmpq   13786 <_Unwind_Find_FDE@@GCC_3.0+0x126>
   13874:	a8 60                	test   $0x60,%al
   13876:	0f 85 31 fe fe ff    	jne    36ad <_Unwind_GetDataRelBase@plt+0xdd>
   1387c:	31 f6                	xor    %esi,%esi
   1387e:	e9 35 ff ff ff       	jmpq   137b8 <_Unwind_Find_FDE@@GCC_3.0+0x158>
   13883:	80 fa 50             	cmp    $0x50,%dl
   13886:	74 f4                	je     1387c <_Unwind_Find_FDE@@GCC_3.0+0x21c>
   13888:	e9 20 fe fe ff       	jmpq   36ad <_Unwind_GetDataRelBase@plt+0xdd>
   1388d:	0f 1f 00             	nopl   (%rax)
   13890:	4d 85 ed             	test   %r13,%r13
   13893:	0f 84 e9 fd ff ff    	je     13682 <_Unwind_Find_FDE@@GCC_3.0+0x22>
   13899:	48 8d 3d 20 6b 00 00 	lea    0x6b20(%rip),%rdi        # 1a3c0 <__cpu_model@GCC_4.8.0+0x1f0>
   138a0:	e8 3b fc fe ff       	callq  34e0 <pthread_mutex_unlock@plt>
   138a5:	e9 d8 fd ff ff       	jmpq   13682 <_Unwind_Find_FDE@@GCC_3.0+0x22>
   138aa:	48 8b 73 08          	mov    0x8(%rbx),%rsi
   138ae:	e9 05 ff ff ff       	jmpq   137b8 <_Unwind_Find_FDE@@GCC_3.0+0x158>
   138b3:	66 2e 0f 1f 84 00 00 	nopw   %cs:0x0(%rax,%rax,1)
   138ba:	00 00 00 
   138bd:	0f 1f 00             	nopl   (%rax)
   138c0:	40 80 ff ff          	cmp    $0xff,%dil
   138c4:	74 72                	je     13938 <_Unwind_Find_FDE@@GCC_3.0+0x2d8>
   138c6:	89 f8                	mov    %edi,%eax
   138c8:	48 83 ec 08          	sub    $0x8,%rsp
   138cc:	83 e0 70             	and    $0x70,%eax
   138cf:	3c 30                	cmp    $0x30,%al
   138d1:	74 55                	je     13928 <_Unwind_Find_FDE@@GCC_3.0+0x2c8>
   138d3:	77 13                	ja     138e8 <_Unwind_Find_FDE@@GCC_3.0+0x288>
   138d5:	3c 20                	cmp    $0x20,%al
   138d7:	75 27                	jne    13900 <_Unwind_Find_FDE@@GCC_3.0+0x2a0>
   138d9:	48 89 f7             	mov    %rsi,%rdi
   138dc:	48 83 c4 08          	add    $0x8,%rsp
   138e0:	e9 eb fa fe ff       	jmpq   33d0 <_Unwind_GetTextRelBase@plt>
   138e5:	0f 1f 00             	nopl   (%rax)
   138e8:	3c 40                	cmp    $0x40,%al
   138ea:	75 2c                	jne    13918 <_Unwind_Find_FDE@@GCC_3.0+0x2b8>
   138ec:	48 89 f7             	mov    %rsi,%rdi
   138ef:	48 83 c4 08          	add    $0x8,%rsp
   138f3:	e9 18 fa fe ff       	jmpq   3310 <_Unwind_GetRegionStart@plt>
   138f8:	0f 1f 84 00 00 00 00 	nopl   0x0(%rax,%rax,1)
   138ff:	00 
   13900:	0f 87 ac fd fe ff    	ja     36b2 <_Unwind_GetDataRelBase@plt+0xe2>
   13906:	83 e7 60             	and    $0x60,%edi
   13909:	0f 85 a3 fd fe ff    	jne    36b2 <_Unwind_GetDataRelBase@plt+0xe2>
   1390f:	eb 0b                	jmp    1391c <_Unwind_Find_FDE@@GCC_3.0+0x2bc>
   13911:	0f 1f 80 00 00 00 00 	nopl   0x0(%rax)
   13918:	3c 50                	cmp    $0x50,%al
   1391a:	75 1f                	jne    1393b <_Unwind_Find_FDE@@GCC_3.0+0x2db>
   1391c:	31 c0                	xor    %eax,%eax
   1391e:	48 83 c4 08          	add    $0x8,%rsp
   13922:	c3                   	retq   
   13923:	0f 1f 44 00 00       	nopl   0x0(%rax,%rax,1)
   13928:	48 89 f7             	mov    %rsi,%rdi
   1392b:	48 83 c4 08          	add    $0x8,%rsp
   1392f:	e9 9c fc fe ff       	jmpq   35d0 <_Unwind_GetDataRelBase@plt>
   13934:	0f 1f 40 00          	nopl   0x0(%rax)
   13938:	31 c0                	xor    %eax,%eax
   1393a:	c3                   	retq   
   1393b:	e9 72 fd fe ff       	jmpq   36b2 <_Unwind_GetDataRelBase@plt+0xe2>
   13940:	49 89 f1             	mov    %rsi,%r9
   13943:	49 89 c8             	mov    %rcx,%r8
   13946:	48 89 d6             	mov    %rdx,%rsi
   13949:	40 80 ff 50          	cmp    $0x50,%dil
   1394d:	74 51                	je     139a0 <_Unwind_Find_FDE@@GCC_3.0+0x340>
   1394f:	89 f8                	mov    %edi,%eax
   13951:	48 83 ec 08          	sub    $0x8,%rsp
   13955:	83 e0 0f             	and    $0xf,%eax
   13958:	3c 0c                	cmp    $0xc,%al
   1395a:	0f 87 57 fd fe ff    	ja     36b7 <_Unwind_GetDataRelBase@plt+0xe7>
   13960:	48 8d 15 21 23 00 00 	lea    0x2321(%rip),%rdx        # 15c88 <__emutls_register_common@@GCC_4.3.0+0x1c78>
   13967:	0f b6 c0             	movzbl %al,%eax
   1396a:	48 63 04 82          	movslq (%rdx,%rax,4),%rax
   1396e:	48 01 d0             	add    %rdx,%rax
   13971:	3e ff e0             	notrack jmpq *%rax
   13974:	0f 1f 40 00          	nopl   0x0(%rax)
   13978:	48 8b 16             	mov    (%rsi),%rdx
   1397b:	48 8d 46 08          	lea    0x8(%rsi),%rax
   1397f:	48 85 d2             	test   %rdx,%rdx
   13982:	74 14                	je     13998 <_Unwind_Find_FDE@@GCC_3.0+0x338>
   13984:	89 f9                	mov    %edi,%ecx
   13986:	83 e1 70             	and    $0x70,%ecx
   13989:	80 f9 10             	cmp    $0x10,%cl
   1398c:	4c 0f 44 ce          	cmove  %rsi,%r9
   13990:	4c 01 ca             	add    %r9,%rdx
   13993:	40 84 ff             	test   %dil,%dil
   13996:	78 20                	js     139b8 <_Unwind_Find_FDE@@GCC_3.0+0x358>
   13998:	49 89 10             	mov    %rdx,(%r8)
   1399b:	48 83 c4 08          	add    $0x8,%rsp
   1399f:	c3                   	retq   
   139a0:	48 8d 42 07          	lea    0x7(%rdx),%rax
   139a4:	48 83 e0 f8          	and    $0xfffffffffffffff8,%rax
   139a8:	48 8b 10             	mov    (%rax),%rdx
   139ab:	48 8d 40 08          	lea    0x8(%rax),%rax
   139af:	48 89 11             	mov    %rdx,(%rcx)
   139b2:	c3                   	retq   
   139b3:	0f 1f 44 00 00       	nopl   0x0(%rax,%rax,1)
   139b8:	48 8b 12             	mov    (%rdx),%rdx
   139bb:	49 89 10             	mov    %rdx,(%r8)
   139be:	48 83 c4 08          	add    $0x8,%rsp
   139c2:	c3                   	retq   
   139c3:	0f 1f 44 00 00       	nopl   0x0(%rax,%rax,1)
   139c8:	0f b7 16             	movzwl (%rsi),%edx
   139cb:	48 8d 46 02          	lea    0x2(%rsi),%rax
   139cf:	eb ae                	jmp    1397f <_Unwind_Find_FDE@@GCC_3.0+0x31f>
   139d1:	0f 1f 80 00 00 00 00 	nopl   0x0(%rax)
   139d8:	8b 16                	mov    (%rsi),%edx
   139da:	48 8d 46 04          	lea    0x4(%rsi),%rax
   139de:	eb 9f                	jmp    1397f <_Unwind_Find_FDE@@GCC_3.0+0x31f>
   139e0:	48 63 16             	movslq (%rsi),%rdx
   139e3:	48 8d 46 04          	lea    0x4(%rsi),%rax
   139e7:	eb 96                	jmp    1397f <_Unwind_Find_FDE@@GCC_3.0+0x31f>
   139e9:	0f 1f 80 00 00 00 00 	nopl   0x0(%rax)
   139f0:	48 0f bf 16          	movswq (%rsi),%rdx
   139f4:	48 8d 46 02          	lea    0x2(%rsi),%rax
   139f8:	eb 85                	jmp    1397f <_Unwind_Find_FDE@@GCC_3.0+0x31f>
   139fa:	66 0f 1f 44 00 00    	nopw   0x0(%rax,%rax,1)
   13a00:	48 89 f0             	mov    %rsi,%rax
   13a03:	31 d2                	xor    %edx,%edx
   13a05:	31 c9                	xor    %ecx,%ecx
   13a07:	66 0f 1f 84 00 00 00 	nopw   0x0(%rax,%rax,1)
   13a0e:	00 00 
   13a10:	44 0f b6 18          	movzbl (%rax),%r11d
   13a14:	48 83 c0 01          	add    $0x1,%rax
   13a18:	4d 89 da             	mov    %r11,%r10
   13a1b:	41 83 e2 7f          	and    $0x7f,%r10d
   13a1f:	49 d3 e2             	shl    %cl,%r10
   13a22:	83 c1 07             	add    $0x7,%ecx
   13a25:	4c 09 d2             	or     %r10,%rdx
   13a28:	45 84 db             	test   %r11b,%r11b
   13a2b:	78 e3                	js     13a10 <_Unwind_Find_FDE@@GCC_3.0+0x3b0>
   13a2d:	e9 4d ff ff ff       	jmpq   1397f <_Unwind_Find_FDE@@GCC_3.0+0x31f>
   13a32:	66 0f 1f 44 00 00    	nopw   0x0(%rax,%rax,1)
   13a38:	48 89 f0             	mov    %rsi,%rax
   13a3b:	31 d2                	xor    %edx,%edx
   13a3d:	31 c9                	xor    %ecx,%ecx
   13a3f:	90                   	nop
   13a40:	44 0f b6 18          	movzbl (%rax),%r11d
   13a44:	48 83 c0 01          	add    $0x1,%rax
   13a48:	4d 89 da             	mov    %r11,%r10
   13a4b:	41 83 e2 7f          	and    $0x7f,%r10d
   13a4f:	49 d3 e2             	shl    %cl,%r10
   13a52:	83 c1 07             	add    $0x7,%ecx
   13a55:	4c 09 d2             	or     %r10,%rdx
   13a58:	45 84 db             	test   %r11b,%r11b
   13a5b:	78 e3                	js     13a40 <_Unwind_Find_FDE@@GCC_3.0+0x3e0>
   13a5d:	83 f9 3f             	cmp    $0x3f,%ecx
   13a60:	0f 87 19 ff ff ff    	ja     1397f <_Unwind_Find_FDE@@GCC_3.0+0x31f>
   13a66:	41 83 e3 40          	and    $0x40,%r11d
   13a6a:	0f 84 0f ff ff ff    	je     1397f <_Unwind_Find_FDE@@GCC_3.0+0x31f>
   13a70:	49 c7 c2 ff ff ff ff 	mov    $0xffffffffffffffff,%r10
   13a77:	49 d3 e2             	shl    %cl,%r10
   13a7a:	4c 09 d2             	or     %r10,%rdx
   13a7d:	e9 02 ff ff ff       	jmpq   13984 <_Unwind_Find_FDE@@GCC_3.0+0x324>
   13a82:	66 66 2e 0f 1f 84 00 	data16 nopw %cs:0x0(%rax,%rax,1)
   13a89:	00 00 00 00 
   13a8d:	0f 1f 00             	nopl   (%rax)

0000000000013a90 <__gcc_personality_v0@@GCC_3.3.1>:
   13a90:	f3 0f 1e fa          	endbr64 
   13a94:	41 57                	push   %r15
   13a96:	41 56                	push   %r14
   13a98:	41 55                	push   %r13
   13a9a:	41 54                	push   %r12
   13a9c:	55                   	push   %rbp
   13a9d:	53                   	push   %rbx
   13a9e:	48 83 ec 68          	sub    $0x68,%rsp
   13aa2:	48 89 4c 24 08       	mov    %rcx,0x8(%rsp)
   13aa7:	4c 89 04 24          	mov    %r8,(%rsp)
   13aab:	c7 44 24 14 00 00 00 	movl   $0x0,0x14(%rsp)
   13ab2:	00 
   13ab3:	83 ff 01             	cmp    $0x1,%edi
   13ab6:	75 20                	jne    13ad8 <__gcc_personality_v0@@GCC_3.3.1+0x48>
   13ab8:	83 e6 02             	and    $0x2,%esi
   13abb:	75 33                	jne    13af0 <__gcc_personality_v0@@GCC_3.3.1+0x60>
   13abd:	0f 1f 00             	nopl   (%rax)
   13ac0:	b8 08 00 00 00       	mov    $0x8,%eax
   13ac5:	48 83 c4 68          	add    $0x68,%rsp
   13ac9:	5b                   	pop    %rbx
   13aca:	5d                   	pop    %rbp
   13acb:	41 5c                	pop    %r12
   13acd:	41 5d                	pop    %r13
   13acf:	41 5e                	pop    %r14
   13ad1:	41 5f                	pop    %r15
   13ad3:	c3                   	retq   
   13ad4:	0f 1f 40 00          	nopl   0x0(%rax)
   13ad8:	48 83 c4 68          	add    $0x68,%rsp
   13adc:	b8 03 00 00 00       	mov    $0x3,%eax
   13ae1:	5b                   	pop    %rbx
   13ae2:	5d                   	pop    %rbp
   13ae3:	41 5c                	pop    %r12
   13ae5:	41 5d                	pop    %r13
   13ae7:	41 5e                	pop    %r14
   13ae9:	41 5f                	pop    %r15
   13aeb:	c3                   	retq   
   13aec:	0f 1f 40 00          	nopl   0x0(%rax)
   13af0:	4c 8b 3c 24          	mov    (%rsp),%r15
   13af4:	4c 89 ff             	mov    %r15,%rdi
   13af7:	e8 74 f8 fe ff       	callq  3370 <_Unwind_GetLanguageSpecificData@plt>
   13afc:	48 89 c3             	mov    %rax,%rbx
   13aff:	48 85 c0             	test   %rax,%rax
   13b02:	74 bc                	je     13ac0 <__gcc_personality_v0@@GCC_3.3.1+0x30>
   13b04:	31 c0                	xor    %eax,%eax
   13b06:	4d 85 ff             	test   %r15,%r15
   13b09:	74 08                	je     13b13 <__gcc_personality_v0@@GCC_3.3.1+0x83>
   13b0b:	4c 89 ff             	mov    %r15,%rdi
   13b0e:	e8 fd f7 fe ff       	callq  3310 <_Unwind_GetRegionStart@plt>
   13b13:	48 89 44 24 30       	mov    %rax,0x30(%rsp)
   13b18:	0f b6 13             	movzbl (%rbx),%edx
   13b1b:	4c 8d 6b 01          	lea    0x1(%rbx),%r13
   13b1f:	80 fa ff             	cmp    $0xff,%dl
   13b22:	0f 84 b8 01 00 00    	je     13ce0 <__gcc_personality_v0@@GCC_3.3.1+0x250>
   13b28:	89 d0                	mov    %edx,%eax
   13b2a:	44 0f b6 f2          	movzbl %dl,%r14d
   13b2e:	83 e0 70             	and    $0x70,%eax
   13b31:	3c 30                	cmp    $0x30,%al
   13b33:	0f 84 28 02 00 00    	je     13d61 <__gcc_personality_v0@@GCC_3.3.1+0x2d1>
   13b39:	77 12                	ja     13b4d <__gcc_personality_v0@@GCC_3.3.1+0xbd>
   13b3b:	3c 20                	cmp    $0x20,%al
   13b3d:	75 24                	jne    13b63 <__gcc_personality_v0@@GCC_3.3.1+0xd3>
   13b3f:	48 8b 3c 24          	mov    (%rsp),%rdi
   13b43:	e8 88 f8 fe ff       	callq  33d0 <_Unwind_GetTextRelBase@plt>
   13b48:	48 89 c6             	mov    %rax,%rsi
   13b4b:	eb 27                	jmp    13b74 <__gcc_personality_v0@@GCC_3.3.1+0xe4>
   13b4d:	3c 40                	cmp    $0x40,%al
   13b4f:	0f 85 95 01 00 00    	jne    13cea <__gcc_personality_v0@@GCC_3.3.1+0x25a>
   13b55:	48 8b 3c 24          	mov    (%rsp),%rdi
   13b59:	e8 b2 f7 fe ff       	callq  3310 <_Unwind_GetRegionStart@plt>
   13b5e:	48 89 c6             	mov    %rax,%rsi
   13b61:	eb 11                	jmp    13b74 <__gcc_personality_v0@@GCC_3.3.1+0xe4>
   13b63:	0f 87 53 fb fe ff    	ja     36bc <_Unwind_GetDataRelBase@plt+0xec>
   13b69:	83 e2 60             	and    $0x60,%edx
   13b6c:	0f 85 4a fb fe ff    	jne    36bc <_Unwind_GetDataRelBase@plt+0xec>
   13b72:	31 f6                	xor    %esi,%esi
   13b74:	4c 89 ea             	mov    %r13,%rdx
   13b77:	48 8d 4c 24 38       	lea    0x38(%rsp),%rcx
   13b7c:	44 89 f7             	mov    %r14d,%edi
   13b7f:	e8 bc fd ff ff       	callq  13940 <_Unwind_Find_FDE@@GCC_3.0+0x2e0>
   13b84:	49 89 c5             	mov    %rax,%r13
   13b87:	41 0f b6 45 00       	movzbl 0x0(%r13),%eax
   13b8c:	49 8d 75 01          	lea    0x1(%r13),%rsi
   13b90:	88 44 24 58          	mov    %al,0x58(%rsp)
   13b94:	3c ff                	cmp    $0xff,%al
   13b96:	0f 84 64 01 00 00    	je     13d00 <__gcc_personality_v0@@GCC_3.3.1+0x270>
   13b9c:	31 ff                	xor    %edi,%edi
   13b9e:	31 c9                	xor    %ecx,%ecx
   13ba0:	0f b6 16             	movzbl (%rsi),%edx
   13ba3:	48 83 c6 01          	add    $0x1,%rsi
   13ba7:	48 89 d0             	mov    %rdx,%rax
   13baa:	83 e0 7f             	and    $0x7f,%eax
   13bad:	48 d3 e0             	shl    %cl,%rax
   13bb0:	83 c1 07             	add    $0x7,%ecx
   13bb3:	48 09 c7             	or     %rax,%rdi
   13bb6:	84 d2                	test   %dl,%dl
   13bb8:	78 e6                	js     13ba0 <__gcc_personality_v0@@GCC_3.3.1+0x110>
   13bba:	48 01 f7             	add    %rsi,%rdi
   13bbd:	48 89 7c 24 48       	mov    %rdi,0x48(%rsp)
   13bc2:	0f b6 06             	movzbl (%rsi),%eax
   13bc5:	4c 8d 66 01          	lea    0x1(%rsi),%r12
   13bc9:	31 ff                	xor    %edi,%edi
   13bcb:	31 c9                	xor    %ecx,%ecx
   13bcd:	88 44 24 59          	mov    %al,0x59(%rsp)
   13bd1:	0f 1f 80 00 00 00 00 	nopl   0x0(%rax)
   13bd8:	41 0f b6 34 24       	movzbl (%r12),%esi
   13bdd:	49 83 c4 01          	add    $0x1,%r12
   13be1:	48 89 f0             	mov    %rsi,%rax
   13be4:	83 e0 7f             	and    $0x7f,%eax
   13be7:	48 d3 e0             	shl    %cl,%rax
   13bea:	83 c1 07             	add    $0x7,%ecx
   13bed:	48 09 c7             	or     %rax,%rdi
   13bf0:	40 84 f6             	test   %sil,%sil
   13bf3:	78 e3                	js     13bd8 <__gcc_personality_v0@@GCC_3.3.1+0x148>
   13bf5:	4c 01 e7             	add    %r12,%rdi
   13bf8:	48 8d 74 24 14       	lea    0x14(%rsp),%rsi
   13bfd:	48 89 7c 24 50       	mov    %rdi,0x50(%rsp)
   13c02:	48 8b 3c 24          	mov    (%rsp),%rdi
   13c06:	e8 45 f8 fe ff       	callq  3450 <_Unwind_GetIPInfo@plt>
   13c0b:	83 7c 24 14 01       	cmpl   $0x1,0x14(%rsp)
   13c10:	48 83 d8 00          	sbb    $0x0,%rax
   13c14:	48 89 c3             	mov    %rax,%rbx
   13c17:	4c 3b 64 24 50       	cmp    0x50(%rsp),%r12
   13c1c:	0f 83 9e fe ff ff    	jae    13ac0 <__gcc_personality_v0@@GCC_3.3.1+0x30>
   13c22:	4c 8d 7c 24 18       	lea    0x18(%rsp),%r15
   13c27:	4c 8d 74 24 20       	lea    0x20(%rsp),%r14
   13c2c:	4c 8d 6c 24 28       	lea    0x28(%rsp),%r13
   13c31:	0f 1f 80 00 00 00 00 	nopl   0x0(%rax)
   13c38:	0f b6 6c 24 59       	movzbl 0x59(%rsp),%ebp
   13c3d:	31 f6                	xor    %esi,%esi
   13c3f:	89 ef                	mov    %ebp,%edi
   13c41:	e8 7a fc ff ff       	callq  138c0 <_Unwind_Find_FDE@@GCC_3.0+0x260>
   13c46:	4c 89 e2             	mov    %r12,%rdx
   13c49:	4c 89 f9             	mov    %r15,%rcx
   13c4c:	89 ef                	mov    %ebp,%edi
   13c4e:	48 89 c6             	mov    %rax,%rsi
   13c51:	e8 ea fc ff ff       	callq  13940 <_Unwind_Find_FDE@@GCC_3.0+0x2e0>
   13c56:	0f b6 6c 24 59       	movzbl 0x59(%rsp),%ebp
   13c5b:	31 f6                	xor    %esi,%esi
   13c5d:	49 89 c4             	mov    %rax,%r12
   13c60:	89 ef                	mov    %ebp,%edi
   13c62:	e8 59 fc ff ff       	callq  138c0 <_Unwind_Find_FDE@@GCC_3.0+0x260>
   13c67:	4c 89 e2             	mov    %r12,%rdx
   13c6a:	4c 89 f1             	mov    %r14,%rcx
   13c6d:	89 ef                	mov    %ebp,%edi
   13c6f:	48 89 c6             	mov    %rax,%rsi
   13c72:	e8 c9 fc ff ff       	callq  13940 <_Unwind_Find_FDE@@GCC_3.0+0x2e0>
   13c77:	44 0f b6 64 24 59    	movzbl 0x59(%rsp),%r12d
   13c7d:	31 f6                	xor    %esi,%esi
   13c7f:	48 89 c5             	mov    %rax,%rbp
   13c82:	44 89 e7             	mov    %r12d,%edi
   13c85:	e8 36 fc ff ff       	callq  138c0 <_Unwind_Find_FDE@@GCC_3.0+0x260>
   13c8a:	44 89 e7             	mov    %r12d,%edi
   13c8d:	4c 89 e9             	mov    %r13,%rcx
   13c90:	48 89 ea             	mov    %rbp,%rdx
   13c93:	48 89 c6             	mov    %rax,%rsi
   13c96:	e8 a5 fc ff ff       	callq  13940 <_Unwind_Find_FDE@@GCC_3.0+0x2e0>
   13c9b:	49 89 c4             	mov    %rax,%r12
   13c9e:	66 90                	xchg   %ax,%ax
   13ca0:	49 83 c4 01          	add    $0x1,%r12
   13ca4:	41 80 7c 24 ff 00    	cmpb   $0x0,-0x1(%r12)
   13caa:	78 f4                	js     13ca0 <__gcc_personality_v0@@GCC_3.3.1+0x210>
   13cac:	48 8b 44 24 18       	mov    0x18(%rsp),%rax
   13cb1:	48 03 44 24 30       	add    0x30(%rsp),%rax
   13cb6:	48 39 d8             	cmp    %rbx,%rax
   13cb9:	0f 87 01 fe ff ff    	ja     13ac0 <__gcc_personality_v0@@GCC_3.3.1+0x30>
   13cbf:	48 03 44 24 20       	add    0x20(%rsp),%rax
   13cc4:	48 39 d8             	cmp    %rbx,%rax
   13cc7:	77 45                	ja     13d0e <__gcc_personality_v0@@GCC_3.3.1+0x27e>
   13cc9:	4c 39 64 24 50       	cmp    %r12,0x50(%rsp)
   13cce:	0f 87 64 ff ff ff    	ja     13c38 <__gcc_personality_v0@@GCC_3.3.1+0x1a8>
   13cd4:	e9 e7 fd ff ff       	jmpq   13ac0 <__gcc_personality_v0@@GCC_3.3.1+0x30>
   13cd9:	0f 1f 80 00 00 00 00 	nopl   0x0(%rax)
   13ce0:	48 89 44 24 38       	mov    %rax,0x38(%rsp)
   13ce5:	e9 9d fe ff ff       	jmpq   13b87 <__gcc_personality_v0@@GCC_3.3.1+0xf7>
   13cea:	3c 50                	cmp    $0x50,%al
   13cec:	0f 84 80 fe ff ff    	je     13b72 <__gcc_personality_v0@@GCC_3.3.1+0xe2>
   13cf2:	e9 c5 f9 fe ff       	jmpq   36bc <_Unwind_GetDataRelBase@plt+0xec>
   13cf7:	66 0f 1f 84 00 00 00 	nopw   0x0(%rax,%rax,1)
   13cfe:	00 00 
   13d00:	48 c7 44 24 48 00 00 	movq   $0x0,0x48(%rsp)
   13d07:	00 00 
   13d09:	e9 b4 fe ff ff       	jmpq   13bc2 <__gcc_personality_v0@@GCC_3.3.1+0x132>
   13d0e:	48 8b 44 24 28       	mov    0x28(%rsp),%rax
   13d13:	48 85 c0             	test   %rax,%rax
   13d16:	0f 84 a4 fd ff ff    	je     13ac0 <__gcc_personality_v0@@GCC_3.3.1+0x30>
   13d1c:	48 03 44 24 38       	add    0x38(%rsp),%rax
   13d21:	49 89 c5             	mov    %rax,%r13
   13d24:	0f 84 96 fd ff ff    	je     13ac0 <__gcc_personality_v0@@GCC_3.3.1+0x30>
   13d2a:	48 8b 1c 24          	mov    (%rsp),%rbx
   13d2e:	48 8b 54 24 08       	mov    0x8(%rsp),%rdx
   13d33:	31 f6                	xor    %esi,%esi
   13d35:	48 89 df             	mov    %rbx,%rdi
   13d38:	e8 53 f8 fe ff       	callq  3590 <_Unwind_SetGR@plt>
   13d3d:	31 d2                	xor    %edx,%edx
   13d3f:	be 01 00 00 00       	mov    $0x1,%esi
   13d44:	48 89 df             	mov    %rbx,%rdi
   13d47:	e8 44 f8 fe ff       	callq  3590 <_Unwind_SetGR@plt>
   13d4c:	4c 89 ee             	mov    %r13,%rsi
   13d4f:	48 89 df             	mov    %rbx,%rdi
   13d52:	e8 09 f6 fe ff       	callq  3360 <_Unwind_SetIP@plt>
   13d57:	b8 07 00 00 00       	mov    $0x7,%eax
   13d5c:	e9 64 fd ff ff       	jmpq   13ac5 <__gcc_personality_v0@@GCC_3.3.1+0x35>
   13d61:	48 8b 3c 24          	mov    (%rsp),%rdi
   13d65:	e8 66 f8 fe ff       	callq  35d0 <_Unwind_GetDataRelBase@plt>
   13d6a:	48 89 c6             	mov    %rax,%rsi
   13d6d:	e9 02 fe ff ff       	jmpq   13b74 <__gcc_personality_v0@@GCC_3.3.1+0xe4>
   13d72:	66 2e 0f 1f 84 00 00 	nopw   %cs:0x0(%rax,%rax,1)
   13d79:	00 00 00 
   13d7c:	0f 1f 40 00          	nopl   0x0(%rax)
   13d80:	f3 0f 1e fa          	endbr64 
   13d84:	48 83 ec 08          	sub    $0x8,%rsp
   13d88:	48 8d 35 21 00 00 00 	lea    0x21(%rip),%rsi        # 13db0 <__gcc_personality_v0@@GCC_3.3.1+0x320>
   13d8f:	48 8d 3d 7a 66 00 00 	lea    0x667a(%rip),%rdi        # 1a410 <__cpu_model@GCC_4.8.0+0x240>
   13d96:	e8 f5 f6 fe ff       	callq  3490 <pthread_key_create@plt>
   13d9b:	85 c0                	test   %eax,%eax
   13d9d:	0f 85 1e f9 fe ff    	jne    36c1 <_Unwind_GetDataRelBase@plt+0xf1>
   13da3:	48 83 c4 08          	add    $0x8,%rsp
   13da7:	c3                   	retq   
   13da8:	0f 1f 84 00 00 00 00 	nopl   0x0(%rax,%rax,1)
   13daf:	00 
   13db0:	f3 0f 1e fa          	endbr64 
   13db4:	41 54                	push   %r12
   13db6:	55                   	push   %rbp
   13db7:	48 89 fd             	mov    %rdi,%rbp
   13dba:	53                   	push   %rbx
   13dbb:	4c 8b 27             	mov    (%rdi),%r12
   13dbe:	4d 85 e4             	test   %r12,%r12
   13dc1:	74 21                	je     13de4 <__gcc_personality_v0@@GCC_3.3.1+0x354>
   13dc3:	31 db                	xor    %ebx,%ebx
   13dc5:	0f 1f 00             	nopl   (%rax)
   13dc8:	48 8b 44 dd 08       	mov    0x8(%rbp,%rbx,8),%rax
   13dcd:	48 85 c0             	test   %rax,%rax
   13dd0:	74 09                	je     13ddb <__gcc_personality_v0@@GCC_3.3.1+0x34b>
   13dd2:	48 8b 78 f8          	mov    -0x8(%rax),%rdi
   13dd6:	e8 55 f5 fe ff       	callq  3330 <free@plt>
   13ddb:	48 83 c3 01          	add    $0x1,%rbx
   13ddf:	49 39 dc             	cmp    %rbx,%r12
   13de2:	75 e4                	jne    13dc8 <__gcc_personality_v0@@GCC_3.3.1+0x338>
   13de4:	5b                   	pop    %rbx
   13de5:	48 89 ef             	mov    %rbp,%rdi
   13de8:	5d                   	pop    %rbp
   13de9:	41 5c                	pop    %r12
   13deb:	e9 40 f5 fe ff       	jmpq   3330 <free@plt>
   13df0:	41 54                	push   %r12
   13df2:	55                   	push   %rbp
   13df3:	53                   	push   %rbx
   13df4:	48 8b 6f 08          	mov    0x8(%rdi),%rbp
   13df8:	48 89 fb             	mov    %rdi,%rbx
   13dfb:	4c 8b 27             	mov    (%rdi),%r12
   13dfe:	48 83 fd 08          	cmp    $0x8,%rbp
   13e02:	77 3c                	ja     13e40 <__gcc_personality_v0@@GCC_3.3.1+0x3b0>
   13e04:	49 8d 7c 24 08       	lea    0x8(%r12),%rdi
   13e09:	e8 e2 f6 fe ff       	callq  34f0 <malloc@plt>
   13e0e:	48 85 c0             	test   %rax,%rax
   13e11:	0f 84 af f8 fe ff    	je     36c6 <_Unwind_GetDataRelBase@plt+0xf6>
   13e17:	48 8b 73 18          	mov    0x18(%rbx),%rsi
   13e1b:	48 89 00             	mov    %rax,(%rax)
   13e1e:	4c 8d 40 08          	lea    0x8(%rax),%r8
   13e22:	4c 89 e2             	mov    %r12,%rdx
   13e25:	48 85 f6             	test   %rsi,%rsi
   13e28:	74 44                	je     13e6e <__gcc_personality_v0@@GCC_3.3.1+0x3de>
   13e2a:	4c 89 c7             	mov    %r8,%rdi
   13e2d:	e8 6e f6 fe ff       	callq  34a0 <memcpy@plt>
   13e32:	5b                   	pop    %rbx
   13e33:	5d                   	pop    %rbp
   13e34:	49 89 c0             	mov    %rax,%r8
   13e37:	41 5c                	pop    %r12
   13e39:	4c 89 c0             	mov    %r8,%rax
   13e3c:	c3                   	retq   
   13e3d:	0f 1f 00             	nopl   (%rax)
   13e40:	4a 8d 7c 25 07       	lea    0x7(%rbp,%r12,1),%rdi
   13e45:	e8 a6 f6 fe ff       	callq  34f0 <malloc@plt>
   13e4a:	48 85 c0             	test   %rax,%rax
   13e4d:	0f 84 73 f8 fe ff    	je     36c6 <_Unwind_GetDataRelBase@plt+0xf6>
   13e53:	4c 8d 44 28 07       	lea    0x7(%rax,%rbp,1),%r8
   13e58:	48 f7 dd             	neg    %rbp
   13e5b:	4c 89 e2             	mov    %r12,%rdx
   13e5e:	49 21 e8             	and    %rbp,%r8
   13e61:	49 89 40 f8          	mov    %rax,-0x8(%r8)
   13e65:	48 8b 73 18          	mov    0x18(%rbx),%rsi
   13e69:	48 85 f6             	test   %rsi,%rsi
   13e6c:	75 bc                	jne    13e2a <__gcc_personality_v0@@GCC_3.3.1+0x39a>
   13e6e:	4c 89 c7             	mov    %r8,%rdi
   13e71:	31 f6                	xor    %esi,%esi
   13e73:	e8 88 f5 fe ff       	callq  3400 <memset@plt>
   13e78:	5b                   	pop    %rbx
   13e79:	5d                   	pop    %rbp
   13e7a:	49 89 c0             	mov    %rax,%r8
   13e7d:	41 5c                	pop    %r12
   13e7f:	4c 89 c0             	mov    %r8,%rax
   13e82:	c3                   	retq   
   13e83:	66 66 2e 0f 1f 84 00 	data16 nopw %cs:0x0(%rax,%rax,1)
   13e8a:	00 00 00 00 
   13e8e:	66 90                	xchg   %ax,%ax

0000000000013e90 <__emutls_get_address@@GCC_4.3.0>:
   13e90:	f3 0f 1e fa          	endbr64 
   13e94:	48 83 3d 34 61 00 00 	cmpq   $0x0,0x6134(%rip)        # 19fd0 <__emutls_register_common@@GCC_4.3.0+0x5fc0>
   13e9b:	00 
   13e9c:	41 56                	push   %r14
   13e9e:	41 55                	push   %r13
   13ea0:	49 89 fd             	mov    %rdi,%r13
   13ea3:	41 54                	push   %r12
   13ea5:	55                   	push   %rbp
   13ea6:	53                   	push   %rbx
   13ea7:	74 47                	je     13ef0 <__emutls_get_address@@GCC_4.3.0+0x60>
   13ea9:	48 8b 5f 10          	mov    0x10(%rdi),%rbx
   13ead:	48 85 db             	test   %rbx,%rbx
   13eb0:	74 56                	je     13f08 <__emutls_get_address@@GCC_4.3.0+0x78>
   13eb2:	8b 3d 58 65 00 00    	mov    0x6558(%rip),%edi        # 1a410 <__cpu_model@GCC_4.8.0+0x240>
   13eb8:	e8 33 f5 fe ff       	callq  33f0 <pthread_getspecific@plt>
   13ebd:	48 89 c5             	mov    %rax,%rbp
   13ec0:	48 85 c0             	test   %rax,%rax
   13ec3:	0f 84 7f 00 00 00    	je     13f48 <__emutls_get_address@@GCC_4.3.0+0xb8>
   13ec9:	4c 8b 20             	mov    (%rax),%r12
   13ecc:	49 39 dc             	cmp    %rbx,%r12
   13ecf:	0f 82 c3 00 00 00    	jb     13f98 <__emutls_get_address@@GCC_4.3.0+0x108>
   13ed5:	48 83 eb 01          	sub    $0x1,%rbx
   13ed9:	48 8b 44 dd 08       	mov    0x8(%rbp,%rbx,8),%rax
   13ede:	48 85 c0             	test   %rax,%rax
   13ee1:	0f 84 99 00 00 00    	je     13f80 <__emutls_get_address@@GCC_4.3.0+0xf0>
   13ee7:	5b                   	pop    %rbx
   13ee8:	5d                   	pop    %rbp
   13ee9:	41 5c                	pop    %r12
   13eeb:	41 5d                	pop    %r13
   13eed:	41 5e                	pop    %r14
   13eef:	c3                   	retq   
   13ef0:	48 8b 47 10          	mov    0x10(%rdi),%rax
   13ef4:	48 85 c0             	test   %rax,%rax
   13ef7:	75 ee                	jne    13ee7 <__emutls_get_address@@GCC_4.3.0+0x57>
   13ef9:	e8 f2 fe ff ff       	callq  13df0 <__gcc_personality_v0@@GCC_3.3.1+0x360>
   13efe:	49 89 45 10          	mov    %rax,0x10(%r13)
   13f02:	eb e3                	jmp    13ee7 <__emutls_get_address@@GCC_4.3.0+0x57>
   13f04:	0f 1f 40 00          	nopl   0x0(%rax)
   13f08:	48 8d 35 71 fe ff ff 	lea    -0x18f(%rip),%rsi        # 13d80 <__gcc_personality_v0@@GCC_3.3.1+0x2f0>
   13f0f:	48 8d 3d ea 64 00 00 	lea    0x64ea(%rip),%rdi        # 1a400 <__cpu_model@GCC_4.8.0+0x230>
   13f16:	e8 b5 f5 fe ff       	callq  34d0 <pthread_once@plt>
   13f1b:	48 8d 3d fe 64 00 00 	lea    0x64fe(%rip),%rdi        # 1a420 <__cpu_model@GCC_4.8.0+0x250>
   13f22:	e8 89 f6 fe ff       	callq  35b0 <pthread_mutex_lock@plt>
   13f27:	49 8b 5d 10          	mov    0x10(%r13),%rbx
   13f2b:	48 85 db             	test   %rbx,%rbx
   13f2e:	0f 84 bc 00 00 00    	je     13ff0 <__emutls_get_address@@GCC_4.3.0+0x160>
   13f34:	48 8d 3d e5 64 00 00 	lea    0x64e5(%rip),%rdi        # 1a420 <__cpu_model@GCC_4.8.0+0x250>
   13f3b:	e8 a0 f5 fe ff       	callq  34e0 <pthread_mutex_unlock@plt>
   13f40:	e9 6d ff ff ff       	jmpq   13eb2 <__emutls_get_address@@GCC_4.3.0+0x22>
   13f45:	0f 1f 00             	nopl   (%rax)
   13f48:	48 8d 7b 21          	lea    0x21(%rbx),%rdi
   13f4c:	be 08 00 00 00       	mov    $0x8,%esi
   13f51:	4c 8d 63 20          	lea    0x20(%rbx),%r12
   13f55:	e8 06 f5 fe ff       	callq  3460 <calloc@plt>
   13f5a:	48 89 c5             	mov    %rax,%rbp
   13f5d:	48 85 c0             	test   %rax,%rax
   13f60:	0f 84 65 f7 fe ff    	je     36cb <_Unwind_GetDataRelBase@plt+0xfb>
   13f66:	4c 89 20             	mov    %r12,(%rax)
   13f69:	8b 3d a1 64 00 00    	mov    0x64a1(%rip),%edi        # 1a410 <__cpu_model@GCC_4.8.0+0x240>
   13f6f:	48 89 c6             	mov    %rax,%rsi
   13f72:	e8 89 f5 fe ff       	callq  3500 <pthread_setspecific@plt>
   13f77:	e9 59 ff ff ff       	jmpq   13ed5 <__emutls_get_address@@GCC_4.3.0+0x45>
   13f7c:	0f 1f 40 00          	nopl   0x0(%rax)
   13f80:	4c 89 ef             	mov    %r13,%rdi
   13f83:	e8 68 fe ff ff       	callq  13df0 <__gcc_personality_v0@@GCC_3.3.1+0x360>
   13f88:	48 89 44 dd 08       	mov    %rax,0x8(%rbp,%rbx,8)
   13f8d:	e9 55 ff ff ff       	jmpq   13ee7 <__emutls_get_address@@GCC_4.3.0+0x57>
   13f92:	66 0f 1f 44 00 00    	nopw   0x0(%rax,%rax,1)
   13f98:	4f 8d 34 24          	lea    (%r12,%r12,1),%r14
   13f9c:	48 8d 43 20          	lea    0x20(%rbx),%rax
   13fa0:	48 89 ef             	mov    %rbp,%rdi
   13fa3:	4c 39 f3             	cmp    %r14,%rbx
   13fa6:	4c 0f 47 f0          	cmova  %rax,%r14
   13faa:	4a 8d 34 f5 08 00 00 	lea    0x8(,%r14,8),%rsi
   13fb1:	00 
   13fb2:	e8 99 f5 fe ff       	callq  3550 <realloc@plt>
   13fb7:	48 89 c5             	mov    %rax,%rbp
   13fba:	48 85 c0             	test   %rax,%rax
   13fbd:	0f 84 08 f7 fe ff    	je     36cb <_Unwind_GetDataRelBase@plt+0xfb>
   13fc3:	4c 89 30             	mov    %r14,(%rax)
   13fc6:	4d 29 e6             	sub    %r12,%r14
   13fc9:	4a 8d 7c e0 08       	lea    0x8(%rax,%r12,8),%rdi
   13fce:	31 f6                	xor    %esi,%esi
   13fd0:	4a 8d 14 f5 00 00 00 	lea    0x0(,%r14,8),%rdx
   13fd7:	00 
   13fd8:	e8 23 f4 fe ff       	callq  3400 <memset@plt>
   13fdd:	8b 3d 2d 64 00 00    	mov    0x642d(%rip),%edi        # 1a410 <__cpu_model@GCC_4.8.0+0x240>
   13fe3:	48 89 ee             	mov    %rbp,%rsi
   13fe6:	e8 15 f5 fe ff       	callq  3500 <pthread_setspecific@plt>
   13feb:	e9 e5 fe ff ff       	jmpq   13ed5 <__emutls_get_address@@GCC_4.3.0+0x45>
   13ff0:	48 8b 05 11 64 00 00 	mov    0x6411(%rip),%rax        # 1a408 <__cpu_model@GCC_4.8.0+0x238>
   13ff7:	48 8d 58 01          	lea    0x1(%rax),%rbx
   13ffb:	48 89 1d 06 64 00 00 	mov    %rbx,0x6406(%rip)        # 1a408 <__cpu_model@GCC_4.8.0+0x238>
   14002:	49 89 5d 10          	mov    %rbx,0x10(%r13)
   14006:	e9 29 ff ff ff       	jmpq   13f34 <__emutls_get_address@@GCC_4.3.0+0xa4>
   1400b:	0f 1f 44 00 00       	nopl   0x0(%rax,%rax,1)

0000000000014010 <__emutls_register_common@@GCC_4.3.0>:
   14010:	f3 0f 1e fa          	endbr64 
   14014:	48 39 37             	cmp    %rsi,(%rdi)
   14017:	73 0b                	jae    14024 <__emutls_register_common@@GCC_4.3.0+0x14>
   14019:	48 89 37             	mov    %rsi,(%rdi)
   1401c:	48 c7 47 18 00 00 00 	movq   $0x0,0x18(%rdi)
   14023:	00 
   14024:	48 39 57 08          	cmp    %rdx,0x8(%rdi)
   14028:	73 04                	jae    1402e <__emutls_register_common@@GCC_4.3.0+0x1e>
   1402a:	48 89 57 08          	mov    %rdx,0x8(%rdi)
   1402e:	48 85 c9             	test   %rcx,%rcx
   14031:	74 05                	je     14038 <__emutls_register_common@@GCC_4.3.0+0x28>
   14033:	48 39 37             	cmp    %rsi,(%rdi)
   14036:	74 08                	je     14040 <__emutls_register_common@@GCC_4.3.0+0x30>
   14038:	c3                   	retq   
   14039:	0f 1f 80 00 00 00 00 	nopl   0x0(%rax)
   14040:	48 89 4f 18          	mov    %rcx,0x18(%rdi)
   14044:	c3                   	retq   

Disassembly of section .fini:

0000000000014048 <.fini>:
   14048:	f3 0f 1e fa          	endbr64 
   1404c:	48 83 ec 08          	sub    $0x8,%rsp
   14050:	48 83 c4 08          	add    $0x8,%rsp
   14054:	c3                   	retq   
