
./tmp/ls:     file format elf64-x86-64


Disassembly of section .text:

0000000000016386 
   16386:	c7                   	(bad)  
   16387:	e8 d4 e3 fe ff       	callq  4760 
   1638c:	c7 00 00 00 00 00    	movl   $0x0,(%rax)
   16392:	49 89 c5             	movq   %rax,%r13
   16395:	45 0f b6 34 24       	movzbl (%r12),%r14d
   1639a:	e8 e1 e9 fe ff       	callq  4d80 
   1639f:	8b 54 24 08          	movl   0x8(%rsp),%edx
   163a3:	48 8b 30             	movq   (%rax),%rsi
   163a6:	4c 89 e0             	movq   %r12,%rax
   163a9:	eb 0e                	jmp    163b9 
   163ab:	0f 1f 44 00 00       	nopl   0x0(%rax,%rax,1)
   163b0:	44 0f b6 70 01       	movzbl 0x1(%rax),%r14d
   163b5:	48 83 c0 01          	addq   $0x1,%rax
   163b9:	41 0f b6 ce          	movzbl %r14b,%ecx
   163bd:	f6 44 4e 01 20       	testb  $0x20,0x1(%rsi,%rcx,2)
   163c2:	75 ec                	jne    163b0 
   163c4:	41 80 fe 2d          	cmpb   $0x2d,%r14b
   163c8:	74 71                	je     1643b 
   163ca:	31 c9                	xorl   %ecx,%ecx
   163cc:	48 89 ee             	movq   %rbp,%rsi
   163cf:	4c 89 e7             	movq   %r12,%rdi
   163d2:	e8 e9 e5 fe ff       	callq  49c0 
   163d7:	4c 8b 75 00          	movq   0x0(%rbp),%r14
   163db:	48 89 c2             	movq   %rax,%rdx
   163de:	4d 39 e6             	cmpq   %r12,%r14
   163e1:	74 65                	je     16448 
   163e3:	41 8b 45 00          	movl   0x0(%r13),%eax
   163e7:	85 c0                	testl  %eax,%eax
   163e9:	75 45                	jne    16430 
   163eb:	45 31 e4             	xorl   %r12d,%r12d
   163ee:	4d 85 ff             	testq  %r15,%r15
   163f1:	74 0d                	je     16400 
   163f3:	45 0f b6 2e          	movzbl (%r14),%r13d
   163f7:	45 84 ed             	testb  %r13b,%r13b
   163fa:	0f 85 10 01 00 00    	jne    16510 
   16400:	48 89 13             	movq   %rdx,(%rbx)
   16403:	48 8b 44 24 18       	movq   0x18(%rsp),%rax
   16408:	64 48 33 04 25 28 00 00 00 	xorq   %fs:0x28,%rax
   16411:	0f 85 80 03 00 00    	jne    16797 
   16417:	48 83 c4 28          	addq   $0x28,%rsp
   1641b:	44 89 e0             	movl   %r12d,%eax
   1641e:	5b                   	popq   %rbx
   1641f:	5d                   	popq   %rbp
   16420:	41 5c                	popq   %r12
   16422:	41 5d                	popq   %r13
   16424:	41 5e                	popq   %r14
   16426:	41 5f                	popq   %r15
   16428:	c3                   	retq   
   16429:	0f 1f 80 00 00 00 00 	nopl   0x0(%rax)
   16430:	41 bc 01 00 00 00    	movl   $0x1,%r12d
   16436:	83 f8 22             	cmpl   $0x22,%eax
   16439:	74 b3                	je     163ee 
   1643b:	41 bc 04 00 00 00    	movl   $0x4,%r12d
   16441:	eb c0                	jmp    16403 
   16443:	0f 1f 44 00 00       	nopl   0x0(%rax,%rax,1)
   16448:	4d 85 ff             	testq  %r15,%r15
   1644b:	74 ee                	je     1643b 
   1644d:	45 0f b6 2c 24       	movzbl (%r12),%r13d
   16452:	45 84 ed             	testb  %r13b,%r13b
   16455:	74 e4                	je     1643b 
   16457:	41 0f be f5          	movsbl %r13b,%esi
   1645b:	4c 89 ff             	movq   %r15,%rdi
   1645e:	45 31 e4             	xorl   %r12d,%r12d
   16461:	e8 aa e4 fe ff       	callq  4910 
   16466:	ba 01 00 00 00       	movl   $0x1,%edx
   1646b:	48 85 c0             	testq  %rax,%rax
   1646e:	74 cb                	je     1643b 
   16470:	41 8d 45 bb          	leal   -0x45(%r13),%eax
   16474:	3c 2f                	cmpb   $0x2f,%al
   16476:	77 14                	ja     1648c 
   16478:	48 8d 0d 61 6b 00 00 	leaq   0x6b61(%rip),%rcx        
   1647f:	0f b6 c0             	movzbl %al,%eax
   16482:	48 63 04 81          	movslq (%rcx,%rax,4),%rax
   16486:	48 01 c8             	addq   %rcx,%rax
   16489:	3e ff e0             	notrack jmpq *%rax
   1648c:	b9 01 00 00 00       	movl   $0x1,%ecx
   16491:	be 00 04 00 00       	movl   $0x400,%esi
   16496:	41 8d 45 be          	leal   -0x42(%r13),%eax
   1649a:	3c 35                	cmpb   $0x35,%al
   1649c:	0f 87 8d 00 00 00    	ja     1652f 
   164a2:	48 8d 3d f7 6b 00 00 	leaq   0x6bf7(%rip),%rdi        
   164a9:	0f b6 c0             	movzbl %al,%eax
   164ac:	48 63 04 87          	movslq (%rdi,%rax,4),%rax
   164b0:	48 01 f8             	addq   %rdi,%rax
   164b3:	3e ff e0             	notrack jmpq *%rax
   164b6:	be 30 00 00 00       	movl   $0x30,%esi
   164bb:	4c 89 ff             	movq   %r15,%rdi
   164be:	48 89 54 24 08       	movq   %rdx,0x8(%rsp)
   164c3:	e8 48 e4 fe ff       	callq  4910 
   164c8:	48 8b 54 24 08       	movq   0x8(%rsp),%rdx
   164cd:	48 85 c0             	testq  %rax,%rax
   164d0:	74 ba                	je     1648c 
   164d2:	41 0f b6 46 01       	movzbl 0x1(%r14),%eax
   164d7:	3c 44                	cmpb   $0x44,%al
   164d9:	0f 84 8a 02 00 00    	je     16769 
   164df:	3c 69                	cmpb   $0x69,%al
   164e1:	0f 84 f0 01 00 00    	je     166d7 
   164e7:	3c 42                	cmpb   $0x42,%al
   164e9:	0f 84 7a 02 00 00    	je     16769 
   164ef:	41 8d 45 bb          	leal   -0x45(%r13),%eax
   164f3:	3c 2f                	cmpb   $0x2f,%al
   164f5:	77 38                	ja     1652f 
   164f7:	48 8d 0d 7a 6c 00 00 	leaq   0x6c7a(%rip),%rcx        
   164fe:	0f b6 c0             	movzbl %al,%eax
   16501:	48 63 04 81          	movslq (%rcx,%rax,4),%rax
   16505:	48 01 c8             	addq   %rcx,%rax
   16508:	3e ff e0             	notrack jmpq *%rax
   1650b:	0f 1f 44 00 00       	nopl   0x0(%rax,%rax,1)
   16510:	41 0f be f5          	movsbl %r13b,%esi
   16514:	4c 89 ff             	movq   %r15,%rdi
   16517:	48 89 54 24 08       	movq   %rdx,0x8(%rsp)
   1651c:	e8 ef e3 fe ff       	callq  4910 
   16521:	48 8b 54 24 08       	movq   0x8(%rsp),%rdx
   16526:	48 85 c0             	testq  %rax,%rax
   16529:	0f 85 41 ff ff ff    	jne    16470 
   1652f:	48 89 13             	movq   %rdx,(%rbx)
   16532:	41 83 cc 02          	orl    $0x2,%r12d
   16536:	e9 c8 fe ff ff       	jmpq   16403 
   1653b:	b9 01 00 00 00       	movl   $0x1,%ecx
   16540:	48 89 d0             	movq   %rdx,%rax
   16543:	48 c1 e8 37          	shrq   $0x37,%rax
   16547:	0f 85 e2 00 00 00    	jne    1662f 
   1654d:	48 c1 e2 09          	shlq   $0x9,%rdx
   16551:	e9 ea 00 00 00       	jmpq   16640 
   16556:	b9 01 00 00 00       	movl   $0x1,%ecx
   1655b:	be 00 04 00 00       	movl   $0x400,%esi
   16560:	bf 07 00 00 00       	movl   $0x7,%edi
   16565:	45 31 c0             	xorl   %r8d,%r8d
   16568:	0f 1f 84 00 00 00 00 00 	nopl   0x0(%rax,%rax,1)
   16570:	48 89 d0             	movq   %rdx,%rax
   16573:	48 f7 e6             	mulq   %rsi
   16576:	0f 80 20 02 00 00    	jo     1679c 
   1657c:	48 89 c2             	movq   %rax,%rdx
   1657f:	83 ef 01             	subl   $0x1,%edi
   16582:	75 ec                	jne    16570 
   16584:	45 09 c4             	orl    %r8d,%r12d
   16587:	e9 b4 00 00 00       	jmpq   16640 
   1658c:	b9 01 00 00 00       	movl   $0x1,%ecx
   16591:	be 00 04 00 00       	movl   $0x400,%esi
   16596:	bf 08 00 00 00       	movl   $0x8,%edi
   1659b:	45 31 c0             	xorl   %r8d,%r8d
   1659e:	66 90                	xchgw  %ax,%ax
   165a0:	48 89 d0             	movq   %rdx,%rax
   165a3:	48 f7 e6             	mulq   %rsi
   165a6:	0f 80 3a 02 00 00    	jo     167e6 
   165ac:	48 89 c2             	movq   %rax,%rdx
   165af:	83 ef 01             	subl   $0x1,%edi
   165b2:	75 ec                	jne    165a0 
   165b4:	eb ce                	jmp    16584 
   165b6:	b9 01 00 00 00       	movl   $0x1,%ecx
   165bb:	be 00 04 00 00       	movl   $0x400,%esi
   165c0:	bf 04 00 00 00       	movl   $0x4,%edi
   165c5:	45 31 c0             	xorl   %r8d,%r8d
   165c8:	0f 1f 84 00 00 00 00 00 	nopl   0x0(%rax,%rax,1)
   165d0:	48 89 d0             	movq   %rdx,%rax
   165d3:	48 f7 e6             	mulq   %rsi
   165d6:	0f 80 fb 01 00 00    	jo     167d7 
   165dc:	48 89 c2             	movq   %rax,%rdx
   165df:	83 ef 01             	subl   $0x1,%edi
   165e2:	75 ec                	jne    165d0 
   165e4:	eb 9e                	jmp    16584 
   165e6:	b9 01 00 00 00       	movl   $0x1,%ecx
   165eb:	be 00 04 00 00       	movl   $0x400,%esi
   165f0:	bf 05 00 00 00       	movl   $0x5,%edi
   165f5:	45 31 c0             	xorl   %r8d,%r8d
   165f8:	0f 1f 84 00 00 00 00 00 	nopl   0x0(%rax,%rax,1)
   16600:	48 89 d0             	movq   %rdx,%rax
   16603:	48 f7 e6             	mulq   %rsi
   16606:	0f 80 bc 01 00 00    	jo     167c8 
   1660c:	48 89 c2             	movq   %rax,%rdx
   1660f:	83 ef 01             	subl   $0x1,%edi
   16612:	75 ec                	jne    16600 
   16614:	e9 6b ff ff ff       	jmpq   16584 
   16619:	b9 01 00 00 00       	movl   $0x1,%ecx
   1661e:	be 00 04 00 00       	movl   $0x400,%esi
   16623:	48 89 d0             	movq   %rdx,%rax
   16626:	48 f7 e6             	mulq   %rsi
   16629:	0f 81 97 00 00 00    	jno    166c6 
   1662f:	41 bc 01 00 00 00    	movl   $0x1,%r12d
   16635:	48 83 ca ff          	orq    $0xffffffffffffffff,%rdx
   16639:	eb 05                	jmp    16640 
   1663b:	b9 01 00 00 00       	movl   $0x1,%ecx
   16640:	4c 01 f1             	addq   %r14,%rcx
   16643:	44 89 e0             	movl   %r12d,%eax
   16646:	83 c8 02             	orl    $0x2,%eax
   16649:	48 89 4d 00          	movq   %rcx,0x0(%rbp)
   1664d:	80 39 00             	cmpb   $0x0,(%rcx)
   16650:	44 0f 45 e0          	cmovnel %eax,%r12d
   16654:	e9 a7 fd ff ff       	jmpq   16400 
   16659:	b9 01 00 00 00       	movl   $0x1,%ecx
   1665e:	be 00 04 00 00       	movl   $0x400,%esi
   16663:	48 89 d0             	movq   %rdx,%rax
   16666:	48 f7 e6             	mulq   %rsi
   16669:	0f 80 3c 01 00 00    	jo     167ab 
   1666f:	48 f7 e6             	mulq   %rsi
   16672:	0f 80 33 01 00 00    	jo     167ab 
   16678:	48 f7 e6             	mulq   %rsi
   1667b:	0f 80 2a 01 00 00    	jo     167ab 
   16681:	48 89 c2             	movq   %rax,%rdx
   16684:	31 c0                	xorl   %eax,%eax
   16686:	41 09 c4             	orl    %eax,%r12d
   16689:	eb b5                	jmp    16640 
   1668b:	b9 01 00 00 00       	movl   $0x1,%ecx
   16690:	be 00 04 00 00       	movl   $0x400,%esi
   16695:	bf 06 00 00 00       	movl   $0x6,%edi
   1669a:	45 31 c0             	xorl   %r8d,%r8d
   1669d:	0f 1f 00             	nopl   (%rax)
   166a0:	48 89 d0             	movq   %rdx,%rax
   166a3:	48 f7 e6             	mulq   %rsi
   166a6:	0f 80 0d 01 00 00    	jo     167b9 
   166ac:	48 89 c2             	movq   %rax,%rdx
   166af:	83 ef 01             	subl   $0x1,%edi
   166b2:	75 ec                	jne    166a0 
   166b4:	e9 cb fe ff ff       	jmpq   16584 
   166b9:	b9 01 00 00 00       	movl   $0x1,%ecx
   166be:	be 00 04 00 00       	movl   $0x400,%esi
   166c3:	48 89 d0             	movq   %rdx,%rax
   166c6:	48 f7 e6             	mulq   %rsi
   166c9:	0f 80 60 ff ff ff    	jo     1662f 
   166cf:	48 89 c2             	movq   %rax,%rdx
   166d2:	e9 69 ff ff ff       	jmpq   16640 
   166d7:	31 c9                	xorl   %ecx,%ecx
   166d9:	41 80 7e 02 42       	cmpb   $0x42,0x2(%r14)
   166de:	be 00 04 00 00       	movl   $0x400,%esi
   166e3:	0f 94 c1             	sete   %cl
   166e6:	8d 4c 09 01          	leal   0x1(%rcx,%rcx,1),%ecx
   166ea:	e9 a7 fd ff ff       	jmpq   16496 
   166ef:	48 63 c9             	movslq %ecx,%rcx
   166f2:	e9 c9 fe ff ff       	jmpq   165c0 
   166f7:	48 63 c9             	movslq %ecx,%rcx
   166fa:	e9 24 ff ff ff       	jmpq   16623 
   166ff:	48 63 c9             	movslq %ecx,%rcx
   16702:	eb bf                	jmp    166c3 
   16704:	48 63 c9             	movslq %ecx,%rcx
   16707:	e9 57 ff ff ff       	jmpq   16663 
   1670c:	48 89 d0             	movq   %rdx,%rax
   1670f:	48 63 c9             	movslq %ecx,%rcx
   16712:	48 c1 e8 36          	shrq   $0x36,%rax
   16716:	0f 85 13 ff ff ff    	jne    1662f 
   1671c:	48 c1 e2 0a          	shlq   $0xa,%rdx
   16720:	e9 1b ff ff ff       	jmpq   16640 
   16725:	48 63 c9             	movslq %ecx,%rcx
   16728:	48 85 d2             	testq  %rdx,%rdx
   1672b:	0f 88 fe fe ff ff    	js     1662f 
   16731:	48 01 d2             	addq   %rdx,%rdx
   16734:	e9 07 ff ff ff       	jmpq   16640 
   16739:	48 63 c9             	movslq %ecx,%rcx
   1673c:	e9 ff fe ff ff       	jmpq   16640 
   16741:	48 63 c9             	movslq %ecx,%rcx
   16744:	e9 f7 fd ff ff       	jmpq   16540 
   16749:	48 63 c9             	movslq %ecx,%rcx
   1674c:	e9 0f fe ff ff       	jmpq   16560 
   16751:	48 63 c9             	movslq %ecx,%rcx
   16754:	e9 3d fe ff ff       	jmpq   16596 
   16759:	48 63 c9             	movslq %ecx,%rcx
   1675c:	e9 8f fe ff ff       	jmpq   165f0 
   16761:	48 63 c9             	movslq %ecx,%rcx
   16764:	e9 2c ff ff ff       	jmpq   16695 
   16769:	b9 02 00 00 00       	movl   $0x2,%ecx
   1676e:	be e8 03 00 00       	movl   $0x3e8,%esi
   16773:	e9 1e fd ff ff       	jmpq   16496 
   16778:	48 8d 0d b9 6a 00 00 	leaq   0x6ab9(%rip),%rcx        
   1677f:	ba 60 00 00 00       	movl   $0x60,%edx
   16784:	48 8d 35 55 65 00 00 	leaq   0x6555(%rip),%rsi        
   1678b:	48 8d 3d 5e 65 00 00 	leaq   0x655e(%rip),%rdi        
   16792:	e8 19 e2 fe ff       	callq  49b0 
   16797:	e8 44 e1 fe ff       	callq  48e0 
   1679c:	41 b8 01 00 00 00    	movl   $0x1,%r8d
   167a2:	48 83 ca ff          	orq    $0xffffffffffffffff,%rdx
   167a6:	e9 d4 fd ff ff       	jmpq   1657f 
   167ab:	b8 01 00 00 00       	movl   $0x1,%eax
   167b0:	48 83 ca ff          	orq    $0xffffffffffffffff,%rdx
   167b4:	e9 cd fe ff ff       	jmpq   16686 
   167b9:	41 b8 01 00 00 00    	movl   $0x1,%r8d
   167bf:	48 83 ca ff          	orq    $0xffffffffffffffff,%rdx
   167c3:	e9 e7 fe ff ff       	jmpq   166af 
   167c8:	41 b8 01 00 00 00    	movl   $0x1,%r8d
   167ce:	48 83 ca ff          	orq    $0xffffffffffffffff,%rdx
   167d2:	e9 38 fe ff ff       	jmpq   1660f 
   167d7:	41 b8 01 00 00 00    	movl   $0x1,%r8d
   167dd:	48 83 ca ff          	orq    $0xffffffffffffffff,%rdx
   167e1:	e9 f9 fd ff ff       	jmpq   165df 
   167e6:	41 b8 01 00 00 00    	movl   $0x1,%r8d
   167ec:	48 83 ca ff          	orq    $0xffffffffffffffff,%rdx
   167f0:	e9 ba fd ff ff       	jmpq   165af 
   167f5:	66 2e 0f 1f 84 00 00 00 00 00 	nopw   %cs:0x0(%rax,%rax,1)
   167ff:	90                   	nop
   16800:	53                   	pushq  %rbx
   16801:	85 ff                	testl  %edi,%edi
   16803:	74 53                	je     16858 
   16805:	89 f8                	movl   %edi,%eax
   16807:	83 ff 0a             	cmpl   $0xa,%edi
   1680a:	74 04                	je     16810 
   1680c:	5b                   	popq   %rbx
   1680d:	c3                   	retq   
   1680e:	66 90                	xchgw  %ax,%ax
   16810:	4c 8b 06             	movq   (%rsi),%r8
   16813:	48 89 f3             	movq   %rsi,%rbx
   16816:	b9 0a 00 00 00       	movl   $0xa,%ecx
   1681b:	48 8d 3d 3d 30 00 00 	leaq   0x303d(%rip),%rdi        
   16822:	4c 89 c6             	movq   %r8,%rsi
   16825:	f3 a6                	repz cmpsb %es:(%rdi),%ds:(%rsi)
   16827:	0f 97 c2             	seta   %dl
   1682a:	80 da 00             	sbbb   $0x0,%dl
   1682d:	84 d2                	testb  %dl,%dl
   1682f:	75 db                	jne    1680c 
   16831:	4c 89 c7             	movq   %r8,%rdi
   16834:	e8 97 e4 fe ff       	callq  4cd0 
   16839:	48 c7 03 00 00 00 00 	movq   $0x0,(%rbx)
   16840:	e8 1b df fe ff       	callq  4760 
   16845:	c7 00 3d 00 00 00    	movl   $0x3d,(%rax)
   1684b:	b8 ff ff ff ff       	movl   $0xffffffff,%eax
   16850:	5b                   	popq   %rbx
   16851:	c3                   	retq   
   16852:	66 0f 1f 44 00 00    	nopw   0x0(%rax,%rax,1)
   16858:	e8 03 df fe ff       	callq  4760 
   1685d:	c7 00 5f 00 00 00    	movl   $0x5f,(%rax)
   16863:	b8 ff ff ff ff       	movl   $0xffffffff,%eax
   16868:	5b                   	popq   %rbx
   16869:	c3                   	retq   
   1686a:	66 0f 1f 44 00 00    	nopw   0x0(%rax,%rax,1)
   16870:	f3 0f 1e fa          	endbr64 
   16874:	55                   	pushq  %rbp
   16875:	48 89 f5             	movq   %rsi,%rbp
   16878:	e8 83 e2 fe ff       	callq  4b00 
   1687d:	48 89 ee             	movq   %rbp,%rsi
   16880:	5d                   	popq   %rbp
   16881:	89 c7                	movl   %eax,%edi
   16883:	e9 78 ff ff ff       	jmpq   16800 
   16888:	0f 1f 84 00 00 00 00 00 	nopl   0x0(%rax,%rax,1)
   16890:	f3 0f 1e fa          	endbr64 
   16894:	55                   	pushq  %rbp
   16895:	48 89 f5             	movq   %rsi,%rbp
   16898:	e8 d3 e1 fe ff       	callq  4a70 
   1689d:	48 89 ee             	movq   %rbp,%rsi
   168a0:	5d                   	popq   %rbp
   168a1:	89 c7                	movl   %eax,%edi
   168a3:	e9 58 ff ff ff       	jmpq   16800 
   168a8:	0f 1f 84 00 00 00 00 00 	nopl   0x0(%rax,%rax,1)
   168b0:	f3 0f 1e fa          	endbr64 
   168b4:	55                   	pushq  %rbp
   168b5:	48 89 f5             	movq   %rsi,%rbp
   168b8:	e8 b3 e0 fe ff       	callq  4970 
   168bd:	48 89 ee             	movq   %rbp,%rsi
   168c0:	5d                   	popq   %rbp
   168c1:	89 c7                	movl   %eax,%edi
   168c3:	e9 38 ff ff ff       	jmpq   16800 
   168c8:	0f 1f 84 00 00 00 00 00 	nopl   0x0(%rax,%rax,1)
   168d0:	f3 0f 1e fa          	endbr64 
   168d4:	41 55                	pushq  %r13
   168d6:	49 89 f5             	movq   %rsi,%r13
   168d9:	41 54                	pushq  %r12
   168db:	55                   	pushq  %rbp
   168dc:	48 89 d5             	movq   %rdx,%rbp
   168df:	53                   	pushq  %rbx
   168e0:	48 89 fb             	movq   %rdi,%rbx
   168e3:	48 83 ec 18          	subq   $0x18,%rsp
   168e7:	64 48 8b 04 25 28 00 00 00 	movq   %fs:0x28,%rax
   168f0:	48 89 44 24 08       	movq   %rax,0x8(%rsp)
   168f5:	31 c0                	xorl   %eax,%eax
   168f7:	48 85 ff             	testq  %rdi,%rdi
   168fa:	48 8d 44 24 04       	leaq   0x4(%rsp),%rax
   168ff:	48 0f 44 d8          	cmoveq %rax,%rbx
   16903:	48 89 df             	movq   %rbx,%rdi
   16906:	e8 f5 df fe ff       	callq  4900 
   1690b:	49 89 c4             	movq   %rax,%r12
   1690e:	48 83 f8 fd          	cmpq   $0xfffffffffffffffd,%rax
   16912:	76 05                	jbe    16919 
   16914:	48 85 ed             	testq  %rbp,%rbp
   16917:	75 27                	jne    16940 
   16919:	48 8b 44 24 08       	movq   0x8(%rsp),%rax
   1691e:	64 48 33 04 25 28 00 00 00 	xorq   %fs:0x28,%rax
   16927:	75 31                	jne    1695a 
   16929:	48 83 c4 18          	addq   $0x18,%rsp
   1692d:	4c 89 e0             	movq   %r12,%rax
   16930:	5b                   	popq   %rbx
   16931:	5d                   	popq   %rbp
   16932:	41 5c                	popq   %r12
   16934:	41 5d                	popq   %r13
   16936:	c3                   	retq   
   16937:	66 0f 1f 84 00 00 00 00 00 	nopw   0x0(%rax,%rax,1)
   16940:	31 ff                	xorl   %edi,%edi
   16942:	e8 09 82 ff ff       	callq  eb50 
   16947:	84 c0                	testb  %al,%al
   16949:	75 ce                	jne    16919 
   1694b:	41 0f b6 45 00       	movzbl 0x0(%r13),%eax
   16950:	41 bc 01 00 00 00    	movl   $0x1,%r12d
   16956:	89 03                	movl   %eax,(%rbx)
   16958:	eb bf                	jmp    16919 
   1695a:	e8 81 df fe ff       	callq  48e0 
   1695f:	90                   	nop
   16960:	f3 0f 1e fa          	endbr64 
   16964:	50                   	pushq  %rax
   16965:	58                   	popq   %rax
   16966:	ba 05 00 00 00       	movl   $0x5,%edx
   1696b:	48 8d 35 5d 63 00 00 	leaq   0x635d(%rip),%rsi        
   16972:	31 ff                	xorl   %edi,%edi
   16974:	48 83 ec 08          	subq   $0x8,%rsp
   16978:	e8 23 df fe ff       	callq  48a0 
   1697d:	48 8b 3d 3c c9 00 00 	movq   0xc93c(%rip),%rdi        
   16984:	be 01 00 00 00       	movl   $0x1,%esi
   16989:	48 8d 15 e0 5f 00 00 	leaq   0x5fe0(%rip),%rdx        
   16990:	48 89 c1             	movq   %rax,%rcx
   16993:	31 c0                	xorl   %eax,%eax
   16995:	e8 86 e3 fe ff       	callq  4d20 
   1699a:	8b 3d 58 c8 00 00    	movl   0xc858(%rip),%edi        
   169a0:	e8 5b e3 fe ff       	callq  4d00 
   169a5:	66 66 2e 0f 1f 84 00 00 00 00 00 	data16 nopw %cs:0x0(%rax,%rax,1)
   169b0:	48 8b 47 38          	movq   0x38(%rdi),%rax
   169b4:	f6 47 50 01          	testb  $0x1,0x50(%rdi)
   169b8:	74 06                	je     169c0 
   169ba:	48 8b 7f 48          	movq   0x48(%rdi),%rdi
   169be:	ff e0                	jmpq   *%rax
   169c0:	48 89 f7             	movq   %rsi,%rdi
   169c3:	ff e0                	jmpq   *%rax
   169c5:	66 66 2e 0f 1f 84 00 00 00 00 00 	data16 nopw %cs:0x0(%rax,%rax,1)
   169d0:	48 8b 47 40          	movq   0x40(%rdi),%rax
   169d4:	f6 47 50 01          	testb  $0x1,0x50(%rdi)
   169d8:	74 06                	je     169e0 
   169da:	48 8b 7f 48          	movq   0x48(%rdi),%rdi
   169de:	ff e0                	jmpq   *%rax
   169e0:	48 89 f7             	movq   %rsi,%rdi
   169e3:	ff e0                	jmpq   *%rax
   169e5:	66 66 2e 0f 1f 84 00 00 00 00 00 	data16 nopw %cs:0x0(%rax,%rax,1)
   169f0:	41 54                	pushq  %r12
   169f2:	55                   	pushq  %rbp
   169f3:	53                   	pushq  %rbx
   169f4:	48 89 fb             	movq   %rdi,%rbx
   169f7:	48 85 d2             	testq  %rdx,%rdx
   169fa:	74 64                	je     16a60 
   169fc:	48 89 d5             	movq   %rdx,%rbp
   169ff:	4c 8d 62 ff          	leaq   -0x1(%rdx),%r12
   16a03:	48 85 f6             	testq  %rsi,%rsi
   16a06:	b8 e0 0f 00 00       	movl   $0xfe0,%eax
   16a0b:	4c 89 63 30          	movq   %r12,0x30(%rbx)
   16a0f:	48 89 df             	movq   %rbx,%rdi
   16a12:	48 0f 44 f0          	cmoveq %rax,%rsi
   16a16:	48 89 33             	movq   %rsi,(%rbx)
   16a19:	e8 92 ff ff ff       	callq  169b0 
   16a1e:	48 89 43 08          	movq   %rax,0x8(%rbx)
   16a22:	48 85 c0             	testq  %rax,%rax
   16a25:	74 46                	je     16a6d 
   16a27:	4a 8d 54 20 10       	leaq   0x10(%rax,%r12,1),%rdx
   16a2c:	48 f7 dd             	negq   %rbp
   16a2f:	48 21 d5             	andq   %rdx,%rbp
   16a32:	48 8b 13             	movq   (%rbx),%rdx
   16a35:	48 89 6b 10          	movq   %rbp,0x10(%rbx)
   16a39:	48 01 c2             	addq   %rax,%rdx
   16a3c:	48 89 6b 18          	movq   %rbp,0x18(%rbx)
   16a40:	48 89 10             	movq   %rdx,(%rax)
   16a43:	48 89 53 20          	movq   %rdx,0x20(%rbx)
   16a47:	48 c7 40 08 00 00 00 00 	movq   $0x0,0x8(%rax)
   16a4f:	b8 01 00 00 00       	movl   $0x1,%eax
   16a54:	80 63 50 f9          	andb   $0xf9,0x50(%rbx)
   16a58:	5b                   	popq   %rbx
   16a59:	5d                   	popq   %rbp
   16a5a:	41 5c                	popq   %r12
   16a5c:	c3                   	retq   
   16a5d:	0f 1f 00             	nopl   (%rax)
   16a60:	41 bc 0f 00 00 00    	movl   $0xf,%r12d
   16a66:	bd 10 00 00 00       	movl   $0x10,%ebp
   16a6b:	eb 96                	jmp    16a03 
   16a6d:	ff 15 ed c7 00 00    	callq  *0xc7ed(%rip)        
   16a73:	66 66 2e 0f 1f 84 00 00 00 00 00 	data16 nopw %cs:0x0(%rax,%rax,1)
   16a7e:	66 90                	xchgw  %ax,%ax

0000000000016a80 
   16a80:	f3 0f 1e fa          	endbr64 
   16a84:	80 67 50 fe          	andb   $0xfe,0x50(%rdi)
   16a88:	48 89 4f 38          	movq   %rcx,0x38(%rdi)
   16a8c:	4c 89 47 40          	movq   %r8,0x40(%rdi)
   16a90:	e9 5b ff ff ff       	jmpq   169f0 
   16a95:	66 66 2e 0f 1f 84 00 00 00 00 00 	data16 nopw %cs:0x0(%rax,%rax,1)

0000000000016aa0 
   16aa0:	f3 0f 1e fa          	endbr64 
   16aa4:	80 4f 50 01          	orb    $0x1,0x50(%rdi)
   16aa8:	48 89 4f 38          	movq   %rcx,0x38(%rdi)
   16aac:	4c 89 47 40          	movq   %r8,0x40(%rdi)
   16ab0:	4c 89 4f 48          	movq   %r9,0x48(%rdi)
   16ab4:	e9 37 ff ff ff       	jmpq   169f0 
   16ab9:	0f 1f 80 00 00 00 00 	nopl   0x0(%rax)

0000000000016ac0 
   16ac0:	f3 0f 1e fa          	endbr64 
   16ac4:	41 56                	pushq  %r14
   16ac6:	31 c0                	xorl   %eax,%eax
   16ac8:	41 55                	pushq  %r13
   16aca:	41 54                	pushq  %r12
   16acc:	55                   	pushq  %rbp
   16acd:	53                   	pushq  %rbx
   16ace:	4c 8b 77 18          	movq   0x18(%rdi),%r14
   16ad2:	4c 2b 77 10          	subq   0x10(%rdi),%r14
   16ad6:	48 8b 6f 08          	movq   0x8(%rdi),%rbp
   16ada:	4c 01 f6             	addq   %r14,%rsi
   16add:	4c 89 f2             	movq   %r14,%rdx
   16ae0:	0f 92 c0             	setb   %al
   16ae3:	48 03 77 30          	addq   0x30(%rdi),%rsi
   16ae7:	0f 92 c1             	setb   %cl
   16aea:	48 c1 ea 03          	shrq   $0x3,%rdx
   16aee:	48 39 37             	cmpq   %rsi,(%rdi)
   16af1:	4c 8d 64 16 64       	leaq   0x64(%rsi,%rdx,1),%r12
   16af6:	48 0f 43 37          	cmovaeq (%rdi),%rsi
   16afa:	4c 39 e6             	cmpq   %r12,%rsi
   16afd:	4c 0f 43 e6          	cmovaeq %rsi,%r12
   16b01:	48 85 c0             	testq  %rax,%rax
   16b04:	0f 85 9b 00 00 00    	jne    16ba5 
   16b0a:	0f b6 c9             	movzbl %cl,%ecx
   16b0d:	48 85 c9             	testq  %rcx,%rcx
   16b10:	0f 85 8f 00 00 00    	jne    16ba5 
   16b16:	4c 89 e6             	movq   %r12,%rsi
   16b19:	48 89 fb             	movq   %rdi,%rbx
   16b1c:	e8 8f fe ff ff       	callq  169b0 
   16b21:	49 89 c5             	movq   %rax,%r13
   16b24:	48 85 c0             	testq  %rax,%rax
   16b27:	74 7c                	je     16ba5 
   16b29:	4a 8d 34 20          	leaq   (%rax,%r12,1),%rsi
   16b2d:	48 89 43 08          	movq   %rax,0x8(%rbx)
   16b31:	4c 89 f2             	movq   %r14,%rdx
   16b34:	48 89 68 08          	movq   %rbp,0x8(%rax)
   16b38:	48 89 73 20          	movq   %rsi,0x20(%rbx)
   16b3c:	48 89 30             	movq   %rsi,(%rax)
   16b3f:	48 8b 43 30          	movq   0x30(%rbx),%rax
   16b43:	48 8b 73 10          	movq   0x10(%rbx),%rsi
   16b47:	4d 8d 64 05 10       	leaq   0x10(%r13,%rax,1),%r12
   16b4c:	48 f7 d0             	notq   %rax
   16b4f:	49 21 c4             	andq   %rax,%r12
   16b52:	4c 89 e7             	movq   %r12,%rdi
   16b55:	e8 86 df fe ff       	callq  4ae0 
   16b5a:	f6 43 50 02          	testb  $0x2,0x50(%rbx)
   16b5e:	75 15                	jne    16b75 
   16b60:	48 8b 43 30          	movq   0x30(%rbx),%rax
   16b64:	48 8d 54 05 10       	leaq   0x10(%rbp,%rax,1),%rdx
   16b69:	48 f7 d0             	notq   %rax
   16b6c:	48 21 d0             	andq   %rdx,%rax
   16b6f:	48 39 43 10          	cmpq   %rax,0x10(%rbx)
   16b73:	74 1b                	je     16b90 
   16b75:	4d 01 e6             	addq   %r12,%r14
   16b78:	80 63 50 fd          	andb   $0xfd,0x50(%rbx)
   16b7c:	4c 89 63 10          	movq   %r12,0x10(%rbx)
   16b80:	4c 89 73 18          	movq   %r14,0x18(%rbx)
   16b84:	5b                   	popq   %rbx
   16b85:	5d                   	popq   %rbp
   16b86:	41 5c                	popq   %r12
   16b88:	41 5d                	popq   %r13
   16b8a:	41 5e                	popq   %r14
   16b8c:	c3                   	retq   
   16b8d:	0f 1f 00             	nopl   (%rax)
   16b90:	48 8b 45 08          	movq   0x8(%rbp),%rax
   16b94:	48 89 ee             	movq   %rbp,%rsi
   16b97:	48 89 df             	movq   %rbx,%rdi
   16b9a:	49 89 45 08          	movq   %rax,0x8(%r13)
   16b9e:	e8 2d fe ff ff       	callq  169d0 
   16ba3:	eb d0                	jmp    16b75 
   16ba5:	ff 15 b5 c6 00 00    	callq  *0xc6b5(%rip)        
   16bab:	0f 1f 44 00 00       	nopl   0x0(%rax,%rax,1)

0000000000016bb0 
   16bb0:	f3 0f 1e fa          	endbr64 
   16bb4:	48 8b 47 08          	movq   0x8(%rdi),%rax
   16bb8:	48 85 c0             	testq  %rax,%rax
   16bbb:	74 29                	je     16be6 
   16bbd:	0f 1f 00             	nopl   (%rax)
   16bc0:	48 39 c6             	cmpq   %rax,%rsi
   16bc3:	76 05                	jbe    16bca 
   16bc5:	48 39 30             	cmpq   %rsi,(%rax)
   16bc8:	73 16                	jae    16be0 
   16bca:	48 8b 40 08          	movq   0x8(%rax),%rax
   16bce:	48 85 c0             	testq  %rax,%rax
   16bd1:	75 ed                	jne    16bc0 
   16bd3:	31 c0                	xorl   %eax,%eax
   16bd5:	c3                   	retq   
   16bd6:	66 2e 0f 1f 84 00 00 00 00 00 	nopw   %cs:0x0(%rax,%rax,1)
   16be0:	b8 01 00 00 00       	movl   $0x1,%eax
   16be5:	c3                   	retq   
   16be6:	c3                   	retq   
   16be7:	66 0f 1f 84 00 00 00 00 00 	nopw   0x0(%rax,%rax,1)

0000000000016bf0 
   16bf0:	f3 0f 1e fa          	endbr64 
   16bf4:	41 54                	pushq  %r12
   16bf6:	49 89 f4             	movq   %rsi,%r12
   16bf9:	55                   	pushq  %rbp
   16bfa:	53                   	pushq  %rbx
   16bfb:	48 8b 77 08          	movq   0x8(%rdi),%rsi
   16bff:	48 89 fb             	movq   %rdi,%rbx
   16c02:	48 85 f6             	testq  %rsi,%rsi
   16c05:	75 0c                	jne    16c13 
   16c07:	eb 2c                	jmp    16c35 
   16c09:	0f 1f 80 00 00 00 00 	nopl   0x0(%rax)
   16c10:	48 89 ee             	movq   %rbp,%rsi
   16c13:	4c 39 e6             	cmpq   %r12,%rsi
   16c16:	73 08                	jae    16c20 
   16c18:	48 8b 06             	movq   (%rsi),%rax
   16c1b:	4c 39 e0             	cmpq   %r12,%rax
   16c1e:	73 28                	jae    16c48 
   16c20:	48 8b 6e 08          	movq   0x8(%rsi),%rbp
   16c24:	48 89 df             	movq   %rbx,%rdi
   16c27:	e8 a4 fd ff ff       	callq  169d0 
   16c2c:	80 4b 50 02          	orb    $0x2,0x50(%rbx)
   16c30:	48 85 ed             	testq  %rbp,%rbp
   16c33:	75 db                	jne    16c10 
   16c35:	4d 85 e4             	testq  %r12,%r12
   16c38:	0f 85 ad e1 fe ff    	jne    4deb 
   16c3e:	5b                   	popq   %rbx
   16c3f:	5d                   	popq   %rbp
   16c40:	41 5c                	popq   %r12
   16c42:	c3                   	retq   
   16c43:	0f 1f 44 00 00       	nopl   0x0(%rax,%rax,1)
   16c48:	4c 89 63 18          	movq   %r12,0x18(%rbx)
   16c4c:	4c 89 63 10          	movq   %r12,0x10(%rbx)
   16c50:	48 89 43 20          	movq   %rax,0x20(%rbx)
   16c54:	48 89 73 08          	movq   %rsi,0x8(%rbx)
   16c58:	5b                   	popq   %rbx
   16c59:	5d                   	popq   %rbp
   16c5a:	41 5c                	popq   %r12
   16c5c:	c3                   	retq   
   16c5d:	0f 1f 00             	nopl   (%rax)

0000000000016c60 
   16c60:	f3 0f 1e fa          	endbr64 
   16c64:	48 8b 47 08          	movq   0x8(%rdi),%rax
   16c68:	45 31 c0             	xorl   %r8d,%r8d
   16c6b:	48 85 c0             	testq  %rax,%rax
   16c6e:	74 12                	je     16c82 
   16c70:	48 8b 10             	movq   (%rax),%rdx
   16c73:	48 29 c2             	subq   %rax,%rdx
   16c76:	48 8b 40 08          	movq   0x8(%rax),%rax
   16c7a:	49 01 d0             	addq   %rdx,%r8
   16c7d:	48 85 c0             	testq  %rax,%rax
   16c80:	75 ee                	jne    16c70 
   16c82:	4c 89 c0             	movq   %r8,%rax
   16c85:	c3                   	retq   
   16c86:	66 2e 0f 1f 84 00 00 00 00 00 	nopw   %cs:0x0(%rax,%rax,1)
   16c90:	48 89 fe             	movq   %rdi,%rsi
   16c93:	48 85 ff             	testq  %rdi,%rdi
   16c96:	74 18                	je     16cb0 
   16c98:	ba 01 00 00 00       	movl   $0x1,%edx
   16c9d:	48 8d 3d 4c 2e 00 00 	leaq   0x2e4c(%rip),%rdi        
   16ca4:	e9 97 db fe ff       	jmpq   4840 
   16ca9:	0f 1f 80 00 00 00 00 	nopl   0x0(%rax)
   16cb0:	48 8d 3d 39 2e 00 00 	leaq   0x2e39(%rip),%rdi        
   16cb7:	e9 c4 df fe ff       	jmpq   4c80 
   16cbc:	0f 1f 40 00          	nopl   0x0(%rax)
   16cc0:	48 85 ff             	testq  %rdi,%rdi
   16cc3:	74 23                	je     16ce8 
   16cc5:	53                   	pushq  %rbx
   16cc6:	48 89 fb             	movq   %rdi,%rbx
   16cc9:	0f 1f 80 00 00 00 00 	nopl   0x0(%rax)
   16cd0:	48 89 df             	movq   %rbx,%rdi
   16cd3:	48 8b 1b             	movq   (%rbx),%rbx
   16cd6:	e8 f5 d9 fe ff       	callq  46d0 
   16cdb:	48 85 db             	testq  %rbx,%rbx
   16cde:	75 f0                	jne    16cd0 
   16ce0:	5b                   	popq   %rbx
   16ce1:	c3                   	retq   
   16ce2:	66 0f 1f 44 00 00    	nopw   0x0(%rax,%rax,1)
   16ce8:	c3                   	retq   
   16ce9:	0f 1f 80 00 00 00 00 	nopl   0x0(%rax)
   16cf0:	41 55                	pushq  %r13
   16cf2:	41 54                	pushq  %r12
   16cf4:	55                   	pushq  %rbp
   16cf5:	48 89 fd             	movq   %rdi,%rbp
   16cf8:	53                   	pushq  %rbx
   16cf9:	48 83 ec 08          	subq   $0x8,%rsp
   16cfd:	e8 5e da fe ff       	callq  4760 
   16d02:	80 7d 08 00          	cmpb   $0x0,0x8(%rbp)
   16d06:	48 8d 7d 09          	leaq   0x9(%rbp),%rdi
   16d0a:	44 8b 20             	movl   (%rax),%r12d
   16d0d:	48 89 c3             	movq   %rax,%rbx
   16d10:	75 02                	jne    16d14 
   16d12:	31 ff                	xorl   %edi,%edi
   16d14:	e8 77 ff ff ff       	callq  16c90 
   16d19:	85 c0                	testl  %eax,%eax
   16d1b:	74 23                	je     16d40 
   16d1d:	44 8b 23             	movl   (%rbx),%r12d
   16d20:	45 31 ed             	xorl   %r13d,%r13d
   16d23:	48 89 ef             	movq   %rbp,%rdi
   16d26:	e8 95 ff ff ff       	callq  16cc0 
   16d2b:	44 89 23             	movl   %r12d,(%rbx)
   16d2e:	48 83 c4 08          	addq   $0x8,%rsp
   16d32:	44 89 e8             	movl   %r13d,%eax
   16d35:	5b                   	popq   %rbx
   16d36:	5d                   	popq   %rbp
   16d37:	41 5c                	popq   %r12
   16d39:	41 5d                	popq   %r13
   16d3b:	c3                   	retq   
   16d3c:	0f 1f 40 00          	nopl   0x0(%rax)
   16d40:	e8 cb dd fe ff       	callq  4b10 
   16d45:	41 bd 01 00 00 00    	movl   $0x1,%r13d
   16d4b:	eb d6                	jmp    16d23 
   16d4d:	0f 1f 00             	nopl   (%rax)
   16d50:	f3 0f 1e fa          	endbr64 
   16d54:	41 54                	pushq  %r12
   16d56:	55                   	pushq  %rbp
   16d57:	53                   	pushq  %rbx
   16d58:	48 85 ff             	testq  %rdi,%rdi
   16d5b:	74 63                	je     16dc0 
   16d5d:	48 89 fd             	movq   %rdi,%rbp
   16d60:	e8 5b db fe ff       	callq  48c0 
   16d65:	bf 76 00 00 00       	movl   $0x76,%edi
   16d6a:	48 8d 58 01          	leaq   0x1(%rax),%rbx
   16d6e:	48 83 fb 76          	cmpq   $0x76,%rbx
   16d72:	48 0f 43 fb          	cmovaeq %rbx,%rdi
   16d76:	48 83 c7 11          	addq   $0x11,%rdi
   16d7a:	48 83 e7 f8          	andq   $0xfffffffffffffff8,%rdi
   16d7e:	e8 5d d9 fe ff       	callq  46e0 
   16d83:	49 89 c4             	movq   %rax,%r12
   16d86:	48 85 c0             	testq  %rax,%rax
   16d89:	74 28                	je     16db3 
   16d8b:	48 c7 00 00 00 00 00 	movq   $0x0,(%rax)
   16d92:	b8 01 00 00 00       	movl   $0x1,%eax
   16d97:	49 8d 7c 24 09       	leaq   0x9(%r12),%rdi
   16d9c:	48 89 da             	movq   %rbx,%rdx
   16d9f:	66 41 89 44 24 08    	movw   %ax,0x8(%r12)
   16da5:	48 89 ee             	movq   %rbp,%rsi
   16da8:	e8 33 dd fe ff       	callq  4ae0 
   16dad:	41 c6 44 1c 09 00    	movb   $0x0,0x9(%r12,%rbx,1)
   16db3:	4c 89 e0             	movq   %r12,%rax
   16db6:	5b                   	popq   %rbx
   16db7:	5d                   	popq   %rbp
   16db8:	41 5c                	popq   %r12
   16dba:	c3                   	retq   
   16dbb:	0f 1f 44 00 00       	nopl   0x0(%rax,%rax,1)
   16dc0:	bf 80 00 00 00       	movl   $0x80,%edi
   16dc5:	e8 16 d9 fe ff       	callq  46e0 
   16dca:	49 89 c4             	movq   %rax,%r12
   16dcd:	48 85 c0             	testq  %rax,%rax
   16dd0:	74 e1                	je     16db3 
   16dd2:	31 d2                	xorl   %edx,%edx
   16dd4:	49 c7 04 24 00 00 00 00 	movq   $0x0,(%r12)
   16ddc:	4c 89 e0             	movq   %r12,%rax
   16ddf:	66 41 89 54 24 08    	movw   %dx,0x8(%r12)
   16de5:	5b                   	popq   %rbx
   16de6:	5d                   	popq   %rbp
   16de7:	41 5c                	popq   %r12
   16de9:	c3                   	retq   
   16dea:	66 0f 1f 44 00 00    	nopw   0x0(%rax,%rax,1)
   16df0:	41 57                	pushq  %r15
   16df2:	41 56                	pushq  %r14
   16df4:	41 55                	pushq  %r13
   16df6:	41 54                	pushq  %r12
   16df8:	55                   	pushq  %rbp
   16df9:	53                   	pushq  %rbx
   16dfa:	48 83 ec 08          	subq   $0x8,%rsp
   16dfe:	4c 8b 66 30          	movq   0x30(%rsi),%r12
   16e02:	4d 85 e4             	testq  %r12,%r12
   16e05:	0f 84 a5 00 00 00    	je     16eb0 
   16e0b:	48 89 fd             	movq   %rdi,%rbp
   16e0e:	49 89 f5             	movq   %rsi,%r13
   16e11:	4c 39 e6             	cmpq   %r12,%rsi
   16e14:	77 0e                	ja     16e24 
   16e16:	48 8d 56 38          	leaq   0x38(%rsi),%rdx
   16e1a:	b8 01 00 00 00       	movl   $0x1,%eax
   16e1f:	49 39 d4             	cmpq   %rdx,%r12
   16e22:	72 6d                	jb     16e91 
   16e24:	41 80 3c 24 00       	cmpb   $0x0,(%r12)
   16e29:	48 8d 5d 09          	leaq   0x9(%rbp),%rbx
   16e2d:	74 71                	je     16ea0 
   16e2f:	90                   	nop
   16e30:	4c 89 e6             	movq   %r12,%rsi
   16e33:	48 89 df             	movq   %rbx,%rdi
   16e36:	e8 45 dc fe ff       	callq  4a80 
   16e3b:	85 c0                	testl  %eax,%eax
   16e3d:	74 49                	je     16e88 
   16e3f:	80 3b 00             	cmpb   $0x0,(%rbx)
   16e42:	75 0f                	jne    16e53 
   16e44:	4c 8d 75 09          	leaq   0x9(%rbp),%r14
   16e48:	49 39 de             	cmpq   %rbx,%r14
   16e4b:	75 7b                	jne    16ec8 
   16e4d:	80 7d 08 00          	cmpb   $0x0,0x8(%rbp)
   16e51:	74 75                	je     16ec8 
   16e53:	48 89 df             	movq   %rbx,%rdi
   16e56:	e8 65 da fe ff       	callq  48c0 
   16e5b:	48 8d 5c 03 01       	leaq   0x1(%rbx,%rax,1),%rbx
   16e60:	80 3b 00             	cmpb   $0x0,(%rbx)
   16e63:	75 cb                	jne    16e30 
   16e65:	48 8b 45 00          	movq   0x0(%rbp),%rax
   16e69:	48 85 c0             	testq  %rax,%rax
   16e6c:	74 c2                	je     16e30 
   16e6e:	48 8d 58 09          	leaq   0x9(%rax),%rbx
   16e72:	4c 89 e6             	movq   %r12,%rsi
   16e75:	48 89 c5             	movq   %rax,%rbp
   16e78:	48 89 df             	movq   %rbx,%rdi
   16e7b:	e8 00 dc fe ff       	callq  4a80 
   16e80:	85 c0                	testl  %eax,%eax
   16e82:	75 bb                	jne    16e3f 
   16e84:	0f 1f 40 00          	nopl   0x0(%rax)
   16e88:	49 89 5d 30          	movq   %rbx,0x30(%r13)
   16e8c:	b8 01 00 00 00       	movl   $0x1,%eax
   16e91:	48 83 c4 08          	addq   $0x8,%rsp
   16e95:	5b                   	popq   %rbx
   16e96:	5d                   	popq   %rbp
   16e97:	41 5c                	popq   %r12
   16e99:	41 5d                	popq   %r13
   16e9b:	41 5e                	popq   %r14
   16e9d:	41 5f                	popq   %r15
   16e9f:	c3                   	retq   
   16ea0:	48 8d 1d 57 29 00 00 	leaq   0x2957(%rip),%rbx        
   16ea7:	eb df                	jmp    16e88 
   16ea9:	0f 1f 80 00 00 00 00 	nopl   0x0(%rax)
   16eb0:	48 83 c4 08          	addq   $0x8,%rsp
   16eb4:	b8 01 00 00 00       	movl   $0x1,%eax
   16eb9:	5b                   	popq   %rbx
   16eba:	5d                   	popq   %rbp
   16ebb:	41 5c                	popq   %r12
   16ebd:	41 5d                	popq   %r13
   16ebf:	41 5e                	popq   %r14
   16ec1:	41 5f                	popq   %r15
   16ec3:	c3                   	retq   
   16ec4:	0f 1f 40 00          	nopl   0x0(%rax)
   16ec8:	4c 89 e7             	movq   %r12,%rdi
   16ecb:	e8 f0 d9 fe ff       	callq  48c0 
   16ed0:	49 89 c7             	movq   %rax,%r15
   16ed3:	48 8d 50 01          	leaq   0x1(%rax),%rdx
   16ed7:	48 89 d8             	movq   %rbx,%rax
   16eda:	4c 29 f0             	subq   %r14,%rax
   16edd:	48 89 c1             	movq   %rax,%rcx
   16ee0:	48 f7 d1             	notq   %rcx
   16ee3:	48 39 d1             	cmpq   %rdx,%rcx
   16ee6:	72 20                	jb     16f08 
   16ee8:	48 01 d0             	addq   %rdx,%rax
   16eeb:	48 83 f8 76          	cmpq   $0x76,%rax
   16eef:	77 2f                	ja     16f20 
   16ef1:	4c 89 e6             	movq   %r12,%rsi
   16ef4:	48 89 df             	movq   %rbx,%rdi
   16ef7:	e8 e4 db fe ff       	callq  4ae0 
   16efc:	42 c6 44 3b 01 00    	movb   $0x0,0x1(%rbx,%r15,1)
   16f02:	eb 84                	jmp    16e88 
   16f04:	0f 1f 40 00          	nopl   0x0(%rax)
   16f08:	e8 53 d8 fe ff       	callq  4760 
   16f0d:	c7 00 0c 00 00 00    	movl   $0xc,(%rax)
   16f13:	31 c0                	xorl   %eax,%eax
   16f15:	e9 77 ff ff ff       	jmpq   16e91 
   16f1a:	66 0f 1f 44 00 00    	nopw   0x0(%rax,%rax,1)
   16f20:	4c 89 e7             	movq   %r12,%rdi
   16f23:	e8 28 fe ff ff       	callq  16d50 
   16f28:	48 89 45 00          	movq   %rax,0x0(%rbp)
   16f2c:	48 85 c0             	testq  %rax,%rax
   16f2f:	74 0d                	je     16f3e 
   16f31:	c6 40 08 00          	movb   $0x0,0x8(%rax)
   16f35:	48 8d 58 09          	leaq   0x9(%rax),%rbx
   16f39:	e9 4a ff ff ff       	jmpq   16e88 
   16f3e:	31 c0                	xorl   %eax,%eax
   16f40:	e9 4c ff ff ff       	jmpq   16e91 
   16f45:	66 66 2e 0f 1f 84 00 00 00 00 00 	data16 nopw %cs:0x0(%rax,%rax,1)
   16f50:	41 54                	pushq  %r12
   16f52:	55                   	pushq  %rbp
   16f53:	53                   	pushq  %rbx
   16f54:	48 89 fb             	movq   %rdi,%rbx
   16f57:	48 8d 3d 92 2b 00 00 	leaq   0x2b92(%rip),%rdi        
   16f5e:	e8 ad d7 fe ff       	callq  4710 
   16f63:	48 89 c5             	movq   %rax,%rbp
   16f66:	48 85 c0             	testq  %rax,%rax
   16f69:	74 75                	je     16fe0 
   16f6b:	80 7b 08 00          	cmpb   $0x0,0x8(%rbx)
   16f6f:	75 4f                	jne    16fc0 
   16f71:	48 89 ef             	movq   %rbp,%rdi
   16f74:	e8 d7 fd ff ff       	callq  16d50 
   16f79:	49 89 c4             	movq   %rax,%r12
   16f7c:	48 85 c0             	testq  %rax,%rax
   16f7f:	74 32                	je     16fb3 
   16f81:	31 ff                	xorl   %edi,%edi
   16f83:	80 7b 08 00          	cmpb   $0x0,0x8(%rbx)
   16f87:	74 04                	je     16f8d 
   16f89:	48 8d 7b 09          	leaq   0x9(%rbx),%rdi
   16f8d:	e8 fe fc ff ff       	callq  16c90 
   16f92:	85 c0                	testl  %eax,%eax
   16f94:	74 62                	je     16ff8 
   16f96:	e8 c5 d7 fe ff       	callq  4760 
   16f9b:	8b 28                	movl   (%rax),%ebp
   16f9d:	48 89 c3             	movq   %rax,%rbx
   16fa0:	49 83 fc 01          	cmpq   $0x1,%r12
   16fa4:	74 08                	je     16fae 
   16fa6:	4c 89 e7             	movq   %r12,%rdi
   16fa9:	e8 12 fd ff ff       	callq  16cc0 
   16fae:	89 2b                	movl   %ebp,(%rbx)
   16fb0:	45 31 e4             	xorl   %r12d,%r12d
   16fb3:	4c 89 e0             	movq   %r12,%rax
   16fb6:	5b                   	popq   %rbx
   16fb7:	5d                   	popq   %rbp
   16fb8:	41 5c                	popq   %r12
   16fba:	c3                   	retq   
   16fbb:	0f 1f 44 00 00       	nopl   0x0(%rax,%rax,1)
   16fc0:	48 8d 7b 09          	leaq   0x9(%rbx),%rdi
   16fc4:	48 89 c6             	movq   %rax,%rsi
   16fc7:	41 bc 01 00 00 00    	movl   $0x1,%r12d
   16fcd:	e8 ae da fe ff       	callq  4a80 
   16fd2:	85 c0                	testl  %eax,%eax
   16fd4:	75 9b                	jne    16f71 
   16fd6:	4c 89 e0             	movq   %r12,%rax
   16fd9:	5b                   	popq   %rbx
   16fda:	5d                   	popq   %rbp
   16fdb:	41 5c                	popq   %r12
   16fdd:	c3                   	retq   
   16fde:	66 90                	xchgw  %ax,%ax
   16fe0:	80 7b 08 00          	cmpb   $0x0,0x8(%rbx)
   16fe4:	41 bc 01 00 00 00    	movl   $0x1,%r12d
   16fea:	75 85                	jne    16f71 
   16fec:	4c 89 e0             	movq   %r12,%rax
   16fef:	5b                   	popq   %rbx
   16ff0:	5d                   	popq   %rbp
   16ff1:	41 5c                	popq   %r12
   16ff3:	c3                   	retq   
   16ff4:	0f 1f 40 00          	nopl   0x0(%rax)
   16ff8:	e8 13 db fe ff       	callq  4b10 
   16ffd:	4c 89 e0             	movq   %r12,%rax
   17000:	5b                   	popq   %rbx
   17001:	5d                   	popq   %rbp
   17002:	41 5c                	popq   %r12
   17004:	c3                   	retq   
   17005:	66 66 2e 0f 1f 84 00 00 00 00 00 	data16 nopw %cs:0x0(%rax,%rax,1)
   17010:	f3 0f 1e fa          	endbr64 
   17014:	48 83 ff 01          	cmpq   $0x1,%rdi
   17018:	74 06                	je     17020 
   1701a:	e9 a1 fc ff ff       	jmpq   16cc0 
   1701f:	90                   	nop
   17020:	c3                   	retq   
   17021:	66 66 2e 0f 1f 84 00 00 00 00 00 	data16 nopw %cs:0x0(%rax,%rax,1)
   1702c:	0f 1f 40 00          	nopl   0x0(%rax)
   17030:	f3 0f 1e fa          	endbr64 
   17034:	41 56                	pushq  %r14
   17036:	49 89 f6             	movq   %rsi,%r14
   17039:	41 55                	pushq  %r13
   1703b:	41 54                	pushq  %r12
   1703d:	55                   	pushq  %rbp
   1703e:	48 89 d5             	movq   %rdx,%rbp
   17041:	48 83 ec 08          	subq   $0x8,%rsp
   17045:	48 85 ff             	testq  %rdi,%rdi
   17048:	74 76                	je     170c0 
   1704a:	49 89 fc             	movq   %rdi,%r12
   1704d:	e8 fe fe ff ff       	callq  16f50 
   17052:	49 89 c5             	movq   %rax,%r13
   17055:	48 85 c0             	testq  %rax,%rax
   17058:	74 44                	je     1709e 
   1705a:	48 89 ee             	movq   %rbp,%rsi
   1705d:	4c 89 f7             	movq   %r14,%rdi
   17060:	e8 1b d7 fe ff       	callq  4780 
   17065:	48 85 c0             	testq  %rax,%rax
   17068:	74 26                	je     17090 
   1706a:	48 89 ee             	movq   %rbp,%rsi
   1706d:	4c 89 e7             	movq   %r12,%rdi
   17070:	e8 7b fd ff ff       	callq  16df0 
   17075:	84 c0                	testb  %al,%al
   17077:	74 17                	je     17090 
   17079:	49 83 fd 01          	cmpq   $0x1,%r13
   1707d:	75 31                	jne    170b0 
   1707f:	48 83 c4 08          	addq   $0x8,%rsp
   17083:	48 89 e8             	movq   %rbp,%rax
   17086:	5d                   	popq   %rbp
   17087:	41 5c                	popq   %r12
   17089:	41 5d                	popq   %r13
   1708b:	41 5e                	popq   %r14
   1708d:	c3                   	retq   
   1708e:	66 90                	xchgw  %ax,%ax
   17090:	49 83 fd 01          	cmpq   $0x1,%r13
   17094:	74 08                	je     1709e 
   17096:	4c 89 ef             	movq   %r13,%rdi
   17099:	e8 52 fc ff ff       	callq  16cf0 
   1709e:	48 83 c4 08          	addq   $0x8,%rsp
   170a2:	31 c0                	xorl   %eax,%eax
   170a4:	5d                   	popq   %rbp
   170a5:	41 5c                	popq   %r12
   170a7:	41 5d                	popq   %r13
   170a9:	41 5e                	popq   %r14
   170ab:	c3                   	retq   
   170ac:	0f 1f 40 00          	nopl   0x0(%rax)
   170b0:	4c 89 ef             	movq   %r13,%rdi
   170b3:	e8 38 fc ff ff       	callq  16cf0 
   170b8:	84 c0                	testb  %al,%al
   170ba:	75 c3                	jne    1707f 
   170bc:	eb e0                	jmp    1709e 
   170be:	66 90                	xchgw  %ax,%ax
   170c0:	48 83 c4 08          	addq   $0x8,%rsp
   170c4:	4c 89 f7             	movq   %r14,%rdi
   170c7:	48 89 d6             	movq   %rdx,%rsi
   170ca:	5d                   	popq   %rbp
   170cb:	41 5c                	popq   %r12
   170cd:	41 5d                	popq   %r13
   170cf:	41 5e                	popq   %r14
   170d1:	e9 aa d8 fe ff       	jmpq   4980 
   170d6:	66 2e 0f 1f 84 00 00 00 00 00 	nopw   %cs:0x0(%rax,%rax,1)
   170e0:	f3 0f 1e fa          	endbr64 
   170e4:	41 55                	pushq  %r13
   170e6:	41 54                	pushq  %r12
   170e8:	55                   	pushq  %rbp
   170e9:	48 89 f5             	movq   %rsi,%rbp
   170ec:	48 83 ec 50          	subq   $0x50,%rsp
   170f0:	64 48 8b 04 25 28 00 00 00 	movq   %fs:0x28,%rax
   170f9:	48 89 44 24 48       	movq   %rax,0x48(%rsp)
   170fe:	31 c0                	xorl   %eax,%eax
   17100:	48 85 ff             	testq  %rdi,%rdi
   17103:	0f 84 f7 00 00 00    	je     17200 
   17109:	49 89 fc             	movq   %rdi,%r12
   1710c:	e8 3f fe ff ff       	callq  16f50 
   17111:	49 89 c5             	movq   %rax,%r13
   17114:	48 85 c0             	testq  %rax,%rax
   17117:	0f 84 f3 00 00 00    	je     17210 
   1711d:	48 89 ef             	movq   %rbp,%rdi
   17120:	e8 8b da fe ff       	callq  4bb0 
   17125:	48 89 44 24 08       	movq   %rax,0x8(%rsp)
   1712a:	48 83 f8 ff          	cmpq   $0xffffffffffffffff,%rax
   1712e:	74 58                	je     17188 
   17130:	48 89 ee             	movq   %rbp,%rsi
   17133:	4c 89 e7             	movq   %r12,%rdi
   17136:	e8 b5 fc ff ff       	callq  16df0 
   1713b:	84 c0                	testb  %al,%al
   1713d:	75 09                	jne    17148 
   1713f:	48 c7 44 24 08 ff ff ff ff 	movq   $0xffffffffffffffff,0x8(%rsp)
   17148:	49 83 fd 01          	cmpq   $0x1,%r13
   1714c:	74 10                	je     1715e 
   1714e:	4c 89 ef             	movq   %r13,%rdi
   17151:	e8 9a fb ff ff       	callq  16cf0 
   17156:	84 c0                	testb  %al,%al
   17158:	0f 84 b2 00 00 00    	je     17210 
   1715e:	48 8b 44 24 08       	movq   0x8(%rsp),%rax
   17163:	48 8b 4c 24 48       	movq   0x48(%rsp),%rcx
   17168:	64 48 33 0c 25 28 00 00 00 	xorq   %fs:0x28,%rcx
   17171:	0f 85 a5 00 00 00    	jne    1721c 
   17177:	48 83 c4 50          	addq   $0x50,%rsp
   1717b:	5d                   	popq   %rbp
   1717c:	41 5c                	popq   %r12
   1717e:	41 5d                	popq   %r13
   17180:	c3                   	retq   
   17181:	0f 1f 80 00 00 00 00 	nopl   0x0(%rax)
   17188:	48 8d 74 24 10       	leaq   0x10(%rsp),%rsi
   1718d:	48 8d 7c 24 08       	leaq   0x8(%rsp),%rdi
   17192:	e8 e9 d5 fe ff       	callq  4780 
   17197:	48 85 c0             	testq  %rax,%rax
   1719a:	74 ac                	je     17148 
   1719c:	8b 45 20             	movl   0x20(%rbp),%eax
   1719f:	8b 54 24 30          	movl   0x30(%rsp),%edx
   171a3:	85 c0                	testl  %eax,%eax
   171a5:	40 0f 94 c6          	sete   %sil
   171a9:	85 d2                	testl  %edx,%edx
   171ab:	0f 94 c1             	sete   %cl
   171ae:	40 38 ce             	cmpb   %cl,%sil
   171b1:	74 08                	je     171bb 
   171b3:	85 c0                	testl  %eax,%eax
   171b5:	78 04                	js     171bb 
   171b7:	85 d2                	testl  %edx,%edx
   171b9:	79 8d                	jns    17148 
   171bb:	8b 45 10             	movl   0x10(%rbp),%eax
   171be:	8b 55 14             	movl   0x14(%rbp),%edx
   171c1:	33 44 24 20          	xorl   0x20(%rsp),%eax
   171c5:	33 54 24 24          	xorl   0x24(%rsp),%edx
   171c9:	09 d0                	orl    %edx,%eax
   171cb:	8b 55 0c             	movl   0xc(%rbp),%edx
   171ce:	33 54 24 1c          	xorl   0x1c(%rsp),%edx
   171d2:	09 d0                	orl    %edx,%eax
   171d4:	8b 55 08             	movl   0x8(%rbp),%edx
   171d7:	33 54 24 18          	xorl   0x18(%rsp),%edx
   171db:	09 d0                	orl    %edx,%eax
   171dd:	8b 55 04             	movl   0x4(%rbp),%edx
   171e0:	33 54 24 14          	xorl   0x14(%rsp),%edx
   171e4:	09 d0                	orl    %edx,%eax
   171e6:	8b 55 00             	movl   0x0(%rbp),%edx
   171e9:	33 54 24 10          	xorl   0x10(%rsp),%edx
   171ed:	09 d0                	orl    %edx,%eax
   171ef:	0f 84 3b ff ff ff    	je     17130 
   171f5:	e9 4e ff ff ff       	jmpq   17148 
   171fa:	66 0f 1f 44 00 00    	nopw   0x0(%rax,%rax,1)
   17200:	48 89 f7             	movq   %rsi,%rdi
   17203:	e8 18 da fe ff       	callq  4c20 
   17208:	e9 56 ff ff ff       	jmpq   17163 
   1720d:	0f 1f 00             	nopl   (%rax)
   17210:	48 c7 c0 ff ff ff ff 	movq   $0xffffffffffffffff,%rax
   17217:	e9 47 ff ff ff       	jmpq   17163 
   1721c:	e8 bf d6 fe ff       	callq  48e0 
   17221:	66 2e 0f 1f 84 00 00 00 00 00 	nopw   %cs:0x0(%rax,%rax,1)
   1722b:	0f 1f 44 00 00       	nopl   0x0(%rax,%rax,1)
   17230:	f3 0f 1e fa          	endbr64 
   17234:	83 ff 26             	cmpl   $0x26,%edi
   17237:	74 27                	je     17260 
   17239:	7f 15                	jg     17250 
   1723b:	31 c0                	xorl   %eax,%eax
   1723d:	83 ff 10             	cmpl   $0x10,%edi
   17240:	74 20                	je     17262 
   17242:	83 ff 16             	cmpl   $0x16,%edi
   17245:	0f 95 c0             	setne  %al
   17248:	c3                   	retq   
   17249:	0f 1f 80 00 00 00 00 	nopl   0x0(%rax)
   17250:	83 ff 5f             	cmpl   $0x5f,%edi
   17253:	0f 95 c0             	setne  %al
   17256:	c3                   	retq   
   17257:	66 0f 1f 84 00 00 00 00 00 	nopw   0x0(%rax,%rax,1)
   17260:	31 c0                	xorl   %eax,%eax
   17262:	c3                   	retq   
   17263:	66 2e 0f 1f 84 00 00 00 00 00 	nopw   %cs:0x0(%rax,%rax,1)
   1726d:	0f 1f 00             	nopl   (%rax)
   17270:	f3 0f 1e fa          	endbr64 
   17274:	41 54                	pushq  %r12
   17276:	55                   	pushq  %rbp
   17277:	48 89 fd             	movq   %rdi,%rbp
   1727a:	53                   	pushq  %rbx
   1727b:	e8 30 d5 fe ff       	callq  47b0 
   17280:	8b 5d 00             	movl   0x0(%rbp),%ebx
   17283:	48 89 ef             	movq   %rbp,%rdi
   17286:	49 89 c4             	movq   %rax,%r12
   17289:	83 e3 20             	andl   $0x20,%ebx
   1728c:	e8 ef 00 00 00       	callq  17380 
   17291:	85 db                	testl  %ebx,%ebx
   17293:	75 23                	jne    172b8 
   17295:	85 c0                	testl  %eax,%eax
   17297:	74 15                	je     172ae 
   17299:	4d 85 e4             	testq  %r12,%r12
   1729c:	75 30                	jne    172ce 
   1729e:	e8 bd d4 fe ff       	callq  4760 
   172a3:	83 38 09             	cmpl   $0x9,(%rax)
   172a6:	0f 95 c0             	setne  %al
   172a9:	0f b6 c0             	movzbl %al,%eax
   172ac:	f7 d8                	negl   %eax
   172ae:	5b                   	popq   %rbx
   172af:	5d                   	popq   %rbp
   172b0:	41 5c                	popq   %r12
   172b2:	c3                   	retq   
   172b3:	0f 1f 44 00 00       	nopl   0x0(%rax,%rax,1)
   172b8:	85 c0                	testl  %eax,%eax
   172ba:	75 12                	jne    172ce 
   172bc:	e8 9f d4 fe ff       	callq  4760 
   172c1:	c7 00 00 00 00 00    	movl   $0x0,(%rax)
   172c7:	b8 ff ff ff ff       	movl   $0xffffffff,%eax
   172cc:	eb e0                	jmp    172ae 
   172ce:	b8 ff ff ff ff       	movl   $0xffffffff,%eax
   172d3:	eb d9                	jmp    172ae 
   172d5:	66 2e 0f 1f 84 00 00 00 00 00 	nopw   %cs:0x0(%rax,%rax,1)
   172df:	90                   	nop
   172e0:	f3 0f 1e fa          	endbr64 
   172e4:	48 83 ec 08          	subq   $0x8,%rsp
   172e8:	e8 e3 6d ff ff       	callq  e0d0 
   172ed:	48 85 c0             	testq  %rax,%rax
   172f0:	74 05                	je     172f7 
   172f2:	48 83 c4 08          	addq   $0x8,%rsp
   172f6:	c3                   	retq   
   172f7:	e8 34 e8 ff ff       	callq  15b30 
   172fc:	0f 1f 40 00          	nopl   0x0(%rax)
   17300:	f3 0f 1e fa          	endbr64 
   17304:	48 0f be 0f          	movsbq (%rdi),%rcx
   17308:	84 c9                	testb  %cl,%cl
   1730a:	74 24                	je     17330 
   1730c:	31 c0                	xorl   %eax,%eax
   1730e:	66 90                	xchgw  %ax,%ax
   17310:	48 c1 c0 09          	rolq   $0x9,%rax
   17314:	48 83 c7 01          	addq   $0x1,%rdi
   17318:	48 01 c8             	addq   %rcx,%rax
   1731b:	48 0f be 0f          	movsbq (%rdi),%rcx
   1731f:	84 c9                	testb  %cl,%cl
   17321:	75 ed                	jne    17310 
   17323:	31 d2                	xorl   %edx,%edx
   17325:	48 f7 f6             	divq   %rsi
   17328:	49 89 d0             	movq   %rdx,%r8
   1732b:	4c 89 c0             	movq   %r8,%rax
   1732e:	c3                   	retq   
   1732f:	90                   	nop
   17330:	45 31 c0             	xorl   %r8d,%r8d
   17333:	4c 89 c0             	movq   %r8,%rax
   17336:	c3                   	retq   
   17337:	66 0f 1f 84 00 00 00 00 00 	nopw   0x0(%rax,%rax,1)
   17340:	f3 0f 1e fa          	endbr64 
   17344:	48 83 ec 08          	subq   $0x8,%rsp
   17348:	bf 0e 00 00 00       	movl   $0xe,%edi
   1734d:	e8 2e d8 fe ff       	callq  4b80 
   17352:	48 85 c0             	testq  %rax,%rax
   17355:	74 19                	je     17370 
   17357:	80 38 00             	cmpb   $0x0,(%rax)
   1735a:	48 8d 15 e2 5e 00 00 	leaq   0x5ee2(%rip),%rdx        
   17361:	48 0f 44 c2          	cmoveq %rdx,%rax
   17365:	48 83 c4 08          	addq   $0x8,%rsp
   17369:	c3                   	retq   
   1736a:	66 0f 1f 44 00 00    	nopw   0x0(%rax,%rax,1)
   17370:	48 8d 05 cc 5e 00 00 	leaq   0x5ecc(%rip),%rax        
   17377:	48 83 c4 08          	addq   $0x8,%rsp
   1737b:	c3                   	retq   
   1737c:	0f 1f 40 00          	nopl   0x0(%rax)
   17380:	f3 0f 1e fa          	endbr64 
   17384:	41 54                	pushq  %r12
   17386:	55                   	pushq  %rbp
   17387:	48 89 fd             	movq   %rdi,%rbp
   1738a:	53                   	pushq  %rbx
   1738b:	e8 90 d7 fe ff       	callq  4b20 
   17390:	48 89 ef             	movq   %rbp,%rdi
   17393:	85 c0                	testl  %eax,%eax
   17395:	78 58                	js     173ef 
   17397:	e8 24 d8 fe ff       	callq  4bc0 
   1739c:	85 c0                	testl  %eax,%eax
   1739e:	75 30                	jne    173d0 
   173a0:	48 89 ef             	movq   %rbp,%rdi
   173a3:	e8 68 00 00 00       	callq  17410 
   173a8:	85 c0                	testl  %eax,%eax
   173aa:	74 40                	je     173ec 
   173ac:	e8 af d3 fe ff       	callq  4760 
   173b1:	48 89 ef             	movq   %rbp,%rdi
   173b4:	44 8b 20             	movl   (%rax),%r12d
   173b7:	48 89 c3             	movq   %rax,%rbx
   173ba:	e8 a1 d4 fe ff       	callq  4860 
   173bf:	45 85 e4             	testl  %r12d,%r12d
   173c2:	75 3c                	jne    17400 
   173c4:	5b                   	popq   %rbx
   173c5:	5d                   	popq   %rbp
   173c6:	41 5c                	popq   %r12
   173c8:	c3                   	retq   
   173c9:	0f 1f 80 00 00 00 00 	nopl   0x0(%rax)
   173d0:	48 89 ef             	movq   %rbp,%rdi
   173d3:	e8 48 d7 fe ff       	callq  4b20 
   173d8:	31 f6                	xorl   %esi,%esi
   173da:	ba 01 00 00 00       	movl   $0x1,%edx
   173df:	89 c7                	movl   %eax,%edi
   173e1:	e8 aa d5 fe ff       	callq  4990 
   173e6:	48 83 f8 ff          	cmpq   $0xffffffffffffffff,%rax
   173ea:	75 b4                	jne    173a0 
   173ec:	48 89 ef             	movq   %rbp,%rdi
   173ef:	5b                   	popq   %rbx
   173f0:	5d                   	popq   %rbp
   173f1:	41 5c                	popq   %r12
   173f3:	e9 68 d4 fe ff       	jmpq   4860 
   173f8:	0f 1f 84 00 00 00 00 00 	nopl   0x0(%rax,%rax,1)
   17400:	44 89 23             	movl   %r12d,(%rbx)
   17403:	b8 ff ff ff ff       	movl   $0xffffffff,%eax
   17408:	eb ba                	jmp    173c4 
   1740a:	66 0f 1f 44 00 00    	nopw   0x0(%rax,%rax,1)
   17410:	f3 0f 1e fa          	endbr64 
   17414:	55                   	pushq  %rbp
   17415:	48 89 fd             	movq   %rdi,%rbp
   17418:	48 85 ff             	testq  %rdi,%rdi
   1741b:	74 12                	je     1742f 
   1741d:	e8 9e d7 fe ff       	callq  4bc0 
   17422:	85 c0                	testl  %eax,%eax
   17424:	74 09                	je     1742f 
   17426:	f7 45 00 00 01 00 00 	testl  $0x100,0x0(%rbp)
   1742d:	75 11                	jne    17440 
   1742f:	48 89 ef             	movq   %rbp,%rdi
   17432:	5d                   	popq   %rbp
   17433:	e9 38 d7 fe ff       	jmpq   4b70 
   17438:	0f 1f 84 00 00 00 00 00 	nopl   0x0(%rax,%rax,1)
   17440:	48 89 ef             	movq   %rbp,%rdi
   17443:	ba 01 00 00 00       	movl   $0x1,%edx
   17448:	31 f6                	xorl   %esi,%esi
   1744a:	e8 11 00 00 00       	callq  17460 
   1744f:	48 89 ef             	movq   %rbp,%rdi
   17452:	5d                   	popq   %rbp
   17453:	e9 18 d7 fe ff       	jmpq   4b70 
   17458:	0f 1f 84 00 00 00 00 00 	nopl   0x0(%rax,%rax,1)
   17460:	f3 0f 1e fa          	endbr64 
   17464:	55                   	pushq  %rbp
   17465:	48 89 fd             	movq   %rdi,%rbp
   17468:	48 83 ec 10          	subq   $0x10,%rsp
   1746c:	48 8b 47 08          	movq   0x8(%rdi),%rax
   17470:	48 39 47 10          	cmpq   %rax,0x10(%rdi)
   17474:	74 12                	je     17488 
   17476:	48 83 c4 10          	addq   $0x10,%rsp
   1747a:	48 89 ef             	movq   %rbp,%rdi
   1747d:	5d                   	popq   %rbp
   1747e:	e9 ed d7 fe ff       	jmpq   4c70 
   17483:	0f 1f 44 00 00       	nopl   0x0(%rax,%rax,1)
   17488:	48 8b 47 20          	movq   0x20(%rdi),%rax
   1748c:	48 39 47 28          	cmpq   %rax,0x28(%rdi)
   17490:	75 e4                	jne    17476 
   17492:	48 83 7f 48 00       	cmpq   $0x0,0x48(%rdi)
   17497:	75 dd                	jne    17476 
   17499:	89 54 24 0c          	movl   %edx,0xc(%rsp)
   1749d:	48 89 34 24          	movq   %rsi,(%rsp)
   174a1:	e8 7a d6 fe ff       	callq  4b20 
   174a6:	8b 54 24 0c          	movl   0xc(%rsp),%edx
   174aa:	48 8b 34 24          	movq   (%rsp),%rsi
   174ae:	89 c7                	movl   %eax,%edi
   174b0:	e8 db d4 fe ff       	callq  4990 
   174b5:	48 83 f8 ff          	cmpq   $0xffffffffffffffff,%rax
   174b9:	74 13                	je     174ce 
   174bb:	83 65 00 ef          	andl   $0xffffffef,0x0(%rbp)
   174bf:	48 89 85 90 00 00 00 	movq   %rax,0x90(%rbp)
   174c6:	31 c0                	xorl   %eax,%eax
   174c8:	48 83 c4 10          	addq   $0x10,%rsp
   174cc:	5d                   	popq   %rbp
   174cd:	c3                   	retq   
   174ce:	83 c8 ff             	orl    $0xffffffff,%eax
   174d1:	eb f5                	jmp    174c8 
   174d3:	66 2e 0f 1f 84 00 00 00 00 00 	nopw   %cs:0x0(%rax,%rax,1)
   174dd:	0f 1f 00             	nopl   (%rax)
   174e0:	f3 0f 1e fa          	endbr64 
   174e4:	41 57                	pushq  %r15
   174e6:	4c 8d 3d 23 ab 00 00 	leaq   0xab23(%rip),%r15        
   174ed:	41 56                	pushq  %r14
   174ef:	49 89 d6             	movq   %rdx,%r14
   174f2:	41 55                	pushq  %r13
   174f4:	49 89 f5             	movq   %rsi,%r13
   174f7:	41 54                	pushq  %r12
   174f9:	41 89 fc             	movl   %edi,%r12d
   174fc:	55                   	pushq  %rbp
   174fd:	48 8d 2d 14 ab 00 00 	leaq   0xab14(%rip),%rbp        
   17504:	53                   	pushq  %rbx
   17505:	4c 29 fd             	subq   %r15,%rbp
   17508:	48 83 ec 08          	subq   $0x8,%rsp
   1750c:	e8 ef ca fe ff       	callq  4000 
   17511:	48 c1 fd 03          	sarq   $0x3,%rbp
   17515:	74 1f                	je     17536 
   17517:	31 db                	xorl   %ebx,%ebx
   17519:	0f 1f 80 00 00 00 00 	nopl   0x0(%rax)
   17520:	4c 89 f2             	movq   %r14,%rdx
   17523:	4c 89 ee             	movq   %r13,%rsi
   17526:	44 89 e7             	movl   %r12d,%edi
   17529:	41 ff 14 df          	callq  *(%r15,%rbx,8)
   1752d:	48 83 c3 01          	addq   $0x1,%rbx
   17531:	48 39 dd             	cmpq   %rbx,%rbp
   17534:	75 ea                	jne    17520 
   17536:	48 83 c4 08          	addq   $0x8,%rsp
   1753a:	5b                   	popq   %rbx
   1753b:	5d                   	popq   %rbp
   1753c:	41 5c                	popq   %r12
   1753e:	41 5d                	popq   %r13
   17540:	41 5e                	popq   %r14
   17542:	41 5f                	popq   %r15
   17544:	c3                   	retq   
   17545:	66 66 2e 0f 1f 84 00 00 00 00 00 	data16 nopw %cs:0x0(%rax,%rax,1)
   17550:	f3 0f 1e fa          	endbr64 
   17554:	c3                   	retq   
   17555:	66 2e 0f 1f 84 00 00 00 00 00 	nopw   %cs:0x0(%rax,%rax,1)
   1755f:	90                   	nop
   17560:	f3 0f 1e fa          	endbr64 
   17564:	48 8b 15 9d ba 00 00 	movq   0xba9d(%rip),%rdx        
   1756b:	31 f6                	xorl   %esi,%esi
   1756d:	e9 2e d7 fe ff       	jmpq   4ca0 
